                              1 ;--------------------------------------------------------
                              2 ; File Created by SDCC : free open source ANSI-C Compiler
                              3 ; Version 3.5.0 #9253 (Apr  4 2022) (Linux)
                              4 ; This file was generated Mon Apr  4 14:15:34 2022
                              5 ;--------------------------------------------------------
                              6 	.hd64
                              7 	.module _ulong2fs
                              8 	.optsdcc -mz180
                              9 	
                             10 ;--------------------------------------------------------
                             11 ; Public variables in this module
                             12 ;--------------------------------------------------------
                             13 	.globl ___ulong2fs
                             14 ;--------------------------------------------------------
                             15 ; special function registers
                             16 ;--------------------------------------------------------
                             17 ;--------------------------------------------------------
                             18 ; ram data
                             19 ;--------------------------------------------------------
                             20 	.area _DATA
                             21 ;--------------------------------------------------------
                             22 ; ram data
                             23 ;--------------------------------------------------------
                             24 	.area _INITIALIZED
                             25 ;--------------------------------------------------------
                             26 ; absolute external ram data
                             27 ;--------------------------------------------------------
                             28 	.area _DABS (ABS)
                             29 ;--------------------------------------------------------
                             30 ; global & static initialisations
                             31 ;--------------------------------------------------------
                             32 	.area _HOME
                             33 	.area _GSINIT
                             34 	.area _GSFINAL
                             35 	.area _GSINIT
                             36 ;--------------------------------------------------------
                             37 ; Home
                             38 ;--------------------------------------------------------
                             39 	.area _HOME
                             40 ;../_ulong2fs.c:83: float __ulong2fs (unsigned long a )
                             41 ;	---------------------------------
                             42 ; Function __ulong2fs
                             43 ; ---------------------------------
   0000                      44 ___ulong2fs::
   0000 DD E5         [14]   45 	push	ix
   0002 DD 21 00 00   [12]   46 	ld	ix,#0
   0006 DD 39         [10]   47 	add	ix,sp
   0008 21 FA FF      [ 9]   48 	ld	hl,#-6
   000B 39            [ 7]   49 	add	hl,sp
   000C F9            [ 4]   50 	ld	sp,hl
                             51 ;../_ulong2fs.c:88: if (!a)
   000D DD 7E 07      [14]   52 	ld	a,7 (ix)
   0010 DD B6 06      [14]   53 	or	a, 6 (ix)
   0013 DD B6 05      [14]   54 	or	a, 5 (ix)
   0016 DD B6 04      [14]   55 	or	a,4 (ix)
   0019 20 08         [ 8]   56 	jr	NZ,00115$
                             57 ;../_ulong2fs.c:90: return 0.0;
   001B 21 00 00      [ 9]   58 	ld	hl,#0x0000
   001E 5D            [ 4]   59 	ld	e,l
   001F 54            [ 4]   60 	ld	d,h
   0020 C3rE1r00      [ 9]   61 	jp	00111$
                             62 ;../_ulong2fs.c:93: while (a & NORM) 
   0023                      63 00115$:
   0023 21 96 00      [ 9]   64 	ld	hl,#0x0096
   0026                      65 00103$:
   0026 DD 7E 07      [14]   66 	ld	a,7 (ix)
   0029 B7            [ 4]   67 	or	a, a
   002A 28 15         [ 8]   68 	jr	Z,00117$
                             69 ;../_ulong2fs.c:96: a >>= 1;
   002C F5            [11]   70 	push	af
   002D F1            [ 9]   71 	pop	af
   002E DD CB 07 3E   [19]   72 	srl	7 (ix)
   0032 DD CB 06 1E   [19]   73 	rr	6 (ix)
   0036 DD CB 05 1E   [19]   74 	rr	5 (ix)
   003A DD CB 04 1E   [19]   75 	rr	4 (ix)
                             76 ;../_ulong2fs.c:97: exp++;
   003E 23            [ 4]   77 	inc	hl
   003F 18 E5         [ 8]   78 	jr	00103$
                             79 ;../_ulong2fs.c:100: while (a < HIDDEN)
   0041                      80 00117$:
   0041                      81 00106$:
   0041 DD 7E 06      [14]   82 	ld	a,6 (ix)
   0044 D6 80         [ 6]   83 	sub	a, #0x80
   0046 DD 7E 07      [14]   84 	ld	a,7 (ix)
   0049 DE 00         [ 6]   85 	sbc	a, #0x00
   004B 30 15         [ 8]   86 	jr	NC,00120$
                             87 ;../_ulong2fs.c:102: a <<= 1;
   004D F5            [11]   88 	push	af
   004E F1            [ 9]   89 	pop	af
   004F DD CB 04 26   [19]   90 	sla	4 (ix)
   0053 DD CB 05 16   [19]   91 	rl	5 (ix)
   0057 DD CB 06 16   [19]   92 	rl	6 (ix)
   005B DD CB 07 16   [19]   93 	rl	7 (ix)
                             94 ;../_ulong2fs.c:103: exp--;
   005F 2B            [ 4]   95 	dec	hl
   0060 18 DF         [ 8]   96 	jr	00106$
   0062                      97 00120$:
   0062 DD 75 FE      [15]   98 	ld	-2 (ix),l
   0065 DD 74 FF      [15]   99 	ld	-1 (ix),h
                            100 ;../_ulong2fs.c:107: if ((a&0x7fffff)==0x7fffff) {
   0068 DD 56 04      [14]  101 	ld	d,4 (ix)
   006B DD 5E 05      [14]  102 	ld	e,5 (ix)
   006E DD 4E 06      [14]  103 	ld	c,6 (ix)
   0071 CB B9         [ 7]  104 	res	7, c
   0073 06 00         [ 6]  105 	ld	b,#0x00
   0075 14            [ 4]  106 	inc	d
   0076 20 1F         [ 8]  107 	jr	NZ,00110$
   0078 1C            [ 4]  108 	inc	e
   0079 20 1C         [ 8]  109 	jr	NZ,00110$
   007B 79            [ 4]  110 	ld	a,c
   007C D6 7F         [ 6]  111 	sub	a,#0x7F
   007E 20 17         [ 8]  112 	jr	NZ,00110$
   0080 B0            [ 4]  113 	or	a,b
   0081 20 14         [ 8]  114 	jr	NZ,00110$
                            115 ;../_ulong2fs.c:108: a=0;
   0083 AF            [ 4]  116 	xor	a, a
   0084 DD 77 04      [15]  117 	ld	4 (ix),a
   0087 DD 77 05      [15]  118 	ld	5 (ix),a
   008A DD 77 06      [15]  119 	ld	6 (ix),a
   008D DD 77 07      [15]  120 	ld	7 (ix),a
                            121 ;../_ulong2fs.c:109: exp++;
   0090 23            [ 4]  122 	inc	hl
   0091 DD 75 FE      [15]  123 	ld	-2 (ix),l
   0094 DD 74 FF      [15]  124 	ld	-1 (ix),h
   0097                     125 00110$:
                            126 ;../_ulong2fs.c:113: a &= ~HIDDEN ;
   0097 DD CB 06 BE   [19]  127 	res	7, 6 (ix)
                            128 ;../_ulong2fs.c:115: fl.l = PACK(0,(unsigned long)exp, a);
   009B 21 00 00      [ 9]  129 	ld	hl,#0x0000
   009E 39            [ 7]  130 	add	hl,sp
   009F DD 5E FE      [14]  131 	ld	e,-2 (ix)
   00A2 DD 56 FF      [14]  132 	ld	d,-1 (ix)
   00A5 DD 7E FF      [14]  133 	ld	a,-1 (ix)
   00A8 17            [ 3]  134 	rla
   00A9 9F            [ 4]  135 	sbc	a, a
   00AA 4F            [ 4]  136 	ld	c,a
   00AB 47            [ 4]  137 	ld	b,a
   00AC 3E 17         [ 6]  138 	ld	a,#0x17
   00AE                     139 00146$:
   00AE CB 23         [ 7]  140 	sla	e
   00B0 CB 12         [ 7]  141 	rl	d
   00B2 CB 11         [ 7]  142 	rl	c
   00B4 CB 10         [ 7]  143 	rl	b
   00B6 3D            [ 4]  144 	dec	a
   00B7 20 F5         [ 8]  145 	jr	NZ,00146$
   00B9 7B            [ 4]  146 	ld	a,e
   00BA DD B6 04      [14]  147 	or	a, 4 (ix)
   00BD 5F            [ 4]  148 	ld	e,a
   00BE 7A            [ 4]  149 	ld	a,d
   00BF DD B6 05      [14]  150 	or	a, 5 (ix)
   00C2 57            [ 4]  151 	ld	d,a
   00C3 79            [ 4]  152 	ld	a,c
   00C4 DD B6 06      [14]  153 	or	a, 6 (ix)
   00C7 4F            [ 4]  154 	ld	c,a
   00C8 78            [ 4]  155 	ld	a,b
   00C9 DD B6 07      [14]  156 	or	a, 7 (ix)
   00CC 47            [ 4]  157 	ld	b,a
   00CD 73            [ 7]  158 	ld	(hl),e
   00CE 23            [ 4]  159 	inc	hl
   00CF 72            [ 7]  160 	ld	(hl),d
   00D0 23            [ 4]  161 	inc	hl
   00D1 71            [ 7]  162 	ld	(hl),c
   00D2 23            [ 4]  163 	inc	hl
   00D3 70            [ 7]  164 	ld	(hl),b
                            165 ;../_ulong2fs.c:117: return (fl.f);
   00D4 21 00 00      [ 9]  166 	ld	hl,#0x0000
   00D7 39            [ 7]  167 	add	hl,sp
   00D8 46            [ 6]  168 	ld	b,(hl)
   00D9 23            [ 4]  169 	inc	hl
   00DA 4E            [ 6]  170 	ld	c,(hl)
   00DB 23            [ 4]  171 	inc	hl
   00DC 5E            [ 6]  172 	ld	e,(hl)
   00DD 23            [ 4]  173 	inc	hl
   00DE 56            [ 6]  174 	ld	d,(hl)
   00DF 68            [ 4]  175 	ld	l,b
   00E0 61            [ 4]  176 	ld	h,c
   00E1                     177 00111$:
   00E1 DD F9         [ 7]  178 	ld	sp, ix
   00E3 DD E1         [12]  179 	pop	ix
   00E5 C9            [ 9]  180 	ret
                            181 	.area _HOME
                            182 ;--------------------------------------------------------
                            183 ; code
                            184 ;--------------------------------------------------------
                            185 	.area _CODE
                            186 	.area _CODE
                            187 	.area _INITIALIZER
                            188 	.area _CABS (ABS)
