;--------------------------------------------------------
; File Created by SDCC : free open source ANSI-C Compiler
; Version 3.5.0 #9253 (Apr  4 2022) (Linux)
; This file was generated Mon Apr  4 14:15:40 2022
;--------------------------------------------------------
	.hd64
	.module atanf
	.optsdcc -mz180
	
;--------------------------------------------------------
; Public variables in this module
;--------------------------------------------------------
	.globl _fabsf
	.globl _atanf
;--------------------------------------------------------
; special function registers
;--------------------------------------------------------
;--------------------------------------------------------
; ram data
;--------------------------------------------------------
	.area _DATA
;--------------------------------------------------------
; ram data
;--------------------------------------------------------
	.area _INITIALIZED
;--------------------------------------------------------
; absolute external ram data
;--------------------------------------------------------
	.area _DABS (ABS)
;--------------------------------------------------------
; global & static initialisations
;--------------------------------------------------------
	.area _HOME
	.area _GSINIT
	.area _GSFINAL
	.area _GSINIT
;--------------------------------------------------------
; Home
;--------------------------------------------------------
	.area _HOME
	.area _HOME
;--------------------------------------------------------
; code
;--------------------------------------------------------
	.area _CODE
;../atanf.c:55: float atanf(float x) _FLOAT_FUNC_REENTRANT
;	---------------------------------
; Function atanf
; ---------------------------------
_atanf::
	push	ix
	ld	ix,#0
	add	ix,sp
	ld	hl,#-18
	add	hl,sp
	ld	sp,hl
;../atanf.c:58: int n=0;
	ld	hl,#0x0000
	ex	(sp), hl
;../atanf.c:61: f=fabsf(x);
	ld	l,6 (ix)
	ld	h,7 (ix)
	push	hl
	ld	l,4 (ix)
	ld	h,5 (ix)
	push	hl
	call	_fabsf
	inc	sp
	inc	sp
	inc	sp
	inc	sp
	ld	-12 (ix),l
	ld	-11 (ix),h
	ld	-10 (ix),e
	ld	-9 (ix),d
;../atanf.c:62: if(f>1.0)
	ld	hl,#0x3F80
	push	hl
	ld	hl,#0x0000
	push	hl
	ld	l,-10 (ix)
	ld	h,-9 (ix)
	push	hl
	ld	l,-12 (ix)
	ld	h,-11 (ix)
	push	hl
	call	___fsgt
	inc	sp
	inc	sp
	inc	sp
	inc	sp
	inc	sp
	inc	sp
	inc	sp
	inc	sp
	ld	a,l
	or	a, a
	jr	Z,00102$
;../atanf.c:64: f=1.0/f;
	ld	l,-10 (ix)
	ld	h,-9 (ix)
	push	hl
	ld	l,-12 (ix)
	ld	h,-11 (ix)
	push	hl
	ld	hl,#0x3F80
	push	hl
	ld	hl,#0x0000
	push	hl
	call	___fsdiv
	inc	sp
	inc	sp
	inc	sp
	inc	sp
	inc	sp
	inc	sp
	inc	sp
	inc	sp
	ld	-12 (ix),l
	ld	-11 (ix),h
	ld	-10 (ix),e
	ld	-9 (ix),d
;../atanf.c:65: n=2;
	ld	hl,#0x0002
	ex	(sp), hl
00102$:
;../atanf.c:67: if(f>K1)
	ld	hl,#0x3E89
	push	hl
	ld	hl,#0x30A3
	push	hl
	ld	l,-10 (ix)
	ld	h,-9 (ix)
	push	hl
	ld	l,-12 (ix)
	ld	h,-11 (ix)
	push	hl
	call	___fsgt
	inc	sp
	inc	sp
	inc	sp
	inc	sp
	inc	sp
	inc	sp
	inc	sp
	inc	sp
	ld	a,l
	or	a, a
	jp	Z,00104$
;../atanf.c:69: f=((K2*f-1.0)+f)/(K3+f);
	ld	l,-10 (ix)
	ld	h,-9 (ix)
	push	hl
	ld	l,-12 (ix)
	ld	h,-11 (ix)
	push	hl
	ld	hl,#0x3F3B
	push	hl
	ld	hl,#0x67AF
	push	hl
	call	___fsmul
	inc	sp
	inc	sp
	inc	sp
	inc	sp
	inc	sp
	inc	sp
	inc	sp
	inc	sp
	ld	c,l
	ld	b,h
	ld	hl,#0x3F80
	push	hl
	ld	hl,#0x0000
	push	hl
	push	de
	push	bc
	call	___fssub
	inc	sp
	inc	sp
	inc	sp
	inc	sp
	inc	sp
	inc	sp
	inc	sp
	inc	sp
	ld	c,l
	ld	b,h
	ld	l,-10 (ix)
	ld	h,-9 (ix)
	push	hl
	ld	l,-12 (ix)
	ld	h,-11 (ix)
	push	hl
	push	de
	push	bc
	call	___fsadd
	inc	sp
	inc	sp
	inc	sp
	inc	sp
	inc	sp
	inc	sp
	inc	sp
	inc	sp
	ld	-5 (ix),d
	ld	-6 (ix),e
	ld	-7 (ix),h
	ld	-8 (ix),l
	ld	hl,#0x3FDD
	push	hl
	ld	hl,#0xB3D7
	push	hl
	ld	l,-10 (ix)
	ld	h,-9 (ix)
	push	hl
	ld	l,-12 (ix)
	ld	h,-11 (ix)
	push	hl
	call	___fsadd
	inc	sp
	inc	sp
	inc	sp
	inc	sp
	inc	sp
	inc	sp
	inc	sp
	inc	sp
	ex	de, hl
	push	hl
	push	de
	ld	l,-6 (ix)
	ld	h,-5 (ix)
	push	hl
	ld	l,-8 (ix)
	ld	h,-7 (ix)
	push	hl
	call	___fsdiv
	inc	sp
	inc	sp
	inc	sp
	inc	sp
	inc	sp
	inc	sp
	inc	sp
	inc	sp
	ld	-12 (ix),l
	ld	-11 (ix),h
	ld	-10 (ix),e
	ld	-9 (ix),d
;../atanf.c:73: n++;
	inc	-18 (ix)
	jr	NZ,00134$
	inc	-17 (ix)
00134$:
00104$:
;../atanf.c:75: if(fabsf(f)<EPS) r=f;
	ld	l,-10 (ix)
	ld	h,-9 (ix)
	push	hl
	ld	l,-12 (ix)
	ld	h,-11 (ix)
	push	hl
	call	_fabsf
	inc	sp
	inc	sp
	inc	sp
	inc	sp
	ld	c,l
	ld	b,h
	ld	hl,#0x3980
	push	hl
	ld	hl,#0x0000
	push	hl
	push	de
	push	bc
	call	___fslt
	inc	sp
	inc	sp
	inc	sp
	inc	sp
	inc	sp
	inc	sp
	inc	sp
	inc	sp
	ld	-8 (ix), l
	ld	a, l
	or	a, a
	jr	Z,00106$
	ld	hl, #10
	add	hl, sp
	ex	de, hl
	ld	hl, #6
	add	hl, sp
	ld	bc, #4
	ldir
	jp	00107$
00106$:
;../atanf.c:78: g=f*f;
	ld	l,-10 (ix)
	ld	h,-9 (ix)
	push	hl
	ld	l,-12 (ix)
	ld	h,-11 (ix)
	push	hl
	ld	l,-10 (ix)
	ld	h,-9 (ix)
	push	hl
	ld	l,-12 (ix)
	ld	h,-11 (ix)
	push	hl
	call	___fsmul
	inc	sp
	inc	sp
	inc	sp
	inc	sp
	inc	sp
	inc	sp
	inc	sp
	inc	sp
	ld	-16 (ix),l
	ld	-15 (ix),h
	ld	-14 (ix),e
	ld	-13 (ix),d
;../atanf.c:79: r=f+P(g,f)/Q(g);
	ld	l,-14 (ix)
	ld	h,-13 (ix)
	push	hl
	ld	l,-16 (ix)
	ld	h,-15 (ix)
	push	hl
	ld	hl,#0xBD50
	push	hl
	ld	hl,#0x8691
	push	hl
	call	___fsmul
	inc	sp
	inc	sp
	inc	sp
	inc	sp
	inc	sp
	inc	sp
	inc	sp
	inc	sp
	ld	c,l
	ld	b,h
	ld	hl,#0xBEF1
	push	hl
	ld	hl,#0x10F6
	push	hl
	push	de
	push	bc
	call	___fsadd
	inc	sp
	inc	sp
	inc	sp
	inc	sp
	inc	sp
	inc	sp
	inc	sp
	inc	sp
	ld	c,l
	ld	b,h
	ld	l,-14 (ix)
	ld	h,-13 (ix)
	push	hl
	ld	l,-16 (ix)
	ld	h,-15 (ix)
	push	hl
	push	de
	push	bc
	call	___fsmul
	inc	sp
	inc	sp
	inc	sp
	inc	sp
	inc	sp
	inc	sp
	inc	sp
	inc	sp
	ld	c,l
	ld	b,h
	ld	l,-10 (ix)
	ld	h,-9 (ix)
	push	hl
	ld	l,-12 (ix)
	ld	h,-11 (ix)
	push	hl
	push	de
	push	bc
	call	___fsmul
	inc	sp
	inc	sp
	inc	sp
	inc	sp
	inc	sp
	inc	sp
	inc	sp
	inc	sp
	ld	-1 (ix),d
	ld	-2 (ix),e
	ld	-3 (ix),h
	ld	-4 (ix),l
	ld	hl,#0x3FB4
	push	hl
	ld	hl,#0xCCD3
	push	hl
	ld	l,-14 (ix)
	ld	h,-13 (ix)
	push	hl
	ld	l,-16 (ix)
	ld	h,-15 (ix)
	push	hl
	call	___fsadd
	inc	sp
	inc	sp
	inc	sp
	inc	sp
	inc	sp
	inc	sp
	inc	sp
	inc	sp
	ex	de, hl
	push	hl
	push	de
	ld	l,-2 (ix)
	ld	h,-1 (ix)
	push	hl
	ld	l,-4 (ix)
	ld	h,-3 (ix)
	push	hl
	call	___fsdiv
	inc	sp
	inc	sp
	inc	sp
	inc	sp
	inc	sp
	inc	sp
	inc	sp
	inc	sp
	ex	de, hl
	push	hl
	push	de
	ld	l,-10 (ix)
	ld	h,-9 (ix)
	push	hl
	ld	l,-12 (ix)
	ld	h,-11 (ix)
	push	hl
	call	___fsadd
	inc	sp
	inc	sp
	inc	sp
	inc	sp
	inc	sp
	inc	sp
	inc	sp
	inc	sp
	ld	-1 (ix),d
	ld	-2 (ix),e
	ld	-3 (ix),h
	ld	-4 (ix),l
	ld	hl, #10
	add	hl, sp
	ex	de, hl
	ld	hl, #14
	add	hl, sp
	ld	bc, #4
	ldir
00107$:
;../atanf.c:81: if(n>1) r=-r;
	ld	a,#0x01
	cp	a, -18 (ix)
	ld	a,#0x00
	sbc	a, -17 (ix)
	jp	PO, 00135$
	xor	a, #0x80
00135$:
	jp	P,00109$
	ld	a,-5 (ix)
	xor	a,#0x80
	ld	-5 (ix),a
00109$:
;../atanf.c:82: r+=a[n];
	ld	de,#_atanf_a_1_24+0
	pop	hl
	push	hl
	add	hl, hl
	add	hl, hl
	add	hl,de
	ld	e,(hl)
	inc	hl
	ld	d,(hl)
	inc	hl
	ld	c,(hl)
	inc	hl
	ld	b,(hl)
	push	bc
	push	de
	ld	l,-6 (ix)
	ld	h,-5 (ix)
	push	hl
	ld	l,-8 (ix)
	ld	h,-7 (ix)
	push	hl
	call	___fsadd
	inc	sp
	inc	sp
	inc	sp
	inc	sp
	inc	sp
	inc	sp
	inc	sp
	inc	sp
	ld	-1 (ix),d
	ld	-2 (ix),e
	ld	-3 (ix),h
	ld	-4 (ix), l
	ld	b, l
	ld	c,-3 (ix)
	ld	e,-2 (ix)
	ld	d,-1 (ix)
;../atanf.c:83: if(x<0.0) r=-r;
	push	bc
	push	de
	ld	hl,#0x0000
	push	hl
	ld	hl,#0x0000
	push	hl
	ld	l,6 (ix)
	ld	h,7 (ix)
	push	hl
	ld	l,4 (ix)
	ld	h,5 (ix)
	push	hl
	call	___fslt
	inc	sp
	inc	sp
	inc	sp
	inc	sp
	inc	sp
	inc	sp
	inc	sp
	inc	sp
	ld	a,l
	pop	de
	pop	bc
	or	a, a
	jr	Z,00111$
	ld	a,d
	xor	a,#0x80
	ld	d,a
00111$:
;../atanf.c:84: return r;
	ld	l,b
	ld	h,c
	ld	sp, ix
	pop	ix
	ret
_atanf_a_1_24:
	.byte #0x00,#0x00,#0x00,#0x00	;  0.000000e+00
	.byte #0x92,#0x0A,#0x06,#0x3F	;  5.235988e-01
	.byte #0xDB,#0x0F,#0xC9,#0x3F	;  1.570796e+00
	.byte #0x92,#0x0A,#0x86,#0x3F	;  1.047198e+00
	.area _CODE
	.area _INITIALIZER
	.area _CABS (ABS)
