                              1 ;--------------------------------------------------------
                              2 ; File Created by SDCC : free open source ANSI-C Compiler
                              3 ; Version 3.5.0 #9253 (Apr  4 2022) (Linux)
                              4 ; This file was generated Mon Apr  4 14:15:40 2022
                              5 ;--------------------------------------------------------
                              6 	.hd64
                              7 	.module tancotf
                              8 	.optsdcc -mz180
                              9 	
                             10 ;--------------------------------------------------------
                             11 ; Public variables in this module
                             12 ;--------------------------------------------------------
                             13 	.globl _tancotf
                             14 	.globl _fabsf
                             15 ;--------------------------------------------------------
                             16 ; special function registers
                             17 ;--------------------------------------------------------
                             18 ;--------------------------------------------------------
                             19 ; ram data
                             20 ;--------------------------------------------------------
                             21 	.area _DATA
                             22 ;--------------------------------------------------------
                             23 ; ram data
                             24 ;--------------------------------------------------------
                             25 	.area _INITIALIZED
                             26 ;--------------------------------------------------------
                             27 ; absolute external ram data
                             28 ;--------------------------------------------------------
                             29 	.area _DABS (ABS)
                             30 ;--------------------------------------------------------
                             31 ; global & static initialisations
                             32 ;--------------------------------------------------------
                             33 	.area _HOME
                             34 	.area _GSINIT
                             35 	.area _GSFINAL
                             36 	.area _GSINIT
                             37 ;--------------------------------------------------------
                             38 ; Home
                             39 ;--------------------------------------------------------
                             40 	.area _HOME
                             41 	.area _HOME
                             42 ;--------------------------------------------------------
                             43 ; code
                             44 ;--------------------------------------------------------
                             45 	.area _CODE
                             46 ;../tancotf.c:53: float tancotf(float x, bool iscotan)
                             47 ;	---------------------------------
                             48 ; Function tancotf
                             49 ; ---------------------------------
   0000                      50 _tancotf::
   0000 DD E5         [14]   51 	push	ix
   0002 DD 21 00 00   [12]   52 	ld	ix,#0
   0006 DD 39         [10]   53 	add	ix,sp
   0008 21 DD FF      [ 9]   54 	ld	hl,#-35
   000B 39            [ 7]   55 	add	hl,sp
   000C F9            [ 4]   56 	ld	sp,hl
                             57 ;../tancotf.c:58: if (fabsf(x) > YMAX)
   000D DD 6E 06      [14]   58 	ld	l,6 (ix)
   0010 DD 66 07      [14]   59 	ld	h,7 (ix)
   0013 E5            [11]   60 	push	hl
   0014 DD 6E 04      [14]   61 	ld	l,4 (ix)
   0017 DD 66 05      [14]   62 	ld	h,5 (ix)
   001A E5            [11]   63 	push	hl
   001B CDr00r00      [16]   64 	call	_fabsf
   001E 33            [ 4]   65 	inc	sp
   001F 33            [ 4]   66 	inc	sp
   0020 33            [ 4]   67 	inc	sp
   0021 33            [ 4]   68 	inc	sp
   0022 4D            [ 4]   69 	ld	c,l
   0023 44            [ 4]   70 	ld	b,h
   0024 21 C9 45      [ 9]   71 	ld	hl,#0x45C9
   0027 E5            [11]   72 	push	hl
   0028 21 00 08      [ 9]   73 	ld	hl,#0x0800
   002B E5            [11]   74 	push	hl
   002C D5            [11]   75 	push	de
   002D C5            [11]   76 	push	bc
   002E CDr00r00      [16]   77 	call	___fsgt
   0031 33            [ 4]   78 	inc	sp
   0032 33            [ 4]   79 	inc	sp
   0033 33            [ 4]   80 	inc	sp
   0034 33            [ 4]   81 	inc	sp
   0035 33            [ 4]   82 	inc	sp
   0036 33            [ 4]   83 	inc	sp
   0037 33            [ 4]   84 	inc	sp
   0038 33            [ 4]   85 	inc	sp
   0039 DD 75 F3      [15]   86 	ld	-13 (ix), l
   003C 7D            [ 4]   87 	ld	a, l
   003D B7            [ 4]   88 	or	a, a
   003E 28 0E         [ 8]   89 	jr	Z,00102$
                             90 ;../tancotf.c:60: errno = ERANGE;
   0040 21 22 00      [ 9]   91 	ld	hl,#0x0022
   0043 22r00r00      [16]   92 	ld	(_errno),hl
                             93 ;../tancotf.c:61: return 0.0;
   0046 21 00 00      [ 9]   94 	ld	hl,#0x0000
   0049 5D            [ 4]   95 	ld	e,l
   004A 54            [ 4]   96 	ld	d,h
   004B C3rD4r04      [ 9]   97 	jp	00115$
   004E                      98 00102$:
                             99 ;../tancotf.c:65: n=(x*TWO_O_PI+(x>0.0?0.5:-0.5)); /*works for +-x*/
   004E DD 6E 06      [14]  100 	ld	l,6 (ix)
   0051 DD 66 07      [14]  101 	ld	h,7 (ix)
   0054 E5            [11]  102 	push	hl
   0055 DD 6E 04      [14]  103 	ld	l,4 (ix)
   0058 DD 66 05      [14]  104 	ld	h,5 (ix)
   005B E5            [11]  105 	push	hl
   005C 21 22 3F      [ 9]  106 	ld	hl,#0x3F22
   005F E5            [11]  107 	push	hl
   0060 21 83 F9      [ 9]  108 	ld	hl,#0xF983
   0063 E5            [11]  109 	push	hl
   0064 CDr00r00      [16]  110 	call	___fsmul
   0067 33            [ 4]  111 	inc	sp
   0068 33            [ 4]  112 	inc	sp
   0069 33            [ 4]  113 	inc	sp
   006A 33            [ 4]  114 	inc	sp
   006B 33            [ 4]  115 	inc	sp
   006C 33            [ 4]  116 	inc	sp
   006D 33            [ 4]  117 	inc	sp
   006E 33            [ 4]  118 	inc	sp
   006F DD 72 FB      [15]  119 	ld	-5 (ix),d
   0072 DD 73 FA      [15]  120 	ld	-6 (ix),e
   0075 DD 74 F9      [15]  121 	ld	-7 (ix),h
   0078 DD 75 F8      [15]  122 	ld	-8 (ix),l
   007B 21 00 00      [ 9]  123 	ld	hl,#0x0000
   007E E5            [11]  124 	push	hl
   007F 21 00 00      [ 9]  125 	ld	hl,#0x0000
   0082 E5            [11]  126 	push	hl
   0083 DD 6E 06      [14]  127 	ld	l,6 (ix)
   0086 DD 66 07      [14]  128 	ld	h,7 (ix)
   0089 E5            [11]  129 	push	hl
   008A DD 6E 04      [14]  130 	ld	l,4 (ix)
   008D DD 66 05      [14]  131 	ld	h,5 (ix)
   0090 E5            [11]  132 	push	hl
   0091 CDr00r00      [16]  133 	call	___fsgt
   0094 33            [ 4]  134 	inc	sp
   0095 33            [ 4]  135 	inc	sp
   0096 33            [ 4]  136 	inc	sp
   0097 33            [ 4]  137 	inc	sp
   0098 33            [ 4]  138 	inc	sp
   0099 33            [ 4]  139 	inc	sp
   009A 33            [ 4]  140 	inc	sp
   009B 33            [ 4]  141 	inc	sp
   009C 7D            [ 4]  142 	ld	a,l
   009D B7            [ 4]  143 	or	a, a
   009E 28 08         [ 8]  144 	jr	Z,00117$
   00A0 01 00 00      [ 9]  145 	ld	bc,#0x0000
   00A3 21 00 3F      [ 9]  146 	ld	hl,#0x3F00
   00A6 18 06         [ 8]  147 	jr	00118$
   00A8                     148 00117$:
   00A8 01 00 00      [ 9]  149 	ld	bc,#0x0000
   00AB 21 00 BF      [ 9]  150 	ld	hl,#0xBF00
   00AE                     151 00118$:
   00AE E5            [11]  152 	push	hl
   00AF C5            [11]  153 	push	bc
   00B0 DD 6E FA      [14]  154 	ld	l,-6 (ix)
   00B3 DD 66 FB      [14]  155 	ld	h,-5 (ix)
   00B6 E5            [11]  156 	push	hl
   00B7 DD 6E F8      [14]  157 	ld	l,-8 (ix)
   00BA DD 66 F9      [14]  158 	ld	h,-7 (ix)
   00BD E5            [11]  159 	push	hl
   00BE CDr00r00      [16]  160 	call	___fsadd
   00C1 33            [ 4]  161 	inc	sp
   00C2 33            [ 4]  162 	inc	sp
   00C3 33            [ 4]  163 	inc	sp
   00C4 33            [ 4]  164 	inc	sp
   00C5 33            [ 4]  165 	inc	sp
   00C6 33            [ 4]  166 	inc	sp
   00C7 33            [ 4]  167 	inc	sp
   00C8 33            [ 4]  168 	inc	sp
   00C9 D5            [11]  169 	push	de
   00CA E5            [11]  170 	push	hl
   00CB CDr00r00      [16]  171 	call	___fs2sint
   00CE 33            [ 4]  172 	inc	sp
   00CF 33            [ 4]  173 	inc	sp
   00D0 33            [ 4]  174 	inc	sp
   00D1 33            [ 4]  175 	inc	sp
   00D2 33            [ 4]  176 	inc	sp
   00D3 33            [ 4]  177 	inc	sp
   00D4 E5            [11]  178 	push	hl
                            179 ;../tancotf.c:66: xn=n;
   00D5 E1            [ 9]  180 	pop	hl
   00D6 E5            [11]  181 	push	hl
   00D7 E5            [11]  182 	push	hl
   00D8 CDr00r00      [16]  183 	call	___sint2fs
   00DB 33            [ 4]  184 	inc	sp
   00DC 33            [ 4]  185 	inc	sp
   00DD DD 72 EA      [15]  186 	ld	-22 (ix),d
   00E0 DD 73 E9      [15]  187 	ld	-23 (ix),e
   00E3 DD 74 E8      [15]  188 	ld	-24 (ix),h
   00E6 DD 75 E7      [15]  189 	ld	-25 (ix),l
                            190 ;../tancotf.c:68: xnum=(int)x;
   00E9 DD 6E 06      [14]  191 	ld	l,6 (ix)
   00EC DD 66 07      [14]  192 	ld	h,7 (ix)
   00EF E5            [11]  193 	push	hl
   00F0 DD 6E 04      [14]  194 	ld	l,4 (ix)
   00F3 DD 66 05      [14]  195 	ld	h,5 (ix)
   00F6 E5            [11]  196 	push	hl
   00F7 CDr00r00      [16]  197 	call	___fs2sint
   00FA 33            [ 4]  198 	inc	sp
   00FB 33            [ 4]  199 	inc	sp
   00FC 33            [ 4]  200 	inc	sp
   00FD 33            [ 4]  201 	inc	sp
   00FE DD 74 F9      [15]  202 	ld	-7 (ix),h
   0101 DD 75 F8      [15]  203 	ld	-8 (ix), l
   0104 DD 66 F9      [14]  204 	ld	h,-7 (ix)
   0107 E5            [11]  205 	push	hl
   0108 CDr00r00      [16]  206 	call	___sint2fs
   010B 33            [ 4]  207 	inc	sp
   010C 33            [ 4]  208 	inc	sp
   010D DD 72 E6      [15]  209 	ld	-26 (ix),d
   0110 DD 73 E5      [15]  210 	ld	-27 (ix),e
   0113 DD 74 E4      [15]  211 	ld	-28 (ix),h
   0116 DD 75 E3      [15]  212 	ld	-29 (ix),l
   0119 21 1B 00      [ 9]  213 	ld	hl, #27
   011C 39            [ 7]  214 	add	hl, sp
   011D EB            [ 3]  215 	ex	de, hl
   011E 21 06 00      [ 9]  216 	ld	hl, #6
   0121 39            [ 7]  217 	add	hl, sp
   0122 01 04 00      [ 9]  218 	ld	bc, #4
   0125 ED B0         [14]  219 	ldir
                            220 ;../tancotf.c:69: xden=x-xnum;
   0127 DD 6E FA      [14]  221 	ld	l,-6 (ix)
   012A DD 66 FB      [14]  222 	ld	h,-5 (ix)
   012D E5            [11]  223 	push	hl
   012E DD 6E F8      [14]  224 	ld	l,-8 (ix)
   0131 DD 66 F9      [14]  225 	ld	h,-7 (ix)
   0134 E5            [11]  226 	push	hl
   0135 DD 6E 06      [14]  227 	ld	l,6 (ix)
   0138 DD 66 07      [14]  228 	ld	h,7 (ix)
   013B E5            [11]  229 	push	hl
   013C DD 6E 04      [14]  230 	ld	l,4 (ix)
   013F DD 66 05      [14]  231 	ld	h,5 (ix)
   0142 E5            [11]  232 	push	hl
   0143 CDr00r00      [16]  233 	call	___fssub
   0146 33            [ 4]  234 	inc	sp
   0147 33            [ 4]  235 	inc	sp
   0148 33            [ 4]  236 	inc	sp
   0149 33            [ 4]  237 	inc	sp
   014A 33            [ 4]  238 	inc	sp
   014B 33            [ 4]  239 	inc	sp
   014C 33            [ 4]  240 	inc	sp
   014D 33            [ 4]  241 	inc	sp
   014E DD 72 E2      [15]  242 	ld	-30 (ix),d
   0151 DD 73 E1      [15]  243 	ld	-31 (ix),e
   0154 DD 74 E0      [15]  244 	ld	-32 (ix),h
   0157 DD 75 DF      [15]  245 	ld	-33 (ix),l
   015A 21 1F 00      [ 9]  246 	ld	hl, #31
   015D 39            [ 7]  247 	add	hl, sp
   015E EB            [ 3]  248 	ex	de, hl
   015F 21 02 00      [ 9]  249 	ld	hl, #2
   0162 39            [ 7]  250 	add	hl, sp
   0163 01 04 00      [ 9]  251 	ld	bc, #4
   0166 ED B0         [14]  252 	ldir
                            253 ;../tancotf.c:70: f=((xnum-xn*C1)+xden)-xn*C2;
   0168 DD 6E E9      [14]  254 	ld	l,-23 (ix)
   016B DD 66 EA      [14]  255 	ld	h,-22 (ix)
   016E E5            [11]  256 	push	hl
   016F DD 6E E7      [14]  257 	ld	l,-25 (ix)
   0172 DD 66 E8      [14]  258 	ld	h,-24 (ix)
   0175 E5            [11]  259 	push	hl
   0176 21 C9 3F      [ 9]  260 	ld	hl,#0x3FC9
   0179 E5            [11]  261 	push	hl
   017A 21 00 00      [ 9]  262 	ld	hl,#0x0000
   017D E5            [11]  263 	push	hl
   017E CDr00r00      [16]  264 	call	___fsmul
   0181 33            [ 4]  265 	inc	sp
   0182 33            [ 4]  266 	inc	sp
   0183 33            [ 4]  267 	inc	sp
   0184 33            [ 4]  268 	inc	sp
   0185 33            [ 4]  269 	inc	sp
   0186 33            [ 4]  270 	inc	sp
   0187 33            [ 4]  271 	inc	sp
   0188 33            [ 4]  272 	inc	sp
   0189 DD 72 F7      [15]  273 	ld	-9 (ix),d
   018C DD 73 F6      [15]  274 	ld	-10 (ix),e
   018F DD 74 F5      [15]  275 	ld	-11 (ix),h
   0192 DD 75 F4      [15]  276 	ld	-12 (ix),l
   0195 DD 6E F6      [14]  277 	ld	l,-10 (ix)
   0198 DD 66 F7      [14]  278 	ld	h,-9 (ix)
   019B E5            [11]  279 	push	hl
   019C DD 6E F4      [14]  280 	ld	l,-12 (ix)
   019F DD 66 F5      [14]  281 	ld	h,-11 (ix)
   01A2 E5            [11]  282 	push	hl
   01A3 DD 6E FA      [14]  283 	ld	l,-6 (ix)
   01A6 DD 66 FB      [14]  284 	ld	h,-5 (ix)
   01A9 E5            [11]  285 	push	hl
   01AA DD 6E F8      [14]  286 	ld	l,-8 (ix)
   01AD DD 66 F9      [14]  287 	ld	h,-7 (ix)
   01B0 E5            [11]  288 	push	hl
   01B1 CDr00r00      [16]  289 	call	___fssub
   01B4 33            [ 4]  290 	inc	sp
   01B5 33            [ 4]  291 	inc	sp
   01B6 33            [ 4]  292 	inc	sp
   01B7 33            [ 4]  293 	inc	sp
   01B8 33            [ 4]  294 	inc	sp
   01B9 33            [ 4]  295 	inc	sp
   01BA 33            [ 4]  296 	inc	sp
   01BB 33            [ 4]  297 	inc	sp
   01BC DD 72 F7      [15]  298 	ld	-9 (ix),d
   01BF DD 73 F6      [15]  299 	ld	-10 (ix),e
   01C2 DD 74 F5      [15]  300 	ld	-11 (ix),h
   01C5 DD 75 F4      [15]  301 	ld	-12 (ix),l
   01C8 DD 6E FE      [14]  302 	ld	l,-2 (ix)
   01CB DD 66 FF      [14]  303 	ld	h,-1 (ix)
   01CE E5            [11]  304 	push	hl
   01CF DD 6E FC      [14]  305 	ld	l,-4 (ix)
   01D2 DD 66 FD      [14]  306 	ld	h,-3 (ix)
   01D5 E5            [11]  307 	push	hl
   01D6 DD 6E F6      [14]  308 	ld	l,-10 (ix)
   01D9 DD 66 F7      [14]  309 	ld	h,-9 (ix)
   01DC E5            [11]  310 	push	hl
   01DD DD 6E F4      [14]  311 	ld	l,-12 (ix)
   01E0 DD 66 F5      [14]  312 	ld	h,-11 (ix)
   01E3 E5            [11]  313 	push	hl
   01E4 CDr00r00      [16]  314 	call	___fsadd
   01E7 33            [ 4]  315 	inc	sp
   01E8 33            [ 4]  316 	inc	sp
   01E9 33            [ 4]  317 	inc	sp
   01EA 33            [ 4]  318 	inc	sp
   01EB 33            [ 4]  319 	inc	sp
   01EC 33            [ 4]  320 	inc	sp
   01ED 33            [ 4]  321 	inc	sp
   01EE 33            [ 4]  322 	inc	sp
   01EF DD 72 F7      [15]  323 	ld	-9 (ix),d
   01F2 DD 73 F6      [15]  324 	ld	-10 (ix),e
   01F5 DD 74 F5      [15]  325 	ld	-11 (ix),h
   01F8 DD 75 F4      [15]  326 	ld	-12 (ix),l
   01FB DD 6E E9      [14]  327 	ld	l,-23 (ix)
   01FE DD 66 EA      [14]  328 	ld	h,-22 (ix)
   0201 E5            [11]  329 	push	hl
   0202 DD 6E E7      [14]  330 	ld	l,-25 (ix)
   0205 DD 66 E8      [14]  331 	ld	h,-24 (ix)
   0208 E5            [11]  332 	push	hl
   0209 21 FD 39      [ 9]  333 	ld	hl,#0x39FD
   020C E5            [11]  334 	push	hl
   020D 21 22 AA      [ 9]  335 	ld	hl,#0xAA22
   0210 E5            [11]  336 	push	hl
   0211 CDr00r00      [16]  337 	call	___fsmul
   0214 33            [ 4]  338 	inc	sp
   0215 33            [ 4]  339 	inc	sp
   0216 33            [ 4]  340 	inc	sp
   0217 33            [ 4]  341 	inc	sp
   0218 33            [ 4]  342 	inc	sp
   0219 33            [ 4]  343 	inc	sp
   021A 33            [ 4]  344 	inc	sp
   021B 33            [ 4]  345 	inc	sp
   021C DD 72 FF      [15]  346 	ld	-1 (ix),d
   021F DD 73 FE      [15]  347 	ld	-2 (ix),e
   0222 DD 74 FD      [15]  348 	ld	-3 (ix),h
   0225 DD 75 FC      [15]  349 	ld	-4 (ix),l
   0228 DD 6E FE      [14]  350 	ld	l,-2 (ix)
   022B DD 66 FF      [14]  351 	ld	h,-1 (ix)
   022E E5            [11]  352 	push	hl
   022F DD 6E FC      [14]  353 	ld	l,-4 (ix)
   0232 DD 66 FD      [14]  354 	ld	h,-3 (ix)
   0235 E5            [11]  355 	push	hl
   0236 DD 6E F6      [14]  356 	ld	l,-10 (ix)
   0239 DD 66 F7      [14]  357 	ld	h,-9 (ix)
   023C E5            [11]  358 	push	hl
   023D DD 6E F4      [14]  359 	ld	l,-12 (ix)
   0240 DD 66 F5      [14]  360 	ld	h,-11 (ix)
   0243 E5            [11]  361 	push	hl
   0244 CDr00r00      [16]  362 	call	___fssub
   0247 33            [ 4]  363 	inc	sp
   0248 33            [ 4]  364 	inc	sp
   0249 33            [ 4]  365 	inc	sp
   024A 33            [ 4]  366 	inc	sp
   024B 33            [ 4]  367 	inc	sp
   024C 33            [ 4]  368 	inc	sp
   024D 33            [ 4]  369 	inc	sp
   024E 33            [ 4]  370 	inc	sp
   024F DD 72 F2      [15]  371 	ld	-14 (ix),d
   0252 DD 73 F1      [15]  372 	ld	-15 (ix),e
   0255 DD 74 F0      [15]  373 	ld	-16 (ix),h
   0258 DD 75 EF      [15]  374 	ld	-17 (ix),l
                            375 ;../tancotf.c:72: if (fabsf(f) < EPS)
   025B DD 6E F1      [14]  376 	ld	l,-15 (ix)
   025E DD 66 F2      [14]  377 	ld	h,-14 (ix)
   0261 E5            [11]  378 	push	hl
   0262 DD 6E EF      [14]  379 	ld	l,-17 (ix)
   0265 DD 66 F0      [14]  380 	ld	h,-16 (ix)
   0268 E5            [11]  381 	push	hl
   0269 CDr00r00      [16]  382 	call	_fabsf
   026C 33            [ 4]  383 	inc	sp
   026D 33            [ 4]  384 	inc	sp
   026E 33            [ 4]  385 	inc	sp
   026F 33            [ 4]  386 	inc	sp
   0270 DD 72 F7      [15]  387 	ld	-9 (ix),d
   0273 DD 73 F6      [15]  388 	ld	-10 (ix),e
   0276 DD 74 F5      [15]  389 	ld	-11 (ix),h
   0279 DD 75 F4      [15]  390 	ld	-12 (ix),l
   027C 21 80 39      [ 9]  391 	ld	hl,#0x3980
   027F E5            [11]  392 	push	hl
   0280 21 00 00      [ 9]  393 	ld	hl,#0x0000
   0283 E5            [11]  394 	push	hl
   0284 DD 6E F6      [14]  395 	ld	l,-10 (ix)
   0287 DD 66 F7      [14]  396 	ld	h,-9 (ix)
   028A E5            [11]  397 	push	hl
   028B DD 6E F4      [14]  398 	ld	l,-12 (ix)
   028E DD 66 F5      [14]  399 	ld	h,-11 (ix)
   0291 E5            [11]  400 	push	hl
   0292 CDr00r00      [16]  401 	call	___fslt
   0295 33            [ 4]  402 	inc	sp
   0296 33            [ 4]  403 	inc	sp
   0297 33            [ 4]  404 	inc	sp
   0298 33            [ 4]  405 	inc	sp
   0299 33            [ 4]  406 	inc	sp
   029A 33            [ 4]  407 	inc	sp
   029B 33            [ 4]  408 	inc	sp
   029C 33            [ 4]  409 	inc	sp
   029D DD 75 F4      [15]  410 	ld	-12 (ix), l
   02A0 7D            [ 4]  411 	ld	a, l
   02A1 B7            [ 4]  412 	or	a, a
   02A2 28 21         [ 8]  413 	jr	Z,00104$
                            414 ;../tancotf.c:74: xnum = f;
   02A4 21 06 00      [ 9]  415 	ld	hl, #6
   02A7 39            [ 7]  416 	add	hl, sp
   02A8 EB            [ 3]  417 	ex	de, hl
   02A9 21 12 00      [ 9]  418 	ld	hl, #18
   02AC 39            [ 7]  419 	add	hl, sp
   02AD 01 04 00      [ 9]  420 	ld	bc, #4
   02B0 ED B0         [14]  421 	ldir
                            422 ;../tancotf.c:75: xden = 1.0;
   02B2 DD 36 DF 00   [15]  423 	ld	-33 (ix),#0x00
   02B6 DD 36 E0 00   [15]  424 	ld	-32 (ix),#0x00
   02BA DD 36 E1 80   [15]  425 	ld	-31 (ix),#0x80
   02BE DD 36 E2 3F   [15]  426 	ld	-30 (ix),#0x3F
   02C2 C3rD7r03      [ 9]  427 	jp	00105$
   02C5                     428 00104$:
                            429 ;../tancotf.c:79: g = f*f;
   02C5 DD 6E F1      [14]  430 	ld	l,-15 (ix)
   02C8 DD 66 F2      [14]  431 	ld	h,-14 (ix)
   02CB E5            [11]  432 	push	hl
   02CC DD 6E EF      [14]  433 	ld	l,-17 (ix)
   02CF DD 66 F0      [14]  434 	ld	h,-16 (ix)
   02D2 E5            [11]  435 	push	hl
   02D3 DD 6E F1      [14]  436 	ld	l,-15 (ix)
   02D6 DD 66 F2      [14]  437 	ld	h,-14 (ix)
   02D9 E5            [11]  438 	push	hl
   02DA DD 6E EF      [14]  439 	ld	l,-17 (ix)
   02DD DD 66 F0      [14]  440 	ld	h,-16 (ix)
   02E0 E5            [11]  441 	push	hl
   02E1 CDr00r00      [16]  442 	call	___fsmul
   02E4 33            [ 4]  443 	inc	sp
   02E5 33            [ 4]  444 	inc	sp
   02E6 33            [ 4]  445 	inc	sp
   02E7 33            [ 4]  446 	inc	sp
   02E8 33            [ 4]  447 	inc	sp
   02E9 33            [ 4]  448 	inc	sp
   02EA 33            [ 4]  449 	inc	sp
   02EB 33            [ 4]  450 	inc	sp
   02EC DD 75 EB      [15]  451 	ld	-21 (ix),l
   02EF DD 74 EC      [15]  452 	ld	-20 (ix),h
   02F2 DD 73 ED      [15]  453 	ld	-19 (ix),e
   02F5 DD 72 EE      [15]  454 	ld	-18 (ix),d
                            455 ;../tancotf.c:80: xnum = P(f,g);
   02F8 DD 6E ED      [14]  456 	ld	l,-19 (ix)
   02FB DD 66 EE      [14]  457 	ld	h,-18 (ix)
   02FE E5            [11]  458 	push	hl
   02FF DD 6E EB      [14]  459 	ld	l,-21 (ix)
   0302 DD 66 EC      [14]  460 	ld	h,-20 (ix)
   0305 E5            [11]  461 	push	hl
   0306 21 C4 BD      [ 9]  462 	ld	hl,#0xBDC4
   0309 E5            [11]  463 	push	hl
   030A 21 B8 33      [ 9]  464 	ld	hl,#0x33B8
   030D E5            [11]  465 	push	hl
   030E CDr00r00      [16]  466 	call	___fsmul
   0311 33            [ 4]  467 	inc	sp
   0312 33            [ 4]  468 	inc	sp
   0313 33            [ 4]  469 	inc	sp
   0314 33            [ 4]  470 	inc	sp
   0315 33            [ 4]  471 	inc	sp
   0316 33            [ 4]  472 	inc	sp
   0317 33            [ 4]  473 	inc	sp
   0318 33            [ 4]  474 	inc	sp
   0319 4D            [ 4]  475 	ld	c,l
   031A 44            [ 4]  476 	ld	b,h
   031B DD 6E F1      [14]  477 	ld	l,-15 (ix)
   031E DD 66 F2      [14]  478 	ld	h,-14 (ix)
   0321 E5            [11]  479 	push	hl
   0322 DD 6E EF      [14]  480 	ld	l,-17 (ix)
   0325 DD 66 F0      [14]  481 	ld	h,-16 (ix)
   0328 E5            [11]  482 	push	hl
   0329 D5            [11]  483 	push	de
   032A C5            [11]  484 	push	bc
   032B CDr00r00      [16]  485 	call	___fsmul
   032E 33            [ 4]  486 	inc	sp
   032F 33            [ 4]  487 	inc	sp
   0330 33            [ 4]  488 	inc	sp
   0331 33            [ 4]  489 	inc	sp
   0332 33            [ 4]  490 	inc	sp
   0333 33            [ 4]  491 	inc	sp
   0334 33            [ 4]  492 	inc	sp
   0335 33            [ 4]  493 	inc	sp
   0336 4D            [ 4]  494 	ld	c,l
   0337 44            [ 4]  495 	ld	b,h
   0338 DD 6E F1      [14]  496 	ld	l,-15 (ix)
   033B DD 66 F2      [14]  497 	ld	h,-14 (ix)
   033E E5            [11]  498 	push	hl
   033F DD 6E EF      [14]  499 	ld	l,-17 (ix)
   0342 DD 66 F0      [14]  500 	ld	h,-16 (ix)
   0345 E5            [11]  501 	push	hl
   0346 D5            [11]  502 	push	de
   0347 C5            [11]  503 	push	bc
   0348 CDr00r00      [16]  504 	call	___fsadd
   034B 33            [ 4]  505 	inc	sp
   034C 33            [ 4]  506 	inc	sp
   034D 33            [ 4]  507 	inc	sp
   034E 33            [ 4]  508 	inc	sp
   034F 33            [ 4]  509 	inc	sp
   0350 33            [ 4]  510 	inc	sp
   0351 33            [ 4]  511 	inc	sp
   0352 33            [ 4]  512 	inc	sp
   0353 DD 75 E3      [15]  513 	ld	-29 (ix),l
   0356 DD 74 E4      [15]  514 	ld	-28 (ix),h
   0359 DD 73 E5      [15]  515 	ld	-27 (ix),e
   035C DD 72 E6      [15]  516 	ld	-26 (ix),d
                            517 ;../tancotf.c:81: xden = Q(g);
   035F DD 6E ED      [14]  518 	ld	l,-19 (ix)
   0362 DD 66 EE      [14]  519 	ld	h,-18 (ix)
   0365 E5            [11]  520 	push	hl
   0366 DD 6E EB      [14]  521 	ld	l,-21 (ix)
   0369 DD 66 EC      [14]  522 	ld	h,-20 (ix)
   036C E5            [11]  523 	push	hl
   036D 21 1F 3C      [ 9]  524 	ld	hl,#0x3C1F
   0370 E5            [11]  525 	push	hl
   0371 21 75 33      [ 9]  526 	ld	hl,#0x3375
   0374 E5            [11]  527 	push	hl
   0375 CDr00r00      [16]  528 	call	___fsmul
   0378 33            [ 4]  529 	inc	sp
   0379 33            [ 4]  530 	inc	sp
   037A 33            [ 4]  531 	inc	sp
   037B 33            [ 4]  532 	inc	sp
   037C 33            [ 4]  533 	inc	sp
   037D 33            [ 4]  534 	inc	sp
   037E 33            [ 4]  535 	inc	sp
   037F 33            [ 4]  536 	inc	sp
   0380 4D            [ 4]  537 	ld	c,l
   0381 44            [ 4]  538 	ld	b,h
   0382 21 DB BE      [ 9]  539 	ld	hl,#0xBEDB
   0385 E5            [11]  540 	push	hl
   0386 21 AF B7      [ 9]  541 	ld	hl,#0xB7AF
   0389 E5            [11]  542 	push	hl
   038A D5            [11]  543 	push	de
   038B C5            [11]  544 	push	bc
   038C CDr00r00      [16]  545 	call	___fsadd
   038F 33            [ 4]  546 	inc	sp
   0390 33            [ 4]  547 	inc	sp
   0391 33            [ 4]  548 	inc	sp
   0392 33            [ 4]  549 	inc	sp
   0393 33            [ 4]  550 	inc	sp
   0394 33            [ 4]  551 	inc	sp
   0395 33            [ 4]  552 	inc	sp
   0396 33            [ 4]  553 	inc	sp
   0397 4D            [ 4]  554 	ld	c,l
   0398 44            [ 4]  555 	ld	b,h
   0399 DD 6E ED      [14]  556 	ld	l,-19 (ix)
   039C DD 66 EE      [14]  557 	ld	h,-18 (ix)
   039F E5            [11]  558 	push	hl
   03A0 DD 6E EB      [14]  559 	ld	l,-21 (ix)
   03A3 DD 66 EC      [14]  560 	ld	h,-20 (ix)
   03A6 E5            [11]  561 	push	hl
   03A7 D5            [11]  562 	push	de
   03A8 C5            [11]  563 	push	bc
   03A9 CDr00r00      [16]  564 	call	___fsmul
   03AC 33            [ 4]  565 	inc	sp
   03AD 33            [ 4]  566 	inc	sp
   03AE 33            [ 4]  567 	inc	sp
   03AF 33            [ 4]  568 	inc	sp
   03B0 33            [ 4]  569 	inc	sp
   03B1 33            [ 4]  570 	inc	sp
   03B2 33            [ 4]  571 	inc	sp
   03B3 33            [ 4]  572 	inc	sp
   03B4 4D            [ 4]  573 	ld	c,l
   03B5 44            [ 4]  574 	ld	b,h
   03B6 21 80 3F      [ 9]  575 	ld	hl,#0x3F80
   03B9 E5            [11]  576 	push	hl
   03BA 21 00 00      [ 9]  577 	ld	hl,#0x0000
   03BD E5            [11]  578 	push	hl
   03BE D5            [11]  579 	push	de
   03BF C5            [11]  580 	push	bc
   03C0 CDr00r00      [16]  581 	call	___fsadd
   03C3 33            [ 4]  582 	inc	sp
   03C4 33            [ 4]  583 	inc	sp
   03C5 33            [ 4]  584 	inc	sp
   03C6 33            [ 4]  585 	inc	sp
   03C7 33            [ 4]  586 	inc	sp
   03C8 33            [ 4]  587 	inc	sp
   03C9 33            [ 4]  588 	inc	sp
   03CA 33            [ 4]  589 	inc	sp
   03CB DD 75 DF      [15]  590 	ld	-33 (ix),l
   03CE DD 74 E0      [15]  591 	ld	-32 (ix),h
   03D1 DD 73 E1      [15]  592 	ld	-31 (ix),e
   03D4 DD 72 E2      [15]  593 	ld	-30 (ix),d
   03D7                     594 00105$:
                            595 ;../tancotf.c:84: if(n&1)
   03D7 DD CB DD 46   [19]  596 	bit	0, -35 (ix)
   03DB CAr69r04      [ 9]  597 	jp	Z,00113$
                            598 ;../tancotf.c:87: if(iscotan) return (-xnum/xden);
   03DE DD CB 08 46   [19]  599 	bit	0,8 (ix)
   03E2 28 2D         [ 8]  600 	jr	Z,00107$
   03E4 DD 7E E6      [14]  601 	ld	a,-26 (ix)
   03E7 EE 80         [ 6]  602 	xor	a,#0x80
   03E9 47            [ 4]  603 	ld	b,a
   03EA DD 5E E3      [14]  604 	ld	e,-29 (ix)
   03ED DD 56 E4      [14]  605 	ld	d,-28 (ix)
   03F0 DD 4E E5      [14]  606 	ld	c,-27 (ix)
   03F3 DD 6E E1      [14]  607 	ld	l,-31 (ix)
   03F6 DD 66 E2      [14]  608 	ld	h,-30 (ix)
   03F9 E5            [11]  609 	push	hl
   03FA DD 6E DF      [14]  610 	ld	l,-33 (ix)
   03FD DD 66 E0      [14]  611 	ld	h,-32 (ix)
   0400 E5            [11]  612 	push	hl
   0401 C5            [11]  613 	push	bc
   0402 D5            [11]  614 	push	de
   0403 CDr00r00      [16]  615 	call	___fsdiv
   0406 33            [ 4]  616 	inc	sp
   0407 33            [ 4]  617 	inc	sp
   0408 33            [ 4]  618 	inc	sp
   0409 33            [ 4]  619 	inc	sp
   040A 33            [ 4]  620 	inc	sp
   040B 33            [ 4]  621 	inc	sp
   040C 33            [ 4]  622 	inc	sp
   040D 33            [ 4]  623 	inc	sp
   040E C3rD4r04      [ 9]  624 	jp	00115$
   0411                     625 00107$:
                            626 ;../tancotf.c:88: else return (-xden/xnum);
   0411 DD 7E E2      [14]  627 	ld	a,-30 (ix)
   0414 EE 80         [ 6]  628 	xor	a,#0x80
   0416 DD 77 F7      [15]  629 	ld	-9 (ix),a
   0419 DD 7E DF      [14]  630 	ld	a,-33 (ix)
   041C DD 77 F4      [15]  631 	ld	-12 (ix),a
   041F DD 7E E0      [14]  632 	ld	a,-32 (ix)
   0422 DD 77 F5      [15]  633 	ld	-11 (ix),a
   0425 DD 7E E1      [14]  634 	ld	a,-31 (ix)
   0428 DD 77 F6      [15]  635 	ld	-10 (ix),a
   042B DD 6E E5      [14]  636 	ld	l,-27 (ix)
   042E DD 66 E6      [14]  637 	ld	h,-26 (ix)
   0431 E5            [11]  638 	push	hl
   0432 DD 6E E3      [14]  639 	ld	l,-29 (ix)
   0435 DD 66 E4      [14]  640 	ld	h,-28 (ix)
   0438 E5            [11]  641 	push	hl
   0439 DD 6E F6      [14]  642 	ld	l,-10 (ix)
   043C DD 66 F7      [14]  643 	ld	h,-9 (ix)
   043F E5            [11]  644 	push	hl
   0440 DD 6E F4      [14]  645 	ld	l,-12 (ix)
   0443 DD 66 F5      [14]  646 	ld	h,-11 (ix)
   0446 E5            [11]  647 	push	hl
   0447 CDr00r00      [16]  648 	call	___fsdiv
   044A 33            [ 4]  649 	inc	sp
   044B 33            [ 4]  650 	inc	sp
   044C 33            [ 4]  651 	inc	sp
   044D 33            [ 4]  652 	inc	sp
   044E 33            [ 4]  653 	inc	sp
   044F 33            [ 4]  654 	inc	sp
   0450 33            [ 4]  655 	inc	sp
   0451 33            [ 4]  656 	inc	sp
   0452 DD 72 F7      [15]  657 	ld	-9 (ix),d
   0455 DD 73 F6      [15]  658 	ld	-10 (ix),e
   0458 DD 74 F5      [15]  659 	ld	-11 (ix),h
   045B DD 75 F4      [15]  660 	ld	-12 (ix), l
   045E DD 66 F5      [14]  661 	ld	h,-11 (ix)
   0461 DD 5E F6      [14]  662 	ld	e,-10 (ix)
   0464 DD 56 F7      [14]  663 	ld	d,-9 (ix)
   0467 18 6B         [ 8]  664 	jr	00115$
   0469                     665 00113$:
                            666 ;../tancotf.c:92: if(iscotan) return (xden/xnum);
   0469 DD CB 08 46   [19]  667 	bit	0,8 (ix)
   046D 28 29         [ 8]  668 	jr	Z,00110$
   046F DD 6E E5      [14]  669 	ld	l,-27 (ix)
   0472 DD 66 E6      [14]  670 	ld	h,-26 (ix)
   0475 E5            [11]  671 	push	hl
   0476 DD 6E E3      [14]  672 	ld	l,-29 (ix)
   0479 DD 66 E4      [14]  673 	ld	h,-28 (ix)
   047C E5            [11]  674 	push	hl
   047D DD 6E E1      [14]  675 	ld	l,-31 (ix)
   0480 DD 66 E2      [14]  676 	ld	h,-30 (ix)
   0483 E5            [11]  677 	push	hl
   0484 DD 6E DF      [14]  678 	ld	l,-33 (ix)
   0487 DD 66 E0      [14]  679 	ld	h,-32 (ix)
   048A E5            [11]  680 	push	hl
   048B CDr00r00      [16]  681 	call	___fsdiv
   048E 33            [ 4]  682 	inc	sp
   048F 33            [ 4]  683 	inc	sp
   0490 33            [ 4]  684 	inc	sp
   0491 33            [ 4]  685 	inc	sp
   0492 33            [ 4]  686 	inc	sp
   0493 33            [ 4]  687 	inc	sp
   0494 33            [ 4]  688 	inc	sp
   0495 33            [ 4]  689 	inc	sp
   0496 18 3C         [ 8]  690 	jr	00115$
   0498                     691 00110$:
                            692 ;../tancotf.c:93: else return (xnum/xden);
   0498 DD 6E E1      [14]  693 	ld	l,-31 (ix)
   049B DD 66 E2      [14]  694 	ld	h,-30 (ix)
   049E E5            [11]  695 	push	hl
   049F DD 6E DF      [14]  696 	ld	l,-33 (ix)
   04A2 DD 66 E0      [14]  697 	ld	h,-32 (ix)
   04A5 E5            [11]  698 	push	hl
   04A6 DD 6E E5      [14]  699 	ld	l,-27 (ix)
   04A9 DD 66 E6      [14]  700 	ld	h,-26 (ix)
   04AC E5            [11]  701 	push	hl
   04AD DD 6E E3      [14]  702 	ld	l,-29 (ix)
   04B0 DD 66 E4      [14]  703 	ld	h,-28 (ix)
   04B3 E5            [11]  704 	push	hl
   04B4 CDr00r00      [16]  705 	call	___fsdiv
   04B7 33            [ 4]  706 	inc	sp
   04B8 33            [ 4]  707 	inc	sp
   04B9 33            [ 4]  708 	inc	sp
   04BA 33            [ 4]  709 	inc	sp
   04BB 33            [ 4]  710 	inc	sp
   04BC 33            [ 4]  711 	inc	sp
   04BD 33            [ 4]  712 	inc	sp
   04BE 33            [ 4]  713 	inc	sp
   04BF DD 72 F7      [15]  714 	ld	-9 (ix),d
   04C2 DD 73 F6      [15]  715 	ld	-10 (ix),e
   04C5 DD 74 F5      [15]  716 	ld	-11 (ix),h
   04C8 DD 75 F4      [15]  717 	ld	-12 (ix), l
   04CB DD 66 F5      [14]  718 	ld	h,-11 (ix)
   04CE DD 5E F6      [14]  719 	ld	e,-10 (ix)
   04D1 DD 56 F7      [14]  720 	ld	d,-9 (ix)
   04D4                     721 00115$:
   04D4 DD F9         [ 7]  722 	ld	sp, ix
   04D6 DD E1         [12]  723 	pop	ix
   04D8 C9            [ 9]  724 	ret
                            725 	.area _CODE
                            726 	.area _INITIALIZER
                            727 	.area _CABS (ABS)
