;--------------------------------------------------------
; File Created by SDCC : free open source ANSI-C Compiler
; Version 3.5.0 #9253 (Apr  4 2022) (Linux)
; This file was generated Mon Apr  4 14:10:25 2022
;--------------------------------------------------------
	.module _fsgt
	.optsdcc -mds390 --model-flat24
	
;--------------------------------------------------------
; CPU specific extensions
;--------------------------------------------------------
	.DS80C390
	.amode	2	; 24 bit flat addressing
dpl	=	0x82
dph	=	0x83
dpl1	=	0x84
dph1	=	0x85
dps	=	0x86
dpx	=	0x93
dpx1	=	0x95
esp	=	0x9B
ap	=	0x9C
acc1	=	0x9C
mcnt0	=	0xD1
mcnt1	=	0xD2
ma	=	0xD3
mb	=	0xD4
mc	=	0xD5
acon	=	0x9D
F1	=	0xD1	; user flag
;--------------------------------------------------------
; Public variables in this module
;--------------------------------------------------------
	.globl ___fsgt_PARM_2
	.globl ___fsgt
;--------------------------------------------------------
; special function registers
;--------------------------------------------------------
;--------------------------------------------------------
; special function bits
;--------------------------------------------------------
;--------------------------------------------------------
; overlayable register banks
;--------------------------------------------------------
	.area REG_BANK_0	(REL,OVR,DATA)
	.ds 8
;--------------------------------------------------------
; internal ram data
;--------------------------------------------------------
	.area DSEG    (DATA)
;--------------------------------------------------------
; overlayable items in internal ram 
;--------------------------------------------------------
;--------------------------------------------------------
; indirectly addressable internal ram data
;--------------------------------------------------------
	.area ISEG    (DATA)
;--------------------------------------------------------
; absolute internal ram data
;--------------------------------------------------------
	.area IABS    (ABS,DATA)
	.area IABS    (ABS,DATA)
;--------------------------------------------------------
; bit data
;--------------------------------------------------------
	.area BSEG    (BIT)
;--------------------------------------------------------
; paged external ram data
;--------------------------------------------------------
	.area PSEG    (PAG,XDATA)
;--------------------------------------------------------
; external ram data
;--------------------------------------------------------
	.area XSEG    (XDATA)
___fsgt_PARM_2:
	.ds 4
___fsgt_fl1_1_21:
	.ds 4
___fsgt_fl2_1_21:
	.ds 4
;--------------------------------------------------------
; absolute external ram data
;--------------------------------------------------------
	.area XABS    (ABS,XDATA)
;--------------------------------------------------------
; external initialized ram data
;--------------------------------------------------------
	.area XISEG   (XDATA)
;--------------------------------------------------------
; global & static initialisations
;--------------------------------------------------------
	.area HOME    (CODE)
	.area GSINIT  (CODE)
	.area GSFINAL (CODE)
	.area GSINIT  (CODE)
;--------------------------------------------------------
; Home
;--------------------------------------------------------
	.area HOME    (CODE)
	.area HOME    (CODE)
;--------------------------------------------------------
; code
;--------------------------------------------------------
	.area CSEG    (CODE)
;------------------------------------------------------------
;Allocation info for local variables in function '__fsgt'
;------------------------------------------------------------
;a2                        Allocated with name '___fsgt_PARM_2'
;a1                        Allocated to registers r2 r3 r4 r5 
;fl1                       Allocated with name '___fsgt_fl1_1_21'
;fl2                       Allocated with name '___fsgt_fl2_1_21'
;------------------------------------------------------------
;	_fsgt.c:108: char __fsgt (float a1, float a2)
;	-----------------------------------------
;	 function __fsgt
;	-----------------------------------------
___fsgt:
	ar2 = 0x02
	ar3 = 0x03
	ar4 = 0x04
	ar5 = 0x05
	ar6 = 0x06
	ar7 = 0x07
	ar0 = 0x00
	ar1 = 0x01
	mov	r2,dpl
	mov	r3,dph
	mov	r4,dpx
	mov	r5,b
;	_fsgt.c:112: fl1.f = a1;
	mov	dptr,#___fsgt_fl1_1_21
	mov	a,r2
	movx	@dptr,a
	inc	dptr
	mov	a,r3
	movx	@dptr,a
	inc	dptr
	mov	a,r4
	movx	@dptr,a
	inc	dptr
	mov	a,r5
	movx	@dptr,a
;	_fsgt.c:113: fl2.f = a2;
	mov	dptr,#___fsgt_fl2_1_21
	mov     dps, #1
	mov     dptr, #___fsgt_PARM_2
	movx	a,@dptr
	dec	dps
	movx	@dptr,a
	inc	dptr
	inc	dps
	inc	dptr
	movx	a,@dptr
	dec	dps
	movx	@dptr,a
	inc	dptr
	inc	dps
	inc	dptr
	movx	a,@dptr
	dec	dps
	movx	@dptr,a
	inc	dptr
	inc	dps
	inc	dptr
	movx	a,@dptr
	dec	dps
	movx	@dptr,a
;	_fsgt.c:115: if (((fl1.l | fl2.l) & 0x7FFFFFFF) == 0)
	mov	dptr,#___fsgt_fl1_1_21
	movx	a,@dptr
	inc	dptr
	mov	r2,a
	movx	a,@dptr
	inc	dptr
	mov	r3,a
	movx	a,@dptr
	inc	dptr
	mov	r4,a
	movx	a,@dptr
	mov	r5,a
	mov	dptr,#___fsgt_fl2_1_21
	movx	a,@dptr
	inc	dptr
	mov	r6,a
	movx	a,@dptr
	inc	dptr
	mov	r7,a
	movx	a,@dptr
	inc	dptr
	mov	r0,a
	movx	a,@dptr
	mov	r1,a
	mov	a,r6
	orl	ar2,a
	mov	a,r7
	orl	ar3,a
	mov	a,r0
	orl	ar4,a
	mov	a,r1
	orl	ar5,a
	mov	a,r2
	jnz	00127$
	mov	a,r3
	jnz	00127$
	mov	a,r4
	jnz	00127$
	mov	a,r5
	anl	a,#0x7F
	jz   00128$
00127$:
	sjmp 00102$
00128$:
;	_fsgt.c:116: return (0);
	mov	dpl,#0x00
	ljmp	00110$
00102$:
;	_fsgt.c:118: if (fl1.l<0 && fl2.l<0) {
	mov	dptr,#___fsgt_fl1_1_21
	movx	a,@dptr
	inc	dptr
	mov	r2,a
	movx	a,@dptr
	inc	dptr
	mov	r3,a
	movx	a,@dptr
	inc	dptr
	mov	r4,a
	movx	a,@dptr
	mov  r5,a
	jnb  acc[7],00106$
00129$:
	mov	dptr,#___fsgt_fl2_1_21
	movx	a,@dptr
	inc	dptr
	mov	r2,a
	movx	a,@dptr
	inc	dptr
	mov	r3,a
	movx	a,@dptr
	inc	dptr
	mov	r4,a
	movx	a,@dptr
	mov  r5,a
	jnb  acc[7],00106$
00130$:
;	_fsgt.c:119: if (fl2.l > fl1.l)
	mov	dptr,#___fsgt_fl2_1_21
	movx	a,@dptr
	inc	dptr
	mov	r2,a
	movx	a,@dptr
	inc	dptr
	mov	r3,a
	movx	a,@dptr
	inc	dptr
	mov	r4,a
	movx	a,@dptr
	mov	r5,a
	mov	dptr,#___fsgt_fl1_1_21
	movx	a,@dptr
	inc	dptr
	mov	r6,a
	movx	a,@dptr
	inc	dptr
	mov	r7,a
	movx	a,@dptr
	inc	dptr
	mov	r0,a
	movx	a,@dptr
	mov	r1,a
	clr	c
	mov	a,r6
	subb	a,r2
	mov	a,r7
	subb	a,r3
	mov	a,r0
	subb	a,r4
	mov	a,r1
	xrl	a,#0x80
	mov	b,r5
	xrl	b,#0x80
	subb	a,b
	jnc  00104$
00131$:
;	_fsgt.c:120: return (1);
	mov	dpl,#0x01
	sjmp 00110$
00104$:
;	_fsgt.c:121: return (0);
	mov	dpl,#0x00
	sjmp 00110$
00106$:
;	_fsgt.c:124: if (fl1.l > fl2.l)
	mov	dptr,#___fsgt_fl1_1_21
	movx	a,@dptr
	inc	dptr
	mov	r2,a
	movx	a,@dptr
	inc	dptr
	mov	r3,a
	movx	a,@dptr
	inc	dptr
	mov	r4,a
	movx	a,@dptr
	mov	r5,a
	mov	dptr,#___fsgt_fl2_1_21
	movx	a,@dptr
	inc	dptr
	mov	r6,a
	movx	a,@dptr
	inc	dptr
	mov	r7,a
	movx	a,@dptr
	inc	dptr
	mov	r0,a
	movx	a,@dptr
	mov	r1,a
	clr	c
	mov	a,r6
	subb	a,r2
	mov	a,r7
	subb	a,r3
	mov	a,r0
	subb	a,r4
	mov	a,r1
	xrl	a,#0x80
	mov	b,r5
	xrl	b,#0x80
	subb	a,b
	jnc  00109$
00132$:
;	_fsgt.c:125: return (1);
	mov	dpl,#0x01
;	_fsgt.c:126: return (0);
	ret
00109$:
	mov     dpl,#0x00
00110$:
	ret
	.area CSEG    (CODE)
	.area CONST   (CODE)
	.area XINIT   (CODE)
	.area CABS    (ABS,CODE)
