                                      1 ;--------------------------------------------------------
                                      2 ; File Created by SDCC : free open source ANSI-C Compiler
                                      3 ; Version 3.5.0 #9253 (Apr  4 2022) (Linux)
                                      4 ; This file was generated Mon Apr  4 14:10:27 2022
                                      5 ;--------------------------------------------------------
                                      6 	.module _ltoa
                                      7 	.optsdcc -mds390 --model-flat24
                                      8 	
                                      9 ;--------------------------------------------------------
                                     10 ; CPU specific extensions
                                     11 ;--------------------------------------------------------
                                     12 	.DS80C390
                                     13 	.amode	2	; 24 bit flat addressing
                           000082    14 dpl	=	0x82
                           000083    15 dph	=	0x83
                           000084    16 dpl1	=	0x84
                           000085    17 dph1	=	0x85
                           000086    18 dps	=	0x86
                           000093    19 dpx	=	0x93
                           000095    20 dpx1	=	0x95
                           00009B    21 esp	=	0x9B
                           00009C    22 ap	=	0x9C
                           00009C    23 acc1	=	0x9C
                           0000D1    24 mcnt0	=	0xD1
                           0000D2    25 mcnt1	=	0xD2
                           0000D3    26 ma	=	0xD3
                           0000D4    27 mb	=	0xD4
                           0000D5    28 mc	=	0xD5
                           00009D    29 acon	=	0x9D
                           0000D1    30 F1	=	0xD1	; user flag
                                     31 ;--------------------------------------------------------
                                     32 ; Public variables in this module
                                     33 ;--------------------------------------------------------
                                     34 	.globl __ltoa
                                     35 	.globl __ultoa
                                     36 	.globl __ltoa_PARM_3
                                     37 	.globl __ltoa_PARM_2
                                     38 	.globl __ultoa_PARM_3
                                     39 	.globl __ultoa_PARM_2
                                     40 ;--------------------------------------------------------
                                     41 ; special function registers
                                     42 ;--------------------------------------------------------
                                     43 ;--------------------------------------------------------
                                     44 ; special function bits
                                     45 ;--------------------------------------------------------
                                     46 ;--------------------------------------------------------
                                     47 ; overlayable register banks
                                     48 ;--------------------------------------------------------
                                     49 	.area REG_BANK_0	(REL,OVR,DATA)
      000000                         50 	.ds 8
                                     51 ;--------------------------------------------------------
                                     52 ; internal ram data
                                     53 ;--------------------------------------------------------
                                     54 	.area DSEG    (DATA)
                                     55 ;--------------------------------------------------------
                                     56 ; overlayable items in internal ram 
                                     57 ;--------------------------------------------------------
                                     58 ;--------------------------------------------------------
                                     59 ; indirectly addressable internal ram data
                                     60 ;--------------------------------------------------------
                                     61 	.area ISEG    (DATA)
                                     62 ;--------------------------------------------------------
                                     63 ; absolute internal ram data
                                     64 ;--------------------------------------------------------
                                     65 	.area IABS    (ABS,DATA)
                                     66 	.area IABS    (ABS,DATA)
                                     67 ;--------------------------------------------------------
                                     68 ; bit data
                                     69 ;--------------------------------------------------------
                                     70 	.area BSEG    (BIT)
                                     71 ;--------------------------------------------------------
                                     72 ; paged external ram data
                                     73 ;--------------------------------------------------------
                                     74 	.area PSEG    (PAG,XDATA)
                                     75 ;--------------------------------------------------------
                                     76 ; external ram data
                                     77 ;--------------------------------------------------------
                                     78 	.area XSEG    (XDATA)
      000000                         79 __ultoa_PARM_2:
      000000                         80 	.ds 4
      000004                         81 __ultoa_PARM_3:
      000004                         82 	.ds 1
      000005                         83 __ultoa_buffer_1_2:
      000005                         84 	.ds 32
      000025                         85 __ultoa_sloc0_1_0:
      000025                         86 	.ds 4
      000029                         87 __ultoa_sloc1_1_0:
      000029                         88 	.ds 1
      00002A                         89 __ltoa_PARM_2:
      00002A                         90 	.ds 4
      00002E                         91 __ltoa_PARM_3:
      00002E                         92 	.ds 1
                                     93 ;--------------------------------------------------------
                                     94 ; absolute external ram data
                                     95 ;--------------------------------------------------------
                                     96 	.area XABS    (ABS,XDATA)
                                     97 ;--------------------------------------------------------
                                     98 ; external initialized ram data
                                     99 ;--------------------------------------------------------
                                    100 	.area XISEG   (XDATA)
                                    101 ;--------------------------------------------------------
                                    102 ; global & static initialisations
                                    103 ;--------------------------------------------------------
                                    104 	.area HOME    (CODE)
                                    105 	.area GSINIT  (CODE)
                                    106 	.area GSFINAL (CODE)
                                    107 	.area GSINIT  (CODE)
                                    108 ;--------------------------------------------------------
                                    109 ; Home
                                    110 ;--------------------------------------------------------
                                    111 	.area HOME    (CODE)
                                    112 	.area HOME    (CODE)
                                    113 ;--------------------------------------------------------
                                    114 ; code
                                    115 ;--------------------------------------------------------
                                    116 	.area CSEG    (CODE)
                                    117 ;------------------------------------------------------------
                                    118 ;Allocation info for local variables in function '_ultoa'
                                    119 ;------------------------------------------------------------
                                    120 ;string                    Allocated with name '__ultoa_PARM_2'
                                    121 ;radix                     Allocated with name '__ultoa_PARM_3'
                                    122 ;value                     Allocated to registers r2 r3 r4 r5 
                                    123 ;buffer                    Allocated with name '__ultoa_buffer_1_2'
                                    124 ;index                     Allocated to registers 
                                    125 ;c                         Allocated to registers r6 
                                    126 ;sloc0                     Allocated with name '__ultoa_sloc0_1_0'
                                    127 ;sloc1                     Allocated with name '__ultoa_sloc1_1_0'
                                    128 ;------------------------------------------------------------
                                    129 ;	_ltoa.c:56: void _ultoa(unsigned long value, char* string, unsigned char radix)
                                    130 ;	-----------------------------------------
                                    131 ;	 function _ultoa
                                    132 ;	-----------------------------------------
      000000                        133 __ultoa:
                           000002   134 	ar2 = 0x02
                           000003   135 	ar3 = 0x03
                           000004   136 	ar4 = 0x04
                           000005   137 	ar5 = 0x05
                           000006   138 	ar6 = 0x06
                           000007   139 	ar7 = 0x07
                           000000   140 	ar0 = 0x00
                           000001   141 	ar1 = 0x01
      000000 AA 82            [ 8]  142 	mov	r2,dpl
      000002 AB 83            [ 8]  143 	mov	r3,dph
      000004 AC 93            [ 8]  144 	mov	r4,dpx
      000006 AD F0            [ 8]  145 	mov	r5,b
                                    146 ;	_ltoa.c:61: do {
                                    147 ;	genAssign: resultIsFar = TRUE
      000008 90s00r00r29      [12]  148 	mov	dptr,#__ultoa_sloc1_1_0
      00000C 74 20            [ 8]  149 	mov	a,#0x20
      00000E F0               [ 8]  150 	movx	@dptr,a
      00000F                        151 00103$:
                                    152 ;	_ltoa.c:62: unsigned char c = '0' + (value % radix);
      00000F 90s00r00r04      [12]  153 	mov	dptr,#__ultoa_PARM_3
      000013 75 86 01         [12]  154 	mov	dps, #1
      000016 90s00r00r25      [12]  155 	mov	dptr, #__ultoa_sloc0_1_0
      00001A 15 86            [ 8]  156 	dec	dps
      00001C E0               [ 8]  157 	movx	a,@dptr
      00001D 05 86            [ 8]  158 	inc	dps
      00001F F0               [ 8]  159 	movx	@dptr,a
      000020 75 86 01         [12]  160 	mov     dps, #1
      000023 A3               [12]  161 	inc	dptr
      000024 E4               [ 4]  162 	clr	a
      000025 F0               [ 8]  163 	movx	@dptr,a
      000026 75 86 01         [12]  164 	mov     dps, #1
      000029 A3               [12]  165 	inc	dptr
      00002A E4               [ 4]  166 	clr	a
      00002B F0               [ 8]  167 	movx	@dptr,a
      00002C 75 86 01         [12]  168 	mov     dps, #1
      00002F A3               [12]  169 	inc	dptr
      000030 E4               [ 4]  170 	clr	a
      000031 F0               [ 8]  171 	movx	@dptr,a
      000032 75 86 00         [12]  172 	mov	dps,#0
      000035 90s00r00r25      [12]  173 	mov	dptr,#__ultoa_sloc0_1_0
                                    174 ;	genAssign: resultIsFar = TRUE
      000039 75 86 21         [12]  175 	mov	dps,#0x21
      00003C 90s00r00r00      [12]  176 	mov	dptr,#__modulong_PARM_2
      000040 E0               [ 8]  177 	movx	a,@dptr
      000041 F0               [ 8]  178 	movx	@dptr,a
      000042 A3               [12]  179 	inc	dptr
      000043 A3               [12]  180 	inc	dptr
      000044 E0               [ 8]  181 	movx	a,@dptr
      000045 F0               [ 8]  182 	movx	@dptr,a
      000046 A3               [12]  183 	inc	dptr
      000047 A3               [12]  184 	inc	dptr
      000048 E0               [ 8]  185 	movx	a,@dptr
      000049 F0               [ 8]  186 	movx	@dptr,a
      00004A A3               [12]  187 	inc	dptr
      00004B A3               [12]  188 	inc	dptr
      00004C E0               [ 8]  189 	movx	a,@dptr
      00004D F0               [ 8]  190 	movx	@dptr,a
      00004E 75 86 00         [12]  191 	mov	dps,#0
      000051 C0 02            [ 8]  192 	push	ar2
      000053 C0 03            [ 8]  193 	push	ar3
      000055 C0 04            [ 8]  194 	push	ar4
      000057 C0 05            [ 8]  195 	push	ar5
      000059 8A 82            [ 8]  196 	mov	dpl,r2
      00005B 8B 83            [ 8]  197 	mov	dph,r3
      00005D 8C 93            [ 8]  198 	mov	dpx,r4
      00005F 8D F0            [ 8]  199 	mov	b,r5
      000061 12s00r00r00      [16]  200 	lcall	__modulong
      000065 D0 05            [ 8]  201 	pop	ar5
      000067 D0 04            [ 8]  202 	pop	ar4
      000069 D0 03            [ 8]  203 	pop	ar3
      00006B D0 02            [ 8]  204 	pop	ar2
      00006D AF 82            [ 8]  205 	mov	r7,dpl
      00006F 74 30            [ 8]  206 	mov	a,#0x30
      000071 2F               [ 4]  207 	add	a,r7
      000072 FE               [ 4]  208 	mov	r6,a
                                    209 ;	_ltoa.c:63: if (c > (unsigned char)'9')
      000073 C3               [ 4]  210 	clr	c
      000074 74 39            [ 8]  211 	mov	a,#0x39
      000076 9E               [ 4]  212 	subb	a,r6
      000077 50 06            [12]  213 	jnc  00102$
      000079                        214 00127$:
                                    215 ;	_ltoa.c:64: c += 'A' - '9' - 1;
      000079 8E 00            [ 8]  216 	mov	ar0,r6
      00007B 74 07            [ 8]  217 	mov	a,#0x07
      00007D 28               [ 4]  218 	add	a,r0
      00007E FE               [ 4]  219 	mov	r6,a
      00007F                        220 00102$:
                                    221 ;	_ltoa.c:65: buffer[--index] = c;
      00007F 90s00r00r29      [12]  222 	mov	dptr,#__ultoa_sloc1_1_0
      000083 E0               [ 8]  223 	movx	a,@dptr
      000084 14               [ 4]  224 	dec	a
      000085 F0               [ 8]  225 	movx	@dptr,a
      000086 90s00r00r29      [12]  226 	mov	dptr,#__ultoa_sloc1_1_0
      00008A E0               [ 8]  227 	movx	a,@dptr
      00008B 24r05            [ 8]  228 	add	a,#__ultoa_buffer_1_2
      00008D F5 84            [ 8]  229 	mov	dpl1,a
      00008F E4               [ 4]  230 	clr	a
      000090 34s00            [ 8]  231 	addc	a,#(__ultoa_buffer_1_2 >> 8)
      000092 F5 85            [ 8]  232 	mov	dph1,a
      000094 E4               [ 4]  233 	clr	a
      000095 34s00            [ 8]  234 	addc	a,#(__ultoa_buffer_1_2 >> 16)
      000097 F5 95            [ 8]  235 	mov	dpx1,a
      000099 EE               [ 4]  236 	mov	a,r6
      00009A 05 86            [ 8]  237 	inc	dps
      00009C F0               [ 8]  238 	movx	@dptr,a
      00009D 75 86 00         [12]  239 	mov	dps,#0
                                    240 ;	_ltoa.c:66: value /= radix;
      0000A0 90s00r00r25      [12]  241 	mov	dptr,#__ultoa_sloc0_1_0
                                    242 ;	genAssign: resultIsFar = TRUE
      0000A4 75 86 21         [12]  243 	mov	dps,#0x21
      0000A7 90s00r00r00      [12]  244 	mov	dptr,#__divulong_PARM_2
      0000AB E0               [ 8]  245 	movx	a,@dptr
      0000AC F0               [ 8]  246 	movx	@dptr,a
      0000AD A3               [12]  247 	inc	dptr
      0000AE A3               [12]  248 	inc	dptr
      0000AF E0               [ 8]  249 	movx	a,@dptr
      0000B0 F0               [ 8]  250 	movx	@dptr,a
      0000B1 A3               [12]  251 	inc	dptr
      0000B2 A3               [12]  252 	inc	dptr
      0000B3 E0               [ 8]  253 	movx	a,@dptr
      0000B4 F0               [ 8]  254 	movx	@dptr,a
      0000B5 A3               [12]  255 	inc	dptr
      0000B6 A3               [12]  256 	inc	dptr
      0000B7 E0               [ 8]  257 	movx	a,@dptr
      0000B8 F0               [ 8]  258 	movx	@dptr,a
      0000B9 75 86 00         [12]  259 	mov	dps,#0
      0000BC 8A 82            [ 8]  260 	mov	dpl,r2
      0000BE 8B 83            [ 8]  261 	mov	dph,r3
      0000C0 8C 93            [ 8]  262 	mov	dpx,r4
      0000C2 8D F0            [ 8]  263 	mov	b,r5
      0000C4 12s00r00r00      [16]  264 	lcall	__divulong
      0000C8 AF 82            [ 8]  265 	mov	r7,dpl
      0000CA A8 83            [ 8]  266 	mov	r0,dph
      0000CC A9 93            [ 8]  267 	mov	r1,dpx
      0000CE AE F0            [ 8]  268 	mov	r6,b
                                    269 ;	genAssign: resultIsFar = TRUE
      0000D0 8F 02            [ 8]  270 	mov	ar2,r7
      0000D2 88 03            [ 8]  271 	mov	ar3,r0
      0000D4 89 04            [ 8]  272 	mov	ar4,r1
      0000D6 8E 05            [ 8]  273 	mov	ar5,r6
                                    274 ;	_ltoa.c:67: } while (value);
      0000D8 EA               [ 4]  275 	mov	a,r2
      0000D9 4B               [ 4]  276 	orl	a,r3
      0000DA 4C               [ 4]  277 	orl	a,r4
      0000DB 4D               [ 4]  278 	orl	a,r5
      0000DC 60 04            [12]  279 	jz	00128$
      0000DE 02s00r00r0F      [16]  280 	ljmp	00103$
      0000E2                        281 00128$:
                                    282 ;	_ltoa.c:69: do {
      0000E2 90s00r00r00      [12]  283 	mov	dptr,#__ultoa_PARM_2
                                    284 ;	genAssign: resultIsFar = FALSE
      0000E6 E0               [ 8]  285 	movx	a,@dptr
      0000E7 FA               [ 4]  286 	mov	r2,a
      0000E8 A3               [12]  287 	inc	dptr
      0000E9 E0               [ 8]  288 	movx	a,@dptr
      0000EA FB               [ 4]  289 	mov	r3,a
      0000EB A3               [12]  290 	inc	dptr
      0000EC E0               [ 8]  291 	movx	a,@dptr
      0000ED FC               [ 4]  292 	mov	r4,a
      0000EE A3               [12]  293 	inc	dptr
      0000EF E0               [ 8]  294 	movx	a,@dptr
      0000F0 FD               [ 4]  295 	mov	r5,a
      0000F1 90s00r00r29      [12]  296 	mov	dptr,#__ultoa_sloc1_1_0
                                    297 ;	genAssign: resultIsFar = FALSE
      0000F5 E0               [ 8]  298 	movx	a,@dptr
      0000F6 FE               [ 4]  299 	mov	r6,a
      0000F7                        300 00106$:
                                    301 ;	_ltoa.c:70: *string++ = buffer[index];
      0000F7 EE               [ 4]  302 	mov	a,r6
      0000F8 24r05            [ 8]  303 	add	a,#__ultoa_buffer_1_2
      0000FA F5 82            [ 8]  304 	mov	dpl,a
      0000FC E4               [ 4]  305 	clr	a
      0000FD 34s00            [ 8]  306 	addc	a,#(__ultoa_buffer_1_2 >> 8)
      0000FF F5 83            [ 8]  307 	mov	dph,a
      000101 E4               [ 4]  308 	clr	a
      000102 34s00            [ 8]  309 	addc	a,#(__ultoa_buffer_1_2 >> 16)
      000104 F5 93            [ 8]  310 	mov	dpx,a
      000106 E0               [ 8]  311 	movx	a,@dptr
      000107 FF               [ 4]  312 	mov	r7,a
      000108 8A 82            [ 8]  313 	mov	dpl,r2
      00010A 8B 83            [ 8]  314 	mov	dph,r3
      00010C 8C 93            [ 8]  315 	mov	dpx,r4
      00010E 8D F0            [ 8]  316 	mov	b,r5
      000110 EF               [ 4]  317 	mov	a,r7
      000111 12s00r00r00      [16]  318 	lcall	__gptrput
      000115 A3               [12]  319 	inc	dptr
      000116 AA 82            [ 8]  320 	mov	r2,dpl
      000118 AB 83            [ 8]  321 	mov	r3,dph
      00011A AC 93            [ 8]  322 	mov	r4,dpx
      00011C AD F0            [ 8]  323 	mov	r5,b
                                    324 ;	_ltoa.c:71: } while ( ++index != NUMBER_OF_DIGITS );
      00011E 0E               [ 4]  325 	inc	r6
      00011F BE 20 D5         [16]  326 	cjne r6,#0x20,00106$
      000122                        327 00130$:
                                    328 ;	_ltoa.c:73: *string = 0;  /* string terminator */
      000122 8A 82            [ 8]  329 	mov	dpl,r2
      000124 8B 83            [ 8]  330 	mov	dph,r3
      000126 8C 93            [ 8]  331 	mov	dpx,r4
      000128 8D F0            [ 8]  332 	mov	b,r5
      00012A E4               [ 4]  333 	clr	a
      00012B 12s00r00r00      [16]  334 	lcall	__gptrput
      00012F                        335 00109$:
      00012F 22               [16]  336 	ret
                                    337 ;------------------------------------------------------------
                                    338 ;Allocation info for local variables in function '_ltoa'
                                    339 ;------------------------------------------------------------
                                    340 ;string                    Allocated with name '__ltoa_PARM_2'
                                    341 ;radix                     Allocated with name '__ltoa_PARM_3'
                                    342 ;value                     Allocated to registers r2 r3 r4 r5 
                                    343 ;------------------------------------------------------------
                                    344 ;	_ltoa.c:76: void _ltoa(long value, char* string, unsigned char radix)
                                    345 ;	-----------------------------------------
                                    346 ;	 function _ltoa
                                    347 ;	-----------------------------------------
      000130                        348 __ltoa:
      000130 AA 82            [ 8]  349 	mov	r2,dpl
      000132 AB 83            [ 8]  350 	mov	r3,dph
      000134 AC 93            [ 8]  351 	mov	r4,dpx
      000136 AD F0            [ 8]  352 	mov	r5,b
                                    353 ;	_ltoa.c:78: if (value < 0 && radix == 10) {
      000138 ED               [ 4]  354 	mov	a,r5
      000139 30 E7 45         [12]  355 	jnb  acc[7],00102$
      00013C                        356 00112$:
      00013C 90s00r00r2E      [12]  357 	mov	dptr,#__ltoa_PARM_3
      000140 E0               [ 8]  358 	movx	a,@dptr
      000141 B4 0A 3D         [16]  359 	cjne a,#0x0A,00102$
      000144                        360 00114$:
                                    361 ;	_ltoa.c:79: *string++ = '-';
      000144 90s00r00r2A      [12]  362 	mov	dptr,#__ltoa_PARM_2
                                    363 ;	genAssign: resultIsFar = FALSE
      000148 E0               [ 8]  364 	movx	a,@dptr
      000149 FE               [ 4]  365 	mov	r6,a
      00014A A3               [12]  366 	inc	dptr
      00014B E0               [ 8]  367 	movx	a,@dptr
      00014C FF               [ 4]  368 	mov	r7,a
      00014D A3               [12]  369 	inc	dptr
      00014E E0               [ 8]  370 	movx	a,@dptr
      00014F F8               [ 4]  371 	mov	r0,a
      000150 A3               [12]  372 	inc	dptr
      000151 E0               [ 8]  373 	movx	a,@dptr
      000152 F9               [ 4]  374 	mov	r1,a
      000153 8E 82            [ 8]  375 	mov	dpl,r6
      000155 8F 83            [ 8]  376 	mov	dph,r7
      000157 88 93            [ 8]  377 	mov	dpx,r0
      000159 89 F0            [ 8]  378 	mov	b,r1
      00015B 74 2D            [ 8]  379 	mov	a,#0x2D
      00015D 12s00r00r00      [16]  380 	lcall	__gptrput
      000161 90s00r00r2A      [12]  381 	mov	dptr,#__ltoa_PARM_2
      000165 74 01            [ 8]  382 	mov	a,#0x01
      000167 2E               [ 4]  383 	add	a,r6
      000168 F0               [ 8]  384 	movx	@dptr,a
      000169 E4               [ 4]  385 	clr	a
      00016A 3F               [ 4]  386 	addc	a,r7
      00016B A3               [12]  387 	inc	dptr
      00016C F0               [ 8]  388 	movx	@dptr,a
      00016D E4               [ 4]  389 	clr	a
      00016E 38               [ 4]  390 	addc	a,r0
      00016F A3               [12]  391 	inc	dptr
      000170 F0               [ 8]  392 	movx	@dptr,a
      000171 A3               [12]  393 	inc	dptr
      000172 E9               [ 4]  394 	mov	a,r1
      000173 F0               [ 8]  395 	movx	@dptr,a
                                    396 ;	_ltoa.c:80: value = -value;
      000174 C3               [ 4]  397 	clr	c
      000175 E4               [ 4]  398 	clr	a
      000176 9A               [ 4]  399 	subb	a,r2
      000177 FA               [ 4]  400 	mov	r2,a
      000178 E4               [ 4]  401 	clr	a
      000179 9B               [ 4]  402 	subb	a,r3
      00017A FB               [ 4]  403 	mov	r3,a
      00017B E4               [ 4]  404 	clr	a
      00017C 9C               [ 4]  405 	subb	a,r4
      00017D FC               [ 4]  406 	mov	r4,a
      00017E E4               [ 4]  407 	clr	a
      00017F 9D               [ 4]  408 	subb	a,r5
      000180 FD               [ 4]  409 	mov	r5,a
      000181                        410 00102$:
                                    411 ;	_ltoa.c:82: _ultoa(value, string, radix);
      000181 90s00r00r2A      [12]  412 	mov	dptr,#__ltoa_PARM_2
                                    413 ;	genAssign: resultIsFar = FALSE
      000185 E0               [ 8]  414 	movx	a,@dptr
      000186 FE               [ 4]  415 	mov	r6,a
      000187 A3               [12]  416 	inc	dptr
      000188 E0               [ 8]  417 	movx	a,@dptr
      000189 FF               [ 4]  418 	mov	r7,a
      00018A A3               [12]  419 	inc	dptr
      00018B E0               [ 8]  420 	movx	a,@dptr
      00018C F8               [ 4]  421 	mov	r0,a
      00018D A3               [12]  422 	inc	dptr
      00018E E0               [ 8]  423 	movx	a,@dptr
      00018F F9               [ 4]  424 	mov	r1,a
                                    425 ;	genAssign: resultIsFar = TRUE
      000190 90s00r00r00      [12]  426 	mov	dptr,#__ultoa_PARM_2
      000194 EE               [ 4]  427 	mov	a,r6
      000195 F0               [ 8]  428 	movx	@dptr,a
      000196 A3               [12]  429 	inc	dptr
      000197 EF               [ 4]  430 	mov	a,r7
      000198 F0               [ 8]  431 	movx	@dptr,a
      000199 A3               [12]  432 	inc	dptr
      00019A E8               [ 4]  433 	mov	a,r0
      00019B F0               [ 8]  434 	movx	@dptr,a
      00019C A3               [12]  435 	inc	dptr
      00019D E9               [ 4]  436 	mov	a,r1
      00019E F0               [ 8]  437 	movx	@dptr,a
      00019F 90s00r00r2E      [12]  438 	mov	dptr,#__ltoa_PARM_3
                                    439 ;	genAssign: resultIsFar = TRUE
      0001A3 E0               [ 8]  440 	movx	a,@dptr
      0001A4 90s00r00r04      [12]  441 	mov	dptr,#__ultoa_PARM_3
      0001A8 F0               [ 8]  442 	movx	@dptr,a
      0001A9 8A 82            [ 8]  443 	mov	dpl,r2
      0001AB 8B 83            [ 8]  444 	mov	dph,r3
      0001AD 8C 93            [ 8]  445 	mov	dpx,r4
      0001AF 8D F0            [ 8]  446 	mov	b,r5
      0001B1 12s00r00r00      [16]  447 	lcall	__ultoa
      0001B5                        448 00104$:
      0001B5 22               [16]  449 	ret
                                    450 	.area CSEG    (CODE)
                                    451 	.area CONST   (CODE)
                                    452 	.area XINIT   (CODE)
                                    453 	.area CABS    (ABS,CODE)
