;--------------------------------------------------------
; File Created by SDCC : free open source ANSI-C Compiler
; Version 3.5.0 #9253 (Apr  4 2022) (Linux)
; This file was generated Mon Apr  4 14:10:25 2022
;--------------------------------------------------------
	.module asincosf
	.optsdcc -mds390 --model-flat24
	
;--------------------------------------------------------
; CPU specific extensions
;--------------------------------------------------------
	.DS80C390
	.amode	2	; 24 bit flat addressing
dpl	=	0x82
dph	=	0x83
dpl1	=	0x84
dph1	=	0x85
dps	=	0x86
dpx	=	0x93
dpx1	=	0x95
esp	=	0x9B
ap	=	0x9C
acc1	=	0x9C
mcnt0	=	0xD1
mcnt1	=	0xD2
ma	=	0xD3
mb	=	0xD4
mc	=	0xD5
acon	=	0x9D
F1	=	0xD1	; user flag
;--------------------------------------------------------
; Public variables in this module
;--------------------------------------------------------
	.globl _asincosf
	.globl _ldexpf
	.globl _fabsf
	.globl _sqrtf
	.globl _asincosf_PARM_2
;--------------------------------------------------------
; special function registers
;--------------------------------------------------------
;--------------------------------------------------------
; special function bits
;--------------------------------------------------------
;--------------------------------------------------------
; overlayable register banks
;--------------------------------------------------------
	.area REG_BANK_0	(REL,OVR,DATA)
	.ds 8
;--------------------------------------------------------
; internal ram data
;--------------------------------------------------------
	.area DSEG    (DATA)
;--------------------------------------------------------
; overlayable items in internal ram 
;--------------------------------------------------------
;--------------------------------------------------------
; indirectly addressable internal ram data
;--------------------------------------------------------
	.area ISEG    (DATA)
;--------------------------------------------------------
; absolute internal ram data
;--------------------------------------------------------
	.area IABS    (ABS,DATA)
	.area IABS    (ABS,DATA)
;--------------------------------------------------------
; bit data
;--------------------------------------------------------
	.area BSEG    (BIT)
_asincosf_PARM_2:
	.ds 1
_asincosf_quartPI_1_24:
	.ds 1
;--------------------------------------------------------
; paged external ram data
;--------------------------------------------------------
	.area PSEG    (PAG,XDATA)
;--------------------------------------------------------
; external ram data
;--------------------------------------------------------
	.area XSEG    (XDATA)
_asincosf_x_1_23:
	.ds 4
_asincosf_g_1_24:
	.ds 4
_asincosf_r_1_24:
	.ds 4
_asincosf_sloc0_1_0:
	.ds 4
;--------------------------------------------------------
; absolute external ram data
;--------------------------------------------------------
	.area XABS    (ABS,XDATA)
;--------------------------------------------------------
; external initialized ram data
;--------------------------------------------------------
	.area XISEG   (XDATA)
;--------------------------------------------------------
; global & static initialisations
;--------------------------------------------------------
	.area HOME    (CODE)
	.area GSINIT  (CODE)
	.area GSFINAL (CODE)
	.area GSINIT  (CODE)
;--------------------------------------------------------
; Home
;--------------------------------------------------------
	.area HOME    (CODE)
	.area HOME    (CODE)
;--------------------------------------------------------
; code
;--------------------------------------------------------
	.area CSEG    (CODE)
;------------------------------------------------------------
;Allocation info for local variables in function 'asincosf'
;------------------------------------------------------------
;x                         Allocated with name '_asincosf_x_1_23'
;y                         Allocated to registers r2 r3 r4 r5 
;g                         Allocated with name '_asincosf_g_1_24'
;r                         Allocated with name '_asincosf_r_1_24'
;i                         Allocated to registers r6 
;sloc0                     Allocated with name '_asincosf_sloc0_1_0'
;------------------------------------------------------------
;	asincosf.c:47: float asincosf(float x, bool isacos)
;	-----------------------------------------
;	 function asincosf
;	-----------------------------------------
_asincosf:
	ar2 = 0x02
	ar3 = 0x03
	ar4 = 0x04
	ar5 = 0x05
	ar6 = 0x06
	ar7 = 0x07
	ar0 = 0x00
	ar1 = 0x01
	mov     dps, #1
	mov     dptr, #_asincosf_x_1_23
	mov	a,dpl
	movx	@dptr,a
	inc	dptr
	mov	a,dph
	movx	@dptr,a
	inc	dptr
	mov	a,dpx
	movx	@dptr,a
	inc	dptr
	mov	a,b
	movx	@dptr,a
	mov	dps,#0
;	asincosf.c:51: bool quartPI = isacos;
;	genAssign: resultIsFar = FALSE
	mov	c,_asincosf_PARM_2
	mov	_asincosf_quartPI_1_24,c
;	asincosf.c:56: y = fabsf(x);
	inc	dps
	mov	dptr,#_asincosf_x_1_23
	movx	a,@dptr
	mov	dpl,a
	inc	dptr
	movx	a,@dptr
	mov	dph,a
	inc	dptr
	movx	a,@dptr
	mov	dpx,a
	inc	dptr
	movx	a,@dptr
	mov	b,a
	mov	dps,#0
	lcall	_fabsf
	mov	r6,dpl
	mov	r7,dph
	mov	r0,dpx
	mov	r1,b
;	genAssign: resultIsFar = FALSE
	mov	ar2,r6
	mov	ar3,r7
	mov	ar4,r0
	mov	ar5,r1
;	asincosf.c:57: if (y < EPS)
;	genAssign: resultIsFar = TRUE
	mov	dptr,#___fslt_PARM_2
	clr	a
	movx	@dptr,a
	inc	dptr
	clr	a
	movx	@dptr,a
	inc	dptr
	mov	a,#0x80
	movx	@dptr,a
	inc	dptr
	mov	a,#0x39
	movx	@dptr,a
	push	ar2
	push	ar3
	push	ar4
	push	ar5
	mov	dpl,r2
	mov	dph,r3
	mov	dpx,r4
	mov	b,r5
	lcall	___fslt
	pop	ar5
	pop	ar4
	pop	ar3
	pop	ar2
	mov	a,dpl
	jz  00107$
00137$:
;	asincosf.c:59: r = y;
;	genAssign: resultIsFar = TRUE
	mov	dptr,#_asincosf_r_1_24
	mov	a,r2
	movx	@dptr,a
	inc	dptr
	mov	a,r3
	movx	@dptr,a
	inc	dptr
	mov	a,r4
	movx	@dptr,a
	inc	dptr
	mov	a,r5
	movx	@dptr,a
	ljmp	00108$
00107$:
;	asincosf.c:63: if (y > 0.5)
;	genAssign: resultIsFar = TRUE
	mov	dptr,#___fsgt_PARM_2
	clr	a
	movx	@dptr,a
	inc	dptr
	clr	a
	movx	@dptr,a
	inc	dptr
	clr	a
	movx	@dptr,a
	inc	dptr
	mov	a,#0x3F
	movx	@dptr,a
	push	ar2
	push	ar3
	push	ar4
	push	ar5
	mov	dpl,r2
	mov	dph,r3
	mov	dpx,r4
	mov	b,r5
	lcall	___fsgt
	pop	ar5
	pop	ar4
	pop	ar3
	pop	ar2
	mov	a,dpl
	jnz	00138$
	ljmp	00104$
00138$:
;	asincosf.c:65: quartPI = !isacos;
	cpl	_asincosf_quartPI_1_24
;	asincosf.c:66: if (y > 1.0)
;	genAssign: resultIsFar = TRUE
	mov	dptr,#___fsgt_PARM_2
	clr	a
	movx	@dptr,a
	inc	dptr
	clr	a
	movx	@dptr,a
	inc	dptr
	mov	a,#0x80
	movx	@dptr,a
	inc	dptr
	mov	a,#0x3F
	movx	@dptr,a
	push	ar2
	push	ar3
	push	ar4
	push	ar5
	mov	dpl,r2
	mov	dph,r3
	mov	dpx,r4
	mov	b,r5
	lcall	___fsgt
	pop	ar5
	pop	ar4
	pop	ar3
	pop	ar2
	mov	a,dpl
	jz  00102$
00139$:
;	asincosf.c:68: errno = EDOM;
;	genAssign: resultIsFar = TRUE
	mov	dptr,#_errno
	mov	a,#0x21
	movx	@dptr,a
	clr	a
	inc	dptr
	movx	@dptr,a
;	asincosf.c:69: return 0.0;
	mov  dptr,#0x0000
	mov	b,#0x00
	ljmp	00117$
00102$:
;	asincosf.c:71: g = (0.5 - y) + 0.5;
;	genAssign: resultIsFar = TRUE
	mov	dptr,#___fssub_PARM_2
	mov	a,r2
	movx	@dptr,a
	inc	dptr
	mov	a,r3
	movx	@dptr,a
	inc	dptr
	mov	a,r4
	movx	@dptr,a
	inc	dptr
	mov	a,r5
	movx	@dptr,a
	mov  dptr,#0x0000
	mov	dpx,#0x80
	mov	b,#0x3F
	lcall	___fssub
	mov	r2,dpl
	mov	r3,dph
	mov	r4,dpx
	mov	r5,b
;	genAssign: resultIsFar = TRUE
	mov	dptr,#_asincosf_g_1_24
	mov	a,r2
	movx	@dptr,a
	inc	dptr
	mov	a,r3
	movx	@dptr,a
	inc	dptr
	mov	a,r4
	movx	@dptr,a
	inc	dptr
	mov	a,r5
	movx	@dptr,a
;	asincosf.c:72: g = ldexpf(g, -1);
;	genAssign: resultIsFar = TRUE
	mov	dptr,#_ldexpf_PARM_2
	mov  a,#0xFF
	movx @dptr,a
	inc  dptr
	movx @dptr,a
	inc	dps
	mov	dptr,#_asincosf_g_1_24
	movx	a,@dptr
	mov	dpl,a
	inc	dptr
	movx	a,@dptr
	mov	dph,a
	inc	dptr
	movx	a,@dptr
	mov	dpx,a
	inc	dptr
	movx	a,@dptr
	mov	b,a
	mov	dps,#0
	lcall	_ldexpf
	mov	r2,dpl
	mov	r3,dph
	mov	r4,dpx
	mov	r5,b
;	genAssign: resultIsFar = TRUE
	mov	dptr,#_asincosf_g_1_24
	mov	a,r2
	movx	@dptr,a
	inc	dptr
	mov	a,r3
	movx	@dptr,a
	inc	dptr
	mov	a,r4
	movx	@dptr,a
	inc	dptr
	mov	a,r5
	movx	@dptr,a
;	asincosf.c:73: y = sqrtf(g);
	inc	dps
	mov	dptr,#_asincosf_g_1_24
	movx	a,@dptr
	mov	dpl,a
	inc	dptr
	movx	a,@dptr
	mov	dph,a
	inc	dptr
	movx	a,@dptr
	mov	dpx,a
	inc	dptr
	movx	a,@dptr
	mov	b,a
	mov	dps,#0
	lcall	_sqrtf
	mov	r6,dpl
	mov	r7,dph
	mov	r0,dpx
	mov	r1,b
;	genAssign: resultIsFar = FALSE
	mov	ar2,r6
	mov	ar3,r7
	mov	ar4,r0
	mov	ar5,r1
;	asincosf.c:74: y = -(y + y);
;	genAssign: resultIsFar = TRUE
	mov	dptr,#___fsadd_PARM_2
	mov	a,r2
	movx	@dptr,a
	inc	dptr
	mov	a,r3
	movx	@dptr,a
	inc	dptr
	mov	a,r4
	movx	@dptr,a
	inc	dptr
	mov	a,r5
	movx	@dptr,a
	mov	dpl,r2
	mov	dph,r3
	mov	dpx,r4
	mov	b,r5
	lcall	___fsadd
	mov	r6,dpl
	mov	r7,dph
	mov	r0,dpx
	mov	r1,b
	mov	ar2,r6
	mov	ar3,r7
	mov	ar4,r0
	mov	a,r1
	cpl	acc[7]
	mov	r5,a
	sjmp 00105$
00104$:
;	asincosf.c:78: g = y * y;
;	genAssign: resultIsFar = TRUE
	mov	dptr,#___fsmul_PARM_2
	mov	a,r2
	movx	@dptr,a
	inc	dptr
	mov	a,r3
	movx	@dptr,a
	inc	dptr
	mov	a,r4
	movx	@dptr,a
	inc	dptr
	mov	a,r5
	movx	@dptr,a
	push	ar2
	push	ar3
	push	ar4
	push	ar5
	mov	dpl,r2
	mov	dph,r3
	mov	dpx,r4
	mov	b,r5
	lcall	___fsmul
	mov	r6,dpl
	mov	r7,dph
	mov	r0,dpx
	mov	r1,b
	pop	ar5
	pop	ar4
	pop	ar3
	pop	ar2
;	genAssign: resultIsFar = TRUE
	mov	dptr,#_asincosf_g_1_24
	mov	a,r6
	movx	@dptr,a
	inc	dptr
	mov	a,r7
	movx	@dptr,a
	inc	dptr
	mov	a,r0
	movx	@dptr,a
	inc	dptr
	mov	a,r1
	movx	@dptr,a
00105$:
;	asincosf.c:80: r = y + y * ((P(g) * g) / Q(g));
	mov	dptr,#_asincosf_g_1_24
;	genAssign: resultIsFar = TRUE
	mov	dps,#0x21
	mov	dptr,#___fsmul_PARM_2
	movx	a,@dptr
	movx	@dptr,a
	inc	dptr
	inc	dptr
	movx	a,@dptr
	movx	@dptr,a
	inc	dptr
	inc	dptr
	movx	a,@dptr
	movx	@dptr,a
	inc	dptr
	inc	dptr
	movx	a,@dptr
	movx	@dptr,a
	mov	dps,#0
	push	ar2
	push	ar3
	push	ar4
	push	ar5
	mov	dptr,#0x012065
	mov	b,#0xBF
	lcall	___fsmul
	mov	r6,dpl
	mov	r7,dph
	mov	r0,dpx
	mov	r1,b
	pop	ar5
	pop	ar4
	pop	ar3
	pop	ar2
;	genAssign: resultIsFar = TRUE
	mov	dptr,#___fsadd_PARM_2
	mov	a,#0x6B
	movx	@dptr,a
	inc	dptr
	mov	a,#0x16
	movx	@dptr,a
	inc	dptr
	mov	a,#0x6F
	movx	@dptr,a
	inc	dptr
	mov	a,#0x3F
	movx	@dptr,a
	push	ar2
	push	ar3
	push	ar4
	push	ar5
	mov	dpl,r6
	mov	dph,r7
	mov	dpx,r0
	mov	b,r1
	lcall	___fsadd
	mov	r6,dpl
	mov	r7,dph
	mov	r0,dpx
	mov	r1,b
	pop	ar5
	pop	ar4
	pop	ar3
	pop	ar2
	mov	dptr,#_asincosf_g_1_24
;	genAssign: resultIsFar = TRUE
	mov	dps,#0x21
	mov	dptr,#___fsmul_PARM_2
	movx	a,@dptr
	movx	@dptr,a
	inc	dptr
	inc	dptr
	movx	a,@dptr
	movx	@dptr,a
	inc	dptr
	inc	dptr
	movx	a,@dptr
	movx	@dptr,a
	inc	dptr
	inc	dptr
	movx	a,@dptr
	movx	@dptr,a
	mov	dps,#0
	push	ar2
	push	ar3
	push	ar4
	push	ar5
	mov	dpl,r6
	mov	dph,r7
	mov	dpx,r0
	mov	b,r1
	lcall	___fsmul
	mov     dps, #1
	mov     dptr, #_asincosf_sloc0_1_0
	mov	a,dpl
	movx	@dptr,a
	inc	dptr
	mov	a,dph
	movx	@dptr,a
	inc	dptr
	mov	a,dpx
	movx	@dptr,a
	inc	dptr
	mov	a,b
	movx	@dptr,a
	mov	dps,#0
	pop	ar5
	pop	ar4
	pop	ar3
	pop	ar2
;	genAssign: resultIsFar = TRUE
	mov	dptr,#___fsadd_PARM_2
	mov	a,#0x0B
	movx	@dptr,a
	inc	dptr
	mov	a,#0x8D
	movx	@dptr,a
	inc	dptr
	mov	a,#0xB1
	movx	@dptr,a
	inc	dptr
	mov	a,#0xC0
	movx	@dptr,a
	push	ar2
	push	ar3
	push	ar4
	push	ar5
	inc	dps
	mov	dptr,#_asincosf_g_1_24
	movx	a,@dptr
	mov	dpl,a
	inc	dptr
	movx	a,@dptr
	mov	dph,a
	inc	dptr
	movx	a,@dptr
	mov	dpx,a
	inc	dptr
	movx	a,@dptr
	mov	b,a
	mov	dps,#0
	lcall	___fsadd
	mov	r6,dpl
	mov	r7,dph
	mov	r0,dpx
	mov	r1,b
	pop	ar5
	pop	ar4
	pop	ar3
	pop	ar2
	mov	dptr,#_asincosf_g_1_24
;	genAssign: resultIsFar = TRUE
	mov	dps,#0x21
	mov	dptr,#___fsmul_PARM_2
	movx	a,@dptr
	movx	@dptr,a
	inc	dptr
	inc	dptr
	movx	a,@dptr
	movx	@dptr,a
	inc	dptr
	inc	dptr
	movx	a,@dptr
	movx	@dptr,a
	inc	dptr
	inc	dptr
	movx	a,@dptr
	movx	@dptr,a
	mov	dps,#0
	push	ar2
	push	ar3
	push	ar4
	push	ar5
	mov	dpl,r6
	mov	dph,r7
	mov	dpx,r0
	mov	b,r1
	lcall	___fsmul
	mov	r6,dpl
	mov	r7,dph
	mov	r0,dpx
	mov	r1,b
	pop	ar5
	pop	ar4
	pop	ar3
	pop	ar2
;	genAssign: resultIsFar = TRUE
	mov	dptr,#___fsadd_PARM_2
	mov	a,#0xF0
	movx	@dptr,a
	inc	dptr
	mov	a,#0x50
	movx	@dptr,a
	inc	dptr
	mov	a,#0xB3
	movx	@dptr,a
	inc	dptr
	mov	a,#0x40
	movx	@dptr,a
	push	ar2
	push	ar3
	push	ar4
	push	ar5
	mov	dpl,r6
	mov	dph,r7
	mov	dpx,r0
	mov	b,r1
	lcall	___fsadd
	mov	r6,dpl
	mov	r7,dph
	mov	r0,dpx
	mov	r1,b
	pop	ar5
	pop	ar4
	pop	ar3
	pop	ar2
;	genAssign: resultIsFar = TRUE
	mov	dptr,#___fsdiv_PARM_2
	mov	a,r6
	movx	@dptr,a
	inc	dptr
	mov	a,r7
	movx	@dptr,a
	inc	dptr
	mov	a,r0
	movx	@dptr,a
	inc	dptr
	mov	a,r1
	movx	@dptr,a
	push	ar2
	push	ar3
	push	ar4
	push	ar5
	inc	dps
	mov	dptr,#_asincosf_sloc0_1_0
	movx	a,@dptr
	mov	dpl,a
	inc	dptr
	movx	a,@dptr
	mov	dph,a
	inc	dptr
	movx	a,@dptr
	mov	dpx,a
	inc	dptr
	movx	a,@dptr
	mov	b,a
	mov	dps,#0
	lcall	___fsdiv
	mov	r6,dpl
	mov	r7,dph
	mov	r0,dpx
	mov	r1,b
	pop	ar5
	pop	ar4
	pop	ar3
	pop	ar2
;	genAssign: resultIsFar = TRUE
	mov	dptr,#___fsmul_PARM_2
	mov	a,r6
	movx	@dptr,a
	inc	dptr
	mov	a,r7
	movx	@dptr,a
	inc	dptr
	mov	a,r0
	movx	@dptr,a
	inc	dptr
	mov	a,r1
	movx	@dptr,a
	push	ar2
	push	ar3
	push	ar4
	push	ar5
	mov	dpl,r2
	mov	dph,r3
	mov	dpx,r4
	mov	b,r5
	lcall	___fsmul
	mov	r6,dpl
	mov	r7,dph
	mov	r0,dpx
	mov	r1,b
	pop	ar5
	pop	ar4
	pop	ar3
	pop	ar2
;	genAssign: resultIsFar = TRUE
	mov	dptr,#___fsadd_PARM_2
	mov	a,r6
	movx	@dptr,a
	inc	dptr
	mov	a,r7
	movx	@dptr,a
	inc	dptr
	mov	a,r0
	movx	@dptr,a
	inc	dptr
	mov	a,r1
	movx	@dptr,a
	mov	dpl,r2
	mov	dph,r3
	mov	dpx,r4
	mov	b,r5
	lcall	___fsadd
	mov	r6,dpl
	mov	r7,dph
	mov	r0,dpx
	mov	r1,b
;	genAssign: resultIsFar = TRUE
	mov	dptr,#_asincosf_r_1_24
	mov	a,r6
	movx	@dptr,a
	inc	dptr
	mov	a,r7
	movx	@dptr,a
	inc	dptr
	mov	a,r0
	movx	@dptr,a
	inc	dptr
	mov	a,r1
	movx	@dptr,a
00108$:
;	asincosf.c:82: i = quartPI;
	mov	c,_asincosf_quartPI_1_24
	clr	a
	rlc	a
	mov	r6,a
;	asincosf.c:83: if (isacos)
	jb	_asincosf_PARM_2,00140$
	ljmp	00115$
00140$:
;	asincosf.c:85: if (x < 0.0)
;	genAssign: resultIsFar = TRUE
	mov	dptr,#___fslt_PARM_2
	clr	a
	movx	@dptr,a
	inc	dptr
	movx	@dptr,a
	inc	dptr
	movx	@dptr,a
	inc	dptr
	movx	@dptr,a
	push	ar6
	inc	dps
	mov	dptr,#_asincosf_x_1_23
	movx	a,@dptr
	mov	dpl,a
	inc	dptr
	movx	a,@dptr
	mov	dph,a
	inc	dptr
	movx	a,@dptr
	mov	dpx,a
	inc	dptr
	movx	a,@dptr
	mov	b,a
	mov	dps,#0
	lcall	___fslt
	pop	ar6
	mov	a,dpl
	jnz	00141$
	ljmp	00110$
00141$:
;	asincosf.c:86: r = (b[i] + r) + b[i];
	mov	b,#0x04
	mov	a,r6
	mul	ab
	mov	r7,a
	mov	r0,b
	add	a,#_asincosf_b_1_24
	mov	dpl,a
	mov	a,r0
	addc	a,#(_asincosf_b_1_24 >> 8)
	mov	dph,a
	clr	a
	addc	a,#(_asincosf_b_1_24 >> 16)
	mov	dpx,a
	clr	a
	movc	a,@a+dptr
	inc	dptr
	mov	r6,a
	clr	a
	movc	a,@a+dptr
	inc	dptr
	mov	r7,a
	clr	a
	movc	a,@a+dptr
	inc	dptr
	mov	r0,a
	clr	a
	movc	a,@a+dptr
	mov	r1,a
	mov	dptr,#_asincosf_r_1_24
;	genAssign: resultIsFar = TRUE
	mov	dps,#0x21
	mov	dptr,#___fsadd_PARM_2
	movx	a,@dptr
	movx	@dptr,a
	inc	dptr
	inc	dptr
	movx	a,@dptr
	movx	@dptr,a
	inc	dptr
	inc	dptr
	movx	a,@dptr
	movx	@dptr,a
	inc	dptr
	inc	dptr
	movx	a,@dptr
	movx	@dptr,a
	mov	dps,#0
	push	ar6
	push	ar7
	push	ar0
	push	ar1
	mov	dpl,r6
	mov	dph,r7
	mov	dpx,r0
	mov	b,r1
	lcall	___fsadd
	mov	r3,dpl
	mov	r4,dph
	mov	r5,dpx
	mov	r2,b
	pop	ar1
	pop	ar0
	pop	ar7
	pop	ar6
;	genAssign: resultIsFar = TRUE
	mov	dptr,#___fsadd_PARM_2
	mov	a,r6
	movx	@dptr,a
	inc	dptr
	mov	a,r7
	movx	@dptr,a
	inc	dptr
	mov	a,r0
	movx	@dptr,a
	inc	dptr
	mov	a,r1
	movx	@dptr,a
	mov	dpl,r3
	mov	dph,r4
	mov	dpx,r5
	mov	b,r2
	lcall	___fsadd
	mov	r2,dpl
	mov	r3,dph
	mov	r4,dpx
	mov	r5,b
;	genAssign: resultIsFar = TRUE
	mov	dptr,#_asincosf_r_1_24
	mov	a,r2
	movx	@dptr,a
	inc	dptr
	mov	a,r3
	movx	@dptr,a
	inc	dptr
	mov	a,r4
	movx	@dptr,a
	inc	dptr
	mov	a,r5
	movx	@dptr,a
	ljmp	00116$
00110$:
;	asincosf.c:88: r = (a[i] - r) + a[i];
	mov	b,#0x04
	mov	a,r6
	mul	ab
	mov	r2,a
	mov	r3,b
	add	a,#_asincosf_a_1_24
	mov	dpl,a
	mov	a,r3
	addc	a,#(_asincosf_a_1_24 >> 8)
	mov	dph,a
	clr	a
	addc	a,#(_asincosf_a_1_24 >> 16)
	mov	dpx,a
	clr	a
	movc	a,@a+dptr
	inc	dptr
	mov	r3,a
	clr	a
	movc	a,@a+dptr
	inc	dptr
	mov	r4,a
	clr	a
	movc	a,@a+dptr
	inc	dptr
	mov	r5,a
	clr	a
	movc	a,@a+dptr
	mov	r6,a
	mov	dptr,#_asincosf_r_1_24
;	genAssign: resultIsFar = TRUE
	mov	dps,#0x21
	mov	dptr,#___fssub_PARM_2
	movx	a,@dptr
	movx	@dptr,a
	inc	dptr
	inc	dptr
	movx	a,@dptr
	movx	@dptr,a
	inc	dptr
	inc	dptr
	movx	a,@dptr
	movx	@dptr,a
	inc	dptr
	inc	dptr
	movx	a,@dptr
	movx	@dptr,a
	mov	dps,#0
	push	ar3
	push	ar4
	push	ar5
	push	ar6
	mov	dpl,r3
	mov	dph,r4
	mov	dpx,r5
	mov	b,r6
	lcall	___fssub
	mov	r7,dpl
	mov	r0,dph
	mov	r1,dpx
	mov	r2,b
	pop	ar6
	pop	ar5
	pop	ar4
	pop	ar3
;	genAssign: resultIsFar = TRUE
	mov	dptr,#___fsadd_PARM_2
	mov	a,r3
	movx	@dptr,a
	inc	dptr
	mov	a,r4
	movx	@dptr,a
	inc	dptr
	mov	a,r5
	movx	@dptr,a
	inc	dptr
	mov	a,r6
	movx	@dptr,a
	mov	dpl,r7
	mov	dph,r0
	mov	dpx,r1
	mov	b,r2
	lcall	___fsadd
	mov	r2,dpl
	mov	r3,dph
	mov	r4,dpx
	mov	r5,b
;	genAssign: resultIsFar = TRUE
	mov	dptr,#_asincosf_r_1_24
	mov	a,r2
	movx	@dptr,a
	inc	dptr
	mov	a,r3
	movx	@dptr,a
	inc	dptr
	mov	a,r4
	movx	@dptr,a
	inc	dptr
	mov	a,r5
	movx	@dptr,a
	ljmp	00116$
00115$:
;	asincosf.c:92: r = (a[i] + r) + a[i];
	mov	b,#0x04
	mov	a,r6
	mul	ab
	mov	r6,a
	mov	r2,b
	add	a,#_asincosf_a_1_24
	mov	dpl,a
	mov	a,r2
	addc	a,#(_asincosf_a_1_24 >> 8)
	mov	dph,a
	clr	a
	addc	a,#(_asincosf_a_1_24 >> 16)
	mov	dpx,a
	clr	a
	movc	a,@a+dptr
	inc	dptr
	mov	r2,a
	clr	a
	movc	a,@a+dptr
	inc	dptr
	mov	r3,a
	clr	a
	movc	a,@a+dptr
	inc	dptr
	mov	r4,a
	clr	a
	movc	a,@a+dptr
	mov	r5,a
	mov	dptr,#_asincosf_r_1_24
;	genAssign: resultIsFar = TRUE
	mov	dps,#0x21
	mov	dptr,#___fsadd_PARM_2
	movx	a,@dptr
	movx	@dptr,a
	inc	dptr
	inc	dptr
	movx	a,@dptr
	movx	@dptr,a
	inc	dptr
	inc	dptr
	movx	a,@dptr
	movx	@dptr,a
	inc	dptr
	inc	dptr
	movx	a,@dptr
	movx	@dptr,a
	mov	dps,#0
	push	ar2
	push	ar3
	push	ar4
	push	ar5
	mov	dpl,r2
	mov	dph,r3
	mov	dpx,r4
	mov	b,r5
	lcall	___fsadd
	mov	r6,dpl
	mov	r7,dph
	mov	r0,dpx
	mov	r1,b
	pop	ar5
	pop	ar4
	pop	ar3
	pop	ar2
;	genAssign: resultIsFar = TRUE
	mov	dptr,#___fsadd_PARM_2
	mov	a,r2
	movx	@dptr,a
	inc	dptr
	mov	a,r3
	movx	@dptr,a
	inc	dptr
	mov	a,r4
	movx	@dptr,a
	inc	dptr
	mov	a,r5
	movx	@dptr,a
	mov	dpl,r6
	mov	dph,r7
	mov	dpx,r0
	mov	b,r1
	lcall	___fsadd
	mov	r2,dpl
	mov	r3,dph
	mov	r4,dpx
	mov	r5,b
;	genAssign: resultIsFar = TRUE
	mov	dptr,#_asincosf_r_1_24
	mov	a,r2
	movx	@dptr,a
	inc	dptr
	mov	a,r3
	movx	@dptr,a
	inc	dptr
	mov	a,r4
	movx	@dptr,a
	inc	dptr
	mov	a,r5
	movx	@dptr,a
;	asincosf.c:93: if (x < 0.0)
;	genAssign: resultIsFar = TRUE
	mov	dptr,#___fslt_PARM_2
	clr	a
	movx	@dptr,a
	inc	dptr
	movx	@dptr,a
	inc	dptr
	movx	@dptr,a
	inc	dptr
	movx	@dptr,a
	inc	dps
	mov	dptr,#_asincosf_x_1_23
	movx	a,@dptr
	mov	dpl,a
	inc	dptr
	movx	a,@dptr
	mov	dph,a
	inc	dptr
	movx	a,@dptr
	mov	dpx,a
	inc	dptr
	movx	a,@dptr
	mov	b,a
	mov	dps,#0
	lcall	___fslt
	mov	a,dpl
	jz  00116$
00142$:
;	asincosf.c:94: r = -r;
	mov	dptr,#_asincosf_r_1_24
	mov	dps, #1
	mov	dptr, #_asincosf_r_1_24
	dec	dps
	movx	a,@dptr
	inc	dps
	movx	@dptr,a
	dec	dps
	inc	dptr
	movx	a,@dptr
	inc	dps
	inc	dptr
	movx	@dptr,a
	dec	dps
	inc	dptr
	movx	a,@dptr
	inc	dps
	inc	dptr
	movx	@dptr,a
	dec	dps
	inc	dptr
	movx	a,@dptr
	cpl	acc[7]
	inc	dps
	inc	dptr
	movx	@dptr,a
	mov	dps,#0
00116$:
;	asincosf.c:96: return r;
	mov     dps, #1
	mov     dptr, #_asincosf_r_1_24
	movx	a,@dptr
	mov	dpl,a
	inc	dptr
	movx	a,@dptr
	mov	dph,a
	inc	dptr
	movx	a,@dptr
	mov	dpx,a
	inc	dptr
	movx	a,@dptr
	mov	b,a
	mov	dps,#0
00117$:
	ret
	.area CSEG    (CODE)
	.area CONST   (CODE)
_asincosf_a_1_24:
	.byte #0x00,#0x00,#0x00,#0x00	;  0.000000e+00
	.byte #0xDB,#0x0F,#0x49,#0x3F	;  7.853982e-01
_asincosf_b_1_24:
	.byte #0xDB,#0x0F,#0xC9,#0x3F	;  1.570796e+00
	.byte #0xDB,#0x0F,#0x49,#0x3F	;  7.853982e-01
	.area XINIT   (CODE)
	.area CABS    (ABS,CODE)
