;--------------------------------------------------------
; File Created by SDCC : free open source ANSI-C Compiler
; Version 3.5.0 #9253 (Apr  4 2022) (Linux)
; This file was generated Mon Apr  4 14:10:25 2022
;--------------------------------------------------------
	.module tancotf
	.optsdcc -mds390 --model-flat24
	
;--------------------------------------------------------
; CPU specific extensions
;--------------------------------------------------------
	.DS80C390
	.amode	2	; 24 bit flat addressing
dpl	=	0x82
dph	=	0x83
dpl1	=	0x84
dph1	=	0x85
dps	=	0x86
dpx	=	0x93
dpx1	=	0x95
esp	=	0x9B
ap	=	0x9C
acc1	=	0x9C
mcnt0	=	0xD1
mcnt1	=	0xD2
ma	=	0xD3
mb	=	0xD4
mc	=	0xD5
acon	=	0x9D
F1	=	0xD1	; user flag
;--------------------------------------------------------
; Public variables in this module
;--------------------------------------------------------
	.globl _tancotf
	.globl _fabsf
	.globl _tancotf_PARM_2
;--------------------------------------------------------
; special function registers
;--------------------------------------------------------
;--------------------------------------------------------
; special function bits
;--------------------------------------------------------
;--------------------------------------------------------
; overlayable register banks
;--------------------------------------------------------
	.area REG_BANK_0	(REL,OVR,DATA)
	.ds 8
;--------------------------------------------------------
; internal ram data
;--------------------------------------------------------
	.area DSEG    (DATA)
;--------------------------------------------------------
; overlayable items in internal ram 
;--------------------------------------------------------
;--------------------------------------------------------
; indirectly addressable internal ram data
;--------------------------------------------------------
	.area ISEG    (DATA)
;--------------------------------------------------------
; absolute internal ram data
;--------------------------------------------------------
	.area IABS    (ABS,DATA)
	.area IABS    (ABS,DATA)
;--------------------------------------------------------
; bit data
;--------------------------------------------------------
	.area BSEG    (BIT)
_tancotf_PARM_2:
	.ds 1
;--------------------------------------------------------
; paged external ram data
;--------------------------------------------------------
	.area PSEG    (PAG,XDATA)
;--------------------------------------------------------
; external ram data
;--------------------------------------------------------
	.area XSEG    (XDATA)
_tancotf_f_1_24:
	.ds 4
_tancotf_g_1_24:
	.ds 4
_tancotf_xn_1_24:
	.ds 4
_tancotf_xden_1_24:
	.ds 4
_tancotf_n_1_24:
	.ds 2
_tancotf_sloc0_1_0:
	.ds 4
;--------------------------------------------------------
; absolute external ram data
;--------------------------------------------------------
	.area XABS    (ABS,XDATA)
;--------------------------------------------------------
; external initialized ram data
;--------------------------------------------------------
	.area XISEG   (XDATA)
;--------------------------------------------------------
; global & static initialisations
;--------------------------------------------------------
	.area HOME    (CODE)
	.area GSINIT  (CODE)
	.area GSFINAL (CODE)
	.area GSINIT  (CODE)
;--------------------------------------------------------
; Home
;--------------------------------------------------------
	.area HOME    (CODE)
	.area HOME    (CODE)
;--------------------------------------------------------
; code
;--------------------------------------------------------
	.area CSEG    (CODE)
;------------------------------------------------------------
;Allocation info for local variables in function 'tancotf'
;------------------------------------------------------------
;x                         Allocated to registers r2 r3 r4 r5 
;f                         Allocated with name '_tancotf_f_1_24'
;g                         Allocated with name '_tancotf_g_1_24'
;xn                        Allocated with name '_tancotf_xn_1_24'
;xnum                      Allocated to registers r6 r7 r0 r1 
;xden                      Allocated with name '_tancotf_xden_1_24'
;n                         Allocated with name '_tancotf_n_1_24'
;sloc0                     Allocated with name '_tancotf_sloc0_1_0'
;------------------------------------------------------------
;	tancotf.c:53: float tancotf(float x, bool iscotan)
;	-----------------------------------------
;	 function tancotf
;	-----------------------------------------
_tancotf:
	ar2 = 0x02
	ar3 = 0x03
	ar4 = 0x04
	ar5 = 0x05
	ar6 = 0x06
	ar7 = 0x07
	ar0 = 0x00
	ar1 = 0x01
	mov	r2,dpl
	mov	r3,dph
	mov	r4,dpx
	mov	r5,b
;	tancotf.c:58: if (fabsf(x) > YMAX)
	push	ar2
	push	ar3
	push	ar4
	push	ar5
	mov	dpl,r2
	mov	dph,r3
	mov	dpx,r4
	mov	b,r5
	lcall	_fabsf
	mov	r6,dpl
	mov	r7,dph
	mov	r0,dpx
	mov	r1,b
	pop	ar5
	pop	ar4
	pop	ar3
	pop	ar2
;	genAssign: resultIsFar = TRUE
	mov	dptr,#___fsgt_PARM_2
	clr	a
	movx	@dptr,a
	inc	dptr
	mov	a,#0x08
	movx	@dptr,a
	inc	dptr
	mov	a,#0xC9
	movx	@dptr,a
	inc	dptr
	mov	a,#0x45
	movx	@dptr,a
	push	ar2
	push	ar3
	push	ar4
	push	ar5
	mov	dpl,r6
	mov	dph,r7
	mov	dpx,r0
	mov	b,r1
	lcall	___fsgt
	pop	ar5
	pop	ar4
	pop	ar3
	pop	ar2
	mov	a,dpl
	jz  00102$
00137$:
;	tancotf.c:60: errno = ERANGE;
;	genAssign: resultIsFar = TRUE
	mov	dptr,#_errno
	mov	a,#0x22
	movx	@dptr,a
	clr	a
	inc	dptr
	movx	@dptr,a
;	tancotf.c:61: return 0.0;
	mov  dptr,#0x0000
	mov	b,#0x00
	ljmp	00115$
00102$:
;	tancotf.c:65: n=(x*TWO_O_PI+(x>0.0?0.5:-0.5)); /*works for +-x*/
;	genAssign: resultIsFar = TRUE
	mov	dptr,#___fsmul_PARM_2
	mov	a,r2
	movx	@dptr,a
	inc	dptr
	mov	a,r3
	movx	@dptr,a
	inc	dptr
	mov	a,r4
	movx	@dptr,a
	inc	dptr
	mov	a,r5
	movx	@dptr,a
	push	ar2
	push	ar3
	push	ar4
	push	ar5
	mov	dptr,#0x22F983
	mov	b,#0x3F
	lcall	___fsmul
	mov	r6,dpl
	mov	r7,dph
	mov	r0,dpx
	mov	r1,b
	pop	ar5
	pop	ar4
	pop	ar3
	pop	ar2
;	genAssign: resultIsFar = TRUE
	mov	dptr,#___fsgt_PARM_2
	clr	a
	movx	@dptr,a
	inc	dptr
	movx	@dptr,a
	inc	dptr
	movx	@dptr,a
	inc	dptr
	movx	@dptr,a
	push	ar2
	push	ar3
	push	ar4
	push	ar5
	push	ar6
	push	ar7
	push	ar0
	push	ar1
	mov	dpl,r2
	mov	dph,r3
	mov	dpx,r4
	mov	b,r5
	lcall	___fsgt
	pop	ar1
	pop	ar0
	pop	ar7
	pop	ar6
	pop	ar5
	pop	ar4
	pop	ar3
	pop	ar2
	mov	a,dpl
	jz  00117$
00138$:
;	genAssign: resultIsFar = TRUE
	mov	dptr,#_tancotf_sloc0_1_0
	clr	a
	movx	@dptr,a
	inc	dptr
	clr	a
	movx	@dptr,a
	inc	dptr
	clr	a
	movx	@dptr,a
	inc	dptr
	mov	a,#0x3F
	movx	@dptr,a
	sjmp 00118$
00117$:
;	genAssign: resultIsFar = TRUE
	mov	dptr,#_tancotf_sloc0_1_0
	clr	a
	movx	@dptr,a
	inc	dptr
	clr	a
	movx	@dptr,a
	inc	dptr
	clr	a
	movx	@dptr,a
	inc	dptr
	mov	a,#0xBF
	movx	@dptr,a
00118$:
	mov	dptr,#_tancotf_sloc0_1_0
;	genAssign: resultIsFar = TRUE
	mov	dps,#0x21
	mov	dptr,#___fsadd_PARM_2
	movx	a,@dptr
	movx	@dptr,a
	inc	dptr
	inc	dptr
	movx	a,@dptr
	movx	@dptr,a
	inc	dptr
	inc	dptr
	movx	a,@dptr
	movx	@dptr,a
	inc	dptr
	inc	dptr
	movx	a,@dptr
	movx	@dptr,a
	mov	dps,#0
	push	ar2
	push	ar3
	push	ar4
	push	ar5
	mov	dpl,r6
	mov	dph,r7
	mov	dpx,r0
	mov	b,r1
	lcall	___fsadd
	pop	ar5
	pop	ar4
	pop	ar3
	pop	ar2
	push	ar2
	push	ar3
	push	ar4
	push	ar5
	lcall	___fs2sint
	mov	r6,dpl
	mov	r7,dph
	pop	ar5
	pop	ar4
	pop	ar3
	pop	ar2
;	genAssign: resultIsFar = TRUE
	mov	dptr,#_tancotf_n_1_24
	mov	a,r6
	movx	@dptr,a
	inc	dptr
	mov	a,r7
	movx	@dptr,a
;	tancotf.c:66: xn=n;
	push	ar2
	push	ar3
	push	ar4
	push	ar5
	inc	dps
	mov	dptr,#_tancotf_n_1_24
	movx	a,@dptr
	mov	dpl,a
	inc	dptr
	movx	a,@dptr
	mov	dph,a
	mov	dps,#0
	lcall	___sint2fs
	mov	r0,dpl
	mov	r1,dph
	mov	r6,dpx
	mov	r7,b
	pop	ar5
	pop	ar4
	pop	ar3
	pop	ar2
;	genAssign: resultIsFar = TRUE
	mov	dptr,#_tancotf_xn_1_24
	mov	a,r0
	movx	@dptr,a
	inc	dptr
	mov	a,r1
	movx	@dptr,a
	inc	dptr
	mov	a,r6
	movx	@dptr,a
	inc	dptr
	mov	a,r7
	movx	@dptr,a
;	tancotf.c:68: xnum=(int)x;
	push	ar2
	push	ar3
	push	ar4
	push	ar5
	mov	dpl,r2
	mov	dph,r3
	mov	dpx,r4
	mov	b,r5
	lcall	___fs2sint
	pop	ar5
	pop	ar4
	pop	ar3
	pop	ar2
	push	ar2
	push	ar3
	push	ar4
	push	ar5
	lcall	___sint2fs
	mov	r6,dpl
	mov	r7,dph
	mov	r0,dpx
	mov	r1,b
	pop	ar5
	pop	ar4
	pop	ar3
	pop	ar2
;	genAssign: resultIsFar = TRUE
;	tancotf.c:69: xden=x-xnum;
;	genAssign: resultIsFar = TRUE
	mov	dptr,#___fssub_PARM_2
	mov	a,r6
	movx	@dptr,a
	inc	dptr
	mov	a,r7
	movx	@dptr,a
	inc	dptr
	mov	a,r0
	movx	@dptr,a
	inc	dptr
	mov	a,r1
	movx	@dptr,a
	push	ar6
	push	ar7
	push	ar0
	push	ar1
	mov	dpl,r2
	mov	dph,r3
	mov	dpx,r4
	mov	b,r5
	lcall	___fssub
	mov	r2,dpl
	mov	r3,dph
	mov	r4,dpx
	mov	r5,b
	pop	ar1
	pop	ar0
	pop	ar7
	pop	ar6
;	genAssign: resultIsFar = TRUE
	mov	dptr,#_tancotf_xden_1_24
	mov	a,r2
	movx	@dptr,a
	inc	dptr
	mov	a,r3
	movx	@dptr,a
	inc	dptr
	mov	a,r4
	movx	@dptr,a
	inc	dptr
	mov	a,r5
	movx	@dptr,a
;	tancotf.c:70: f=((xnum-xn*C1)+xden)-xn*C2;
	mov	dptr,#_tancotf_xn_1_24
;	genAssign: resultIsFar = TRUE
	mov	dps,#0x21
	mov	dptr,#___fsmul_PARM_2
	movx	a,@dptr
	movx	@dptr,a
	inc	dptr
	inc	dptr
	movx	a,@dptr
	movx	@dptr,a
	inc	dptr
	inc	dptr
	movx	a,@dptr
	movx	@dptr,a
	inc	dptr
	inc	dptr
	movx	a,@dptr
	movx	@dptr,a
	mov	dps,#0
	push	ar6
	push	ar7
	push	ar0
	push	ar1
	mov  dptr,#0x0000
	mov	dpx,#0xC9
	mov	b,#0x3F
	lcall	___fsmul
	mov	r2,dpl
	mov	r3,dph
	mov	r4,dpx
	mov	r5,b
	pop	ar1
	pop	ar0
	pop	ar7
	pop	ar6
;	genAssign: resultIsFar = TRUE
	mov	dptr,#___fssub_PARM_2
	mov	a,r2
	movx	@dptr,a
	inc	dptr
	mov	a,r3
	movx	@dptr,a
	inc	dptr
	mov	a,r4
	movx	@dptr,a
	inc	dptr
	mov	a,r5
	movx	@dptr,a
	mov	dpl,r6
	mov	dph,r7
	mov	dpx,r0
	mov	b,r1
	lcall	___fssub
	mov	r2,dpl
	mov	r3,dph
	mov	r4,dpx
	mov	r5,b
	mov	dptr,#_tancotf_xden_1_24
;	genAssign: resultIsFar = TRUE
	mov	dps,#0x21
	mov	dptr,#___fsadd_PARM_2
	movx	a,@dptr
	movx	@dptr,a
	inc	dptr
	inc	dptr
	movx	a,@dptr
	movx	@dptr,a
	inc	dptr
	inc	dptr
	movx	a,@dptr
	movx	@dptr,a
	inc	dptr
	inc	dptr
	movx	a,@dptr
	movx	@dptr,a
	mov	dps,#0
	mov	dpl,r2
	mov	dph,r3
	mov	dpx,r4
	mov	b,r5
	lcall	___fsadd
	mov	r6,dpl
	mov	r7,dph
	mov	r0,dpx
	mov	r1,b
	mov	dptr,#_tancotf_xn_1_24
;	genAssign: resultIsFar = TRUE
	mov	dps,#0x21
	mov	dptr,#___fsmul_PARM_2
	movx	a,@dptr
	movx	@dptr,a
	inc	dptr
	inc	dptr
	movx	a,@dptr
	movx	@dptr,a
	inc	dptr
	inc	dptr
	movx	a,@dptr
	movx	@dptr,a
	inc	dptr
	inc	dptr
	movx	a,@dptr
	movx	@dptr,a
	mov	dps,#0
	push	ar6
	push	ar7
	push	ar0
	push	ar1
	mov	dptr,#0xFDAA22
	mov	b,#0x39
	lcall	___fsmul
	mov	r2,dpl
	mov	r3,dph
	mov	r4,dpx
	mov	r5,b
	pop	ar1
	pop	ar0
	pop	ar7
	pop	ar6
;	genAssign: resultIsFar = TRUE
	mov	dptr,#___fssub_PARM_2
	mov	a,r2
	movx	@dptr,a
	inc	dptr
	mov	a,r3
	movx	@dptr,a
	inc	dptr
	mov	a,r4
	movx	@dptr,a
	inc	dptr
	mov	a,r5
	movx	@dptr,a
	mov	dpl,r6
	mov	dph,r7
	mov	dpx,r0
	mov	b,r1
	lcall	___fssub
	mov	r2,dpl
	mov	r3,dph
	mov	r4,dpx
	mov	r5,b
;	genAssign: resultIsFar = TRUE
	mov	dptr,#_tancotf_f_1_24
	mov	a,r2
	movx	@dptr,a
	inc	dptr
	mov	a,r3
	movx	@dptr,a
	inc	dptr
	mov	a,r4
	movx	@dptr,a
	inc	dptr
	mov	a,r5
	movx	@dptr,a
;	tancotf.c:72: if (fabsf(f) < EPS)
	inc	dps
	mov	dptr,#_tancotf_f_1_24
	movx	a,@dptr
	mov	dpl,a
	inc	dptr
	movx	a,@dptr
	mov	dph,a
	inc	dptr
	movx	a,@dptr
	mov	dpx,a
	inc	dptr
	movx	a,@dptr
	mov	b,a
	mov	dps,#0
	lcall	_fabsf
	mov	r2,dpl
	mov	r3,dph
	mov	r4,dpx
	mov	r5,b
;	genAssign: resultIsFar = TRUE
	mov	dptr,#___fslt_PARM_2
	clr	a
	movx	@dptr,a
	inc	dptr
	clr	a
	movx	@dptr,a
	inc	dptr
	mov	a,#0x80
	movx	@dptr,a
	inc	dptr
	mov	a,#0x39
	movx	@dptr,a
	mov	dpl,r2
	mov	dph,r3
	mov	dpx,r4
	mov	b,r5
	lcall	___fslt
	mov	a,dpl
	jz  00104$
00139$:
;	tancotf.c:74: xnum = f;
	mov	dptr,#_tancotf_f_1_24
;	genAssign: resultIsFar = TRUE
	movx	a,@dptr
	mov	r6,a
	inc	dptr
	movx	a,@dptr
	mov	r7,a
	inc	dptr
	movx	a,@dptr
	mov	r0,a
	inc	dptr
	movx	a,@dptr
	mov	r1,a
;	tancotf.c:75: xden = 1.0;
;	genAssign: resultIsFar = TRUE
	mov	dptr,#_tancotf_xden_1_24
	clr	a
	movx	@dptr,a
	inc	dptr
	clr	a
	movx	@dptr,a
	inc	dptr
	mov	a,#0x80
	movx	@dptr,a
	inc	dptr
	mov	a,#0x3F
	movx	@dptr,a
	ljmp	00105$
00104$:
;	tancotf.c:79: g = f*f;
	mov	dptr,#_tancotf_f_1_24
;	genAssign: resultIsFar = TRUE
	mov	dps,#0x21
	mov	dptr,#___fsmul_PARM_2
	movx	a,@dptr
	movx	@dptr,a
	inc	dptr
	inc	dptr
	movx	a,@dptr
	movx	@dptr,a
	inc	dptr
	inc	dptr
	movx	a,@dptr
	movx	@dptr,a
	inc	dptr
	inc	dptr
	movx	a,@dptr
	movx	@dptr,a
	mov	dps, #1
	mov	dptr,#_tancotf_f_1_24
	movx	a,@dptr
	mov	dpl,a
	inc	dptr
	movx	a,@dptr
	mov	dph,a
	inc	dptr
	movx	a,@dptr
	mov	dpx,a
	inc	dptr
	movx	a,@dptr
	mov	b,a
	mov	dps,#0
	lcall	___fsmul
	mov	r2,dpl
	mov	r3,dph
	mov	r4,dpx
	mov	r5,b
;	genAssign: resultIsFar = TRUE
	mov	dptr,#_tancotf_g_1_24
	mov	a,r2
	movx	@dptr,a
	inc	dptr
	mov	a,r3
	movx	@dptr,a
	inc	dptr
	mov	a,r4
	movx	@dptr,a
	inc	dptr
	mov	a,r5
	movx	@dptr,a
;	tancotf.c:80: xnum = P(f,g);
	mov	dptr,#_tancotf_g_1_24
;	genAssign: resultIsFar = TRUE
	mov	dps,#0x21
	mov	dptr,#___fsmul_PARM_2
	movx	a,@dptr
	movx	@dptr,a
	inc	dptr
	inc	dptr
	movx	a,@dptr
	movx	@dptr,a
	inc	dptr
	inc	dptr
	movx	a,@dptr
	movx	@dptr,a
	inc	dptr
	inc	dptr
	movx	a,@dptr
	movx	@dptr,a
	mov	dps,#0
	mov	dptr,#0xC433B8
	mov	b,#0xBD
	lcall	___fsmul
	mov	r2,dpl
	mov	r3,dph
	mov	r4,dpx
	mov	r5,b
	mov	dptr,#_tancotf_f_1_24
;	genAssign: resultIsFar = TRUE
	mov	dps,#0x21
	mov	dptr,#___fsmul_PARM_2
	movx	a,@dptr
	movx	@dptr,a
	inc	dptr
	inc	dptr
	movx	a,@dptr
	movx	@dptr,a
	inc	dptr
	inc	dptr
	movx	a,@dptr
	movx	@dptr,a
	inc	dptr
	inc	dptr
	movx	a,@dptr
	movx	@dptr,a
	mov	dps,#0
	mov	dpl,r2
	mov	dph,r3
	mov	dpx,r4
	mov	b,r5
	lcall	___fsmul
	mov	r2,dpl
	mov	r3,dph
	mov	r4,dpx
	mov	r5,b
	mov	dptr,#_tancotf_f_1_24
;	genAssign: resultIsFar = TRUE
	mov	dps,#0x21
	mov	dptr,#___fsadd_PARM_2
	movx	a,@dptr
	movx	@dptr,a
	inc	dptr
	inc	dptr
	movx	a,@dptr
	movx	@dptr,a
	inc	dptr
	inc	dptr
	movx	a,@dptr
	movx	@dptr,a
	inc	dptr
	inc	dptr
	movx	a,@dptr
	movx	@dptr,a
	mov	dps,#0
	mov	dpl,r2
	mov	dph,r3
	mov	dpx,r4
	mov	b,r5
	lcall	___fsadd
	mov	r2,dpl
	mov	r3,dph
	mov	r4,dpx
	mov	r5,b
;	genAssign: resultIsFar = TRUE
	mov	ar6,r2
	mov	ar7,r3
	mov	ar0,r4
	mov	ar1,r5
;	tancotf.c:81: xden = Q(g);
	mov	dptr,#_tancotf_g_1_24
;	genAssign: resultIsFar = TRUE
	mov	dps,#0x21
	mov	dptr,#___fsmul_PARM_2
	movx	a,@dptr
	movx	@dptr,a
	inc	dptr
	inc	dptr
	movx	a,@dptr
	movx	@dptr,a
	inc	dptr
	inc	dptr
	movx	a,@dptr
	movx	@dptr,a
	inc	dptr
	inc	dptr
	movx	a,@dptr
	movx	@dptr,a
	mov	dps,#0
	push	ar6
	push	ar7
	push	ar0
	push	ar1
	mov	dptr,#0x1F3375
	mov	b,#0x3C
	lcall	___fsmul
	mov	r2,dpl
	mov	r3,dph
	mov	r4,dpx
	mov	r5,b
	pop	ar1
	pop	ar0
	pop	ar7
	pop	ar6
;	genAssign: resultIsFar = TRUE
	mov	dptr,#___fsadd_PARM_2
	mov	a,#0xAF
	movx	@dptr,a
	inc	dptr
	mov	a,#0xB7
	movx	@dptr,a
	inc	dptr
	mov	a,#0xDB
	movx	@dptr,a
	inc	dptr
	mov	a,#0xBE
	movx	@dptr,a
	push	ar6
	push	ar7
	push	ar0
	push	ar1
	mov	dpl,r2
	mov	dph,r3
	mov	dpx,r4
	mov	b,r5
	lcall	___fsadd
	mov	r2,dpl
	mov	r3,dph
	mov	r4,dpx
	mov	r5,b
	pop	ar1
	pop	ar0
	pop	ar7
	pop	ar6
	mov	dptr,#_tancotf_g_1_24
;	genAssign: resultIsFar = TRUE
	mov	dps,#0x21
	mov	dptr,#___fsmul_PARM_2
	movx	a,@dptr
	movx	@dptr,a
	inc	dptr
	inc	dptr
	movx	a,@dptr
	movx	@dptr,a
	inc	dptr
	inc	dptr
	movx	a,@dptr
	movx	@dptr,a
	inc	dptr
	inc	dptr
	movx	a,@dptr
	movx	@dptr,a
	mov	dps,#0
	push	ar6
	push	ar7
	push	ar0
	push	ar1
	mov	dpl,r2
	mov	dph,r3
	mov	dpx,r4
	mov	b,r5
	lcall	___fsmul
	mov	r2,dpl
	mov	r3,dph
	mov	r4,dpx
	mov	r5,b
	pop	ar1
	pop	ar0
	pop	ar7
	pop	ar6
;	genAssign: resultIsFar = TRUE
	mov	dptr,#___fsadd_PARM_2
	clr	a
	movx	@dptr,a
	inc	dptr
	clr	a
	movx	@dptr,a
	inc	dptr
	mov	a,#0x80
	movx	@dptr,a
	inc	dptr
	mov	a,#0x3F
	movx	@dptr,a
	push	ar6
	push	ar7
	push	ar0
	push	ar1
	mov	dpl,r2
	mov	dph,r3
	mov	dpx,r4
	mov	b,r5
	lcall	___fsadd
	mov	r2,dpl
	mov	r3,dph
	mov	r4,dpx
	mov	r5,b
	pop	ar1
	pop	ar0
	pop	ar7
	pop	ar6
;	genAssign: resultIsFar = TRUE
	mov	dptr,#_tancotf_xden_1_24
	mov	a,r2
	movx	@dptr,a
	inc	dptr
	mov	a,r3
	movx	@dptr,a
	inc	dptr
	mov	a,r4
	movx	@dptr,a
	inc	dptr
	mov	a,r5
	movx	@dptr,a
00105$:
;	tancotf.c:84: if(n&1)
	mov	dptr,#_tancotf_n_1_24
	movx	a,@dptr
	jnb  acc[0],00113$
00140$:
;	tancotf.c:87: if(iscotan) return (-xnum/xden);
	jnb  _tancotf_PARM_2,00107$
00141$:
	mov	ar2,r6
	mov	ar3,r7
	mov	ar4,r0
	mov	a,r1
	cpl	acc[7]
	mov	r5,a
	mov	dptr,#_tancotf_xden_1_24
;	genAssign: resultIsFar = TRUE
	mov	dps,#0x21
	mov	dptr,#___fsdiv_PARM_2
	movx	a,@dptr
	movx	@dptr,a
	inc	dptr
	inc	dptr
	movx	a,@dptr
	movx	@dptr,a
	inc	dptr
	inc	dptr
	movx	a,@dptr
	movx	@dptr,a
	inc	dptr
	inc	dptr
	movx	a,@dptr
	movx	@dptr,a
	mov	dps,#0
	mov	dpl,r2
	mov	dph,r3
	mov	dpx,r4
	mov	b,r5
	lcall	___fsdiv
	ljmp	00115$
00107$:
;	tancotf.c:88: else return (-xden/xnum);
	mov	dptr,#_tancotf_xden_1_24
	movx	a,@dptr
	mov	r2,a
	inc	dptr
	movx	a,@dptr
	mov	r3,a
	inc	dptr
	movx	a,@dptr
	mov	r4,a
	inc	dptr
	movx	a,@dptr
	cpl	acc[7]
	mov	r5,a
;	genAssign: resultIsFar = TRUE
	mov	dptr,#___fsdiv_PARM_2
	mov	a,r6
	movx	@dptr,a
	inc	dptr
	mov	a,r7
	movx	@dptr,a
	inc	dptr
	mov	a,r0
	movx	@dptr,a
	inc	dptr
	mov	a,r1
	movx	@dptr,a
	mov	dpl,r2
	mov	dph,r3
	mov	dpx,r4
	mov	b,r5
	lcall	___fsdiv
	sjmp 00115$
00113$:
;	tancotf.c:92: if(iscotan) return (xden/xnum);
	jnb  _tancotf_PARM_2,00110$
00142$:
;	genAssign: resultIsFar = TRUE
	mov	dptr,#___fsdiv_PARM_2
	mov	a,r6
	movx	@dptr,a
	inc	dptr
	mov	a,r7
	movx	@dptr,a
	inc	dptr
	mov	a,r0
	movx	@dptr,a
	inc	dptr
	mov	a,r1
	movx	@dptr,a
	inc	dps
	mov	dptr,#_tancotf_xden_1_24
	movx	a,@dptr
	mov	dpl,a
	inc	dptr
	movx	a,@dptr
	mov	dph,a
	inc	dptr
	movx	a,@dptr
	mov	dpx,a
	inc	dptr
	movx	a,@dptr
	mov	b,a
	mov	dps,#0
	lcall	___fsdiv
	sjmp 00115$
00110$:
;	tancotf.c:93: else return (xnum/xden);
	mov	dptr,#_tancotf_xden_1_24
;	genAssign: resultIsFar = TRUE
	mov	dps,#0x21
	mov	dptr,#___fsdiv_PARM_2
	movx	a,@dptr
	movx	@dptr,a
	inc	dptr
	inc	dptr
	movx	a,@dptr
	movx	@dptr,a
	inc	dptr
	inc	dptr
	movx	a,@dptr
	movx	@dptr,a
	inc	dptr
	inc	dptr
	movx	a,@dptr
	movx	@dptr,a
	mov	dps,#0
	mov	dpl,r6
	mov	dph,r7
	mov	dpx,r0
	mov	b,r1
	lcall	___fsdiv
00115$:
	ret
	.area CSEG    (CODE)
	.area CONST   (CODE)
	.area XINIT   (CODE)
	.area CABS    (ABS,CODE)
