                              1 ;--------------------------------------------------------
                              2 ; File Created by SDCC : free open source ANSI-C Compiler
                              3 ; Version 3.5.0 #9253 (Apr  4 2022) (Linux)
                              4 ; This file was generated Mon Apr  4 14:15:25 2022
                              5 ;--------------------------------------------------------
                              6 	.module _mullonglong
                              7 	.optsdcc -mz80
                              8 	
                              9 ;--------------------------------------------------------
                             10 ; Public variables in this module
                             11 ;--------------------------------------------------------
                             12 	.globl __mullonglong
                             13 ;--------------------------------------------------------
                             14 ; special function registers
                             15 ;--------------------------------------------------------
                             16 ;--------------------------------------------------------
                             17 ; ram data
                             18 ;--------------------------------------------------------
                             19 	.area _DATA
                             20 ;--------------------------------------------------------
                             21 ; ram data
                             22 ;--------------------------------------------------------
                             23 	.area _INITIALIZED
                             24 ;--------------------------------------------------------
                             25 ; absolute external ram data
                             26 ;--------------------------------------------------------
                             27 	.area _DABS (ABS)
                             28 ;--------------------------------------------------------
                             29 ; global & static initialisations
                             30 ;--------------------------------------------------------
                             31 	.area _HOME
                             32 	.area _GSINIT
                             33 	.area _GSFINAL
                             34 	.area _GSINIT
                             35 ;--------------------------------------------------------
                             36 ; Home
                             37 ;--------------------------------------------------------
                             38 	.area _HOME
                             39 ;../_mullonglong.c:35: long long _mullonglong(long long ll, long long lr)
                             40 ;	---------------------------------
                             41 ; Function _mullonglong
                             42 ; ---------------------------------
   0000                      43 __mullonglong::
   0000 DD E5         [15]   44 	push	ix
   0002 DD 21 00 00   [14]   45 	ld	ix,#0
   0006 DD 39         [15]   46 	add	ix,sp
   0008 21 ED FF      [10]   47 	ld	hl,#-19
   000B 39            [11]   48 	add	hl,sp
   000C F9            [ 6]   49 	ld	sp,hl
                             50 ;../_mullonglong.c:37: unsigned long long ret = 0ull;
   000D AF            [ 4]   51 	xor	a, a
   000E DD 77 EE      [19]   52 	ld	-18 (ix),a
   0011 DD 77 EF      [19]   53 	ld	-17 (ix),a
   0014 DD 77 F0      [19]   54 	ld	-16 (ix),a
   0017 DD 77 F1      [19]   55 	ld	-15 (ix),a
   001A DD 77 F2      [19]   56 	ld	-14 (ix),a
   001D DD 77 F3      [19]   57 	ld	-13 (ix),a
   0020 DD 77 F4      [19]   58 	ld	-12 (ix),a
   0023 DD 77 F5      [19]   59 	ld	-11 (ix),a
                             60 ;../_mullonglong.c:40: for (i = 0; i < sizeof (long long); i++)
   0026 0E 00         [ 7]   61 	ld	c,#0x00
   0028                      62 00106$:
                             63 ;../_mullonglong.c:42: unsigned char l = ll >> (i * 8);
   0028 59            [ 4]   64 	ld	e,c
   0029 16 00         [ 7]   65 	ld	d,#0x00
   002B 6B            [ 4]   66 	ld	l, e
   002C 62            [ 4]   67 	ld	h, d
   002D 29            [11]   68 	add	hl, hl
   002E 29            [11]   69 	add	hl, hl
   002F 29            [11]   70 	add	hl, hl
   0030 F5            [11]   71 	push	af
   0031 DD 7E 06      [19]   72 	ld	a,6 (ix)
   0034 DD 77 F8      [19]   73 	ld	-8 (ix),a
   0037 DD 7E 07      [19]   74 	ld	a,7 (ix)
   003A DD 77 F9      [19]   75 	ld	-7 (ix),a
   003D DD 7E 08      [19]   76 	ld	a,8 (ix)
   0040 DD 77 FA      [19]   77 	ld	-6 (ix),a
   0043 DD 7E 09      [19]   78 	ld	a,9 (ix)
   0046 DD 77 FB      [19]   79 	ld	-5 (ix),a
   0049 DD 7E 0A      [19]   80 	ld	a,10 (ix)
   004C DD 77 FC      [19]   81 	ld	-4 (ix),a
   004F DD 7E 0B      [19]   82 	ld	a,11 (ix)
   0052 DD 77 FD      [19]   83 	ld	-3 (ix),a
   0055 DD 7E 0C      [19]   84 	ld	a,12 (ix)
   0058 DD 77 FE      [19]   85 	ld	-2 (ix),a
   005B DD 7E 0D      [19]   86 	ld	a,13 (ix)
   005E DD 77 FF      [19]   87 	ld	-1 (ix),a
   0061 F1            [10]   88 	pop	af
   0062 2C            [ 4]   89 	inc	l
   0063 18 20         [12]   90 	jr	00129$
   0065                      91 00128$:
   0065 DD CB FF 2E   [23]   92 	sra	-1 (ix)
   0069 DD CB FE 1E   [23]   93 	rr	-2 (ix)
   006D DD CB FD 1E   [23]   94 	rr	-3 (ix)
   0071 DD CB FC 1E   [23]   95 	rr	-4 (ix)
   0075 DD CB FB 1E   [23]   96 	rr	-5 (ix)
   0079 DD CB FA 1E   [23]   97 	rr	-6 (ix)
   007D DD CB F9 1E   [23]   98 	rr	-7 (ix)
   0081 DD CB F8 1E   [23]   99 	rr	-8 (ix)
   0085                     100 00129$:
   0085 2D            [ 4]  101 	dec	l
   0086 20 DD         [12]  102 	jr	NZ,00128$
   0088 DD 46 F8      [19]  103 	ld	b,-8 (ix)
                            104 ;../_mullonglong.c:43: for(j = 0; (i + j) < sizeof (long long); j++)
   008B DD 36 ED 00   [19]  105 	ld	-19 (ix),#0x00
   008F                     106 00104$:
   008F DD 6E ED      [19]  107 	ld	l,-19 (ix)
   0092 26 00         [ 7]  108 	ld	h,#0x00
   0094 7D            [ 4]  109 	ld	a,l
   0095 83            [ 4]  110 	add	a, e
   0096 DD 77 F6      [19]  111 	ld	-10 (ix),a
   0099 7C            [ 4]  112 	ld	a,h
   009A 8A            [ 4]  113 	adc	a, d
   009B DD 77 F7      [19]  114 	ld	-9 (ix),a
   009E DD 7E F6      [19]  115 	ld	a,-10 (ix)
   00A1 D6 08         [ 7]  116 	sub	a, #0x08
   00A3 DD 7E F7      [19]  117 	ld	a,-9 (ix)
   00A6 17            [ 4]  118 	rla
   00A7 3F            [ 4]  119 	ccf
   00A8 1F            [ 4]  120 	rra
   00A9 DE 80         [ 7]  121 	sbc	a, #0x80
   00AB D2rB9r01      [10]  122 	jp	NC,00107$
                            123 ;../_mullonglong.c:45: unsigned char r = lr >> (j * 8);
   00AE 29            [11]  124 	add	hl, hl
   00AF 29            [11]  125 	add	hl, hl
   00B0 29            [11]  126 	add	hl, hl
   00B1 F5            [11]  127 	push	af
   00B2 DD 7E 0E      [19]  128 	ld	a,14 (ix)
   00B5 DD 77 F8      [19]  129 	ld	-8 (ix),a
   00B8 DD 7E 0F      [19]  130 	ld	a,15 (ix)
   00BB DD 77 F9      [19]  131 	ld	-7 (ix),a
   00BE DD 7E 10      [19]  132 	ld	a,16 (ix)
   00C1 DD 77 FA      [19]  133 	ld	-6 (ix),a
   00C4 DD 7E 11      [19]  134 	ld	a,17 (ix)
   00C7 DD 77 FB      [19]  135 	ld	-5 (ix),a
   00CA DD 7E 12      [19]  136 	ld	a,18 (ix)
   00CD DD 77 FC      [19]  137 	ld	-4 (ix),a
   00D0 DD 7E 13      [19]  138 	ld	a,19 (ix)
   00D3 DD 77 FD      [19]  139 	ld	-3 (ix),a
   00D6 DD 7E 14      [19]  140 	ld	a,20 (ix)
   00D9 DD 77 FE      [19]  141 	ld	-2 (ix),a
   00DC DD 7E 15      [19]  142 	ld	a,21 (ix)
   00DF DD 77 FF      [19]  143 	ld	-1 (ix),a
   00E2 F1            [10]  144 	pop	af
   00E3 2C            [ 4]  145 	inc	l
   00E4 18 20         [12]  146 	jr	00131$
   00E6                     147 00130$:
   00E6 DD CB FF 2E   [23]  148 	sra	-1 (ix)
   00EA DD CB FE 1E   [23]  149 	rr	-2 (ix)
   00EE DD CB FD 1E   [23]  150 	rr	-3 (ix)
   00F2 DD CB FC 1E   [23]  151 	rr	-4 (ix)
   00F6 DD CB FB 1E   [23]  152 	rr	-5 (ix)
   00FA DD CB FA 1E   [23]  153 	rr	-6 (ix)
   00FE DD CB F9 1E   [23]  154 	rr	-7 (ix)
   0102 DD CB F8 1E   [23]  155 	rr	-8 (ix)
   0106                     156 00131$:
   0106 2D            [ 4]  157 	dec	l
   0107 20 DD         [12]  158 	jr	NZ,00130$
   0109 DD 66 F8      [19]  159 	ld	h,-8 (ix)
                            160 ;../_mullonglong.c:46: ret += (unsigned long long)((unsigned short)(l * r)) << ((i + j) * 8);
   010C D5            [11]  161 	push	de
   010D C5            [11]  162 	push	bc
   010E 58            [ 4]  163 	ld	e,b
   010F 2E 00         [ 7]  164 	ld	l, #0x00
   0111 55            [ 4]  165 	ld	d, l
   0112 06 08         [ 7]  166 	ld	b, #0x08
   0114                     167 00132$:
   0114 29            [11]  168 	add	hl,hl
   0115 30 01         [12]  169 	jr	NC,00133$
   0117 19            [11]  170 	add	hl,de
   0118                     171 00133$:
   0118 10 FA         [13]  172 	djnz	00132$
   011A C1            [10]  173 	pop	bc
   011B D1            [10]  174 	pop	de
   011C DD 75 F8      [19]  175 	ld	-8 (ix),l
   011F DD 74 F9      [19]  176 	ld	-7 (ix),h
   0122 DD 36 FA 00   [19]  177 	ld	-6 (ix),#0x00
   0126 DD 36 FB 00   [19]  178 	ld	-5 (ix),#0x00
   012A DD 36 FC 00   [19]  179 	ld	-4 (ix),#0x00
   012E DD 36 FD 00   [19]  180 	ld	-3 (ix),#0x00
   0132 DD 36 FE 00   [19]  181 	ld	-2 (ix),#0x00
   0136 DD 36 FF 00   [19]  182 	ld	-1 (ix),#0x00
   013A DD 6E F6      [19]  183 	ld	l,-10 (ix)
   013D DD 66 F7      [19]  184 	ld	h,-9 (ix)
   0140 29            [11]  185 	add	hl, hl
   0141 29            [11]  186 	add	hl, hl
   0142 29            [11]  187 	add	hl, hl
   0143 F5            [11]  188 	push	af
   0144 F1            [10]  189 	pop	af
   0145 2C            [ 4]  190 	inc	l
   0146 18 20         [12]  191 	jr	00135$
   0148                     192 00134$:
   0148 DD CB F8 26   [23]  193 	sla	-8 (ix)
   014C DD CB F9 16   [23]  194 	rl	-7 (ix)
   0150 DD CB FA 16   [23]  195 	rl	-6 (ix)
   0154 DD CB FB 16   [23]  196 	rl	-5 (ix)
   0158 DD CB FC 16   [23]  197 	rl	-4 (ix)
   015C DD CB FD 16   [23]  198 	rl	-3 (ix)
   0160 DD CB FE 16   [23]  199 	rl	-2 (ix)
   0164 DD CB FF 16   [23]  200 	rl	-1 (ix)
   0168                     201 00135$:
   0168 2D            [ 4]  202 	dec	l
   0169 20 DD         [12]  203 	jr	NZ,00134$
   016B DD 7E EE      [19]  204 	ld	a,-18 (ix)
   016E DD 86 F8      [19]  205 	add	a, -8 (ix)
   0171 DD 77 EE      [19]  206 	ld	-18 (ix),a
   0174 DD 7E EF      [19]  207 	ld	a,-17 (ix)
   0177 DD 8E F9      [19]  208 	adc	a, -7 (ix)
   017A DD 77 EF      [19]  209 	ld	-17 (ix),a
   017D DD 7E F0      [19]  210 	ld	a,-16 (ix)
   0180 DD 8E FA      [19]  211 	adc	a, -6 (ix)
   0183 DD 77 F0      [19]  212 	ld	-16 (ix),a
   0186 DD 7E F1      [19]  213 	ld	a,-15 (ix)
   0189 DD 8E FB      [19]  214 	adc	a, -5 (ix)
   018C DD 77 F1      [19]  215 	ld	-15 (ix),a
   018F DD 7E F2      [19]  216 	ld	a,-14 (ix)
   0192 DD 8E FC      [19]  217 	adc	a, -4 (ix)
   0195 DD 77 F2      [19]  218 	ld	-14 (ix),a
   0198 DD 7E F3      [19]  219 	ld	a,-13 (ix)
   019B DD 8E FD      [19]  220 	adc	a, -3 (ix)
   019E DD 77 F3      [19]  221 	ld	-13 (ix),a
   01A1 DD 7E F4      [19]  222 	ld	a,-12 (ix)
   01A4 DD 8E FE      [19]  223 	adc	a, -2 (ix)
   01A7 DD 77 F4      [19]  224 	ld	-12 (ix),a
   01AA DD 7E F5      [19]  225 	ld	a,-11 (ix)
   01AD DD 8E FF      [19]  226 	adc	a, -1 (ix)
   01B0 DD 77 F5      [19]  227 	ld	-11 (ix),a
                            228 ;../_mullonglong.c:43: for(j = 0; (i + j) < sizeof (long long); j++)
   01B3 DD 34 ED      [23]  229 	inc	-19 (ix)
   01B6 C3r8Fr00      [10]  230 	jp	00104$
   01B9                     231 00107$:
                            232 ;../_mullonglong.c:40: for (i = 0; i < sizeof (long long); i++)
   01B9 0C            [ 4]  233 	inc	c
   01BA 79            [ 4]  234 	ld	a,c
   01BB D6 08         [ 7]  235 	sub	a, #0x08
   01BD DAr28r00      [10]  236 	jp	C,00106$
                            237 ;../_mullonglong.c:50: return(ret);
   01C0 21 17 00      [10]  238 	ld	hl, #23
   01C3 39            [11]  239 	add	hl, sp
   01C4 5E            [ 7]  240 	ld	e, (hl)
   01C5 23            [ 6]  241 	inc	hl
   01C6 56            [ 7]  242 	ld	d, (hl)
   01C7 21 01 00      [10]  243 	ld	hl, #1
   01CA 39            [11]  244 	add	hl, sp
   01CB 01 08 00      [10]  245 	ld	bc, #8
   01CE ED B0         [21]  246 	ldir
   01D0 DD F9         [10]  247 	ld	sp, ix
   01D2 DD E1         [14]  248 	pop	ix
   01D4 C9            [10]  249 	ret
                            250 	.area _HOME
                            251 ;--------------------------------------------------------
                            252 ; code
                            253 ;--------------------------------------------------------
                            254 	.area _CODE
                            255 	.area _CODE
                            256 	.area _INITIALIZER
                            257 	.area _CABS (ABS)
