                              1 ;--------------------------------------------------------
                              2 ; File Created by SDCC : free open source ANSI-C Compiler
                              3 ; Version 3.5.0 #9253 (Apr  4 2022) (Linux)
                              4 ; This file was generated Mon Apr  4 14:15:24 2022
                              5 ;--------------------------------------------------------
                              6 	.module sincoshf
                              7 	.optsdcc -mz80
                              8 	
                              9 ;--------------------------------------------------------
                             10 ; Public variables in this module
                             11 ;--------------------------------------------------------
                             12 	.globl _sincoshf
                             13 	.globl _expf
                             14 ;--------------------------------------------------------
                             15 ; special function registers
                             16 ;--------------------------------------------------------
                             17 ;--------------------------------------------------------
                             18 ; ram data
                             19 ;--------------------------------------------------------
                             20 	.area _DATA
                             21 ;--------------------------------------------------------
                             22 ; ram data
                             23 ;--------------------------------------------------------
                             24 	.area _INITIALIZED
                             25 ;--------------------------------------------------------
                             26 ; absolute external ram data
                             27 ;--------------------------------------------------------
                             28 	.area _DABS (ABS)
                             29 ;--------------------------------------------------------
                             30 ; global & static initialisations
                             31 ;--------------------------------------------------------
                             32 	.area _HOME
                             33 	.area _GSINIT
                             34 	.area _GSFINAL
                             35 	.area _GSINIT
                             36 ;--------------------------------------------------------
                             37 ; Home
                             38 ;--------------------------------------------------------
                             39 	.area _HOME
                             40 	.area _HOME
                             41 ;--------------------------------------------------------
                             42 ; code
                             43 ;--------------------------------------------------------
                             44 	.area _CODE
                             45 ;../sincoshf.c:56: float sincoshf(float x, bool iscosh)
                             46 ;	---------------------------------
                             47 ; Function sincoshf
                             48 ; ---------------------------------
   0000                      49 _sincoshf::
   0000 DD E5         [15]   50 	push	ix
   0002 DD 21 00 00   [14]   51 	ld	ix,#0
   0006 DD 39         [15]   52 	add	ix,sp
   0008 21 EE FF      [10]   53 	ld	hl,#-18
   000B 39            [11]   54 	add	hl,sp
   000C F9            [ 6]   55 	ld	sp,hl
                             56 ;../sincoshf.c:62: else { y=x;  sign=0; }
   000D 21 09 00      [10]   57 	ld	hl, #9
   0010 39            [11]   58 	add	hl, sp
   0011 EB            [ 4]   59 	ex	de, hl
   0012 21 16 00      [10]   60 	ld	hl, #22
   0015 39            [11]   61 	add	hl, sp
   0016 01 04 00      [10]   62 	ld	bc, #4
   0019 ED B0         [21]   63 	ldir
                             64 ;../sincoshf.c:61: if (x<0.0) { y=-x; sign=1; }
   001B 21 00 00      [10]   65 	ld	hl,#0x0000
   001E E5            [11]   66 	push	hl
   001F 21 00 00      [10]   67 	ld	hl,#0x0000
   0022 E5            [11]   68 	push	hl
   0023 DD 6E 06      [19]   69 	ld	l,6 (ix)
   0026 DD 66 07      [19]   70 	ld	h,7 (ix)
   0029 E5            [11]   71 	push	hl
   002A DD 6E 04      [19]   72 	ld	l,4 (ix)
   002D DD 66 05      [19]   73 	ld	h,5 (ix)
   0030 E5            [11]   74 	push	hl
   0031 CDr00r00      [17]   75 	call	___fslt
   0034 F1            [10]   76 	pop	af
   0035 F1            [10]   77 	pop	af
   0036 F1            [10]   78 	pop	af
   0037 F1            [10]   79 	pop	af
   0038 7D            [ 4]   80 	ld	a, l
   0039 B7            [ 4]   81 	or	a, a
   003A 28 15         [12]   82 	jr	Z,00102$
   003C DD 7E 07      [19]   83 	ld	a,7 (ix)
   003F EE 80         [ 7]   84 	xor	a,#0x80
   0041 57            [ 4]   85 	ld	d,a
   0042 DD 4E 04      [19]   86 	ld	c,4 (ix)
   0045 DD 46 05      [19]   87 	ld	b,5 (ix)
   0048 DD 5E 06      [19]   88 	ld	e,6 (ix)
   004B DD 36 EE 01   [19]   89 	ld	-18 (ix),#0x01
   004F 18 10         [12]   90 	jr	00103$
   0051                      91 00102$:
                             92 ;../sincoshf.c:62: else { y=x;  sign=0; }
   0051 DD 4E F7      [19]   93 	ld	c,-9 (ix)
   0054 DD 46 F8      [19]   94 	ld	b,-8 (ix)
   0057 DD 5E F9      [19]   95 	ld	e,-7 (ix)
   005A DD 56 FA      [19]   96 	ld	d,-6 (ix)
   005D DD 36 EE 00   [19]   97 	ld	-18 (ix),#0x00
   0061                      98 00103$:
                             99 ;../sincoshf.c:64: if ((y>1.0) || iscosh)
   0061 C5            [11]  100 	push	bc
   0062 D5            [11]  101 	push	de
   0063 21 80 3F      [10]  102 	ld	hl,#0x3F80
   0066 E5            [11]  103 	push	hl
   0067 21 00 00      [10]  104 	ld	hl,#0x0000
   006A E5            [11]  105 	push	hl
   006B D5            [11]  106 	push	de
   006C C5            [11]  107 	push	bc
   006D CDr00r00      [17]  108 	call	___fsgt
   0070 F1            [10]  109 	pop	af
   0071 F1            [10]  110 	pop	af
   0072 F1            [10]  111 	pop	af
   0073 F1            [10]  112 	pop	af
   0074 DD 75 FB      [19]  113 	ld	-5 (ix),l
   0077 D1            [10]  114 	pop	de
   0078 C1            [10]  115 	pop	bc
   0079 DD 7E FB      [19]  116 	ld	a,-5 (ix)
   007C B7            [ 4]  117 	or	a, a
   007D 20 07         [12]  118 	jr	NZ,00117$
   007F DD CB 08 46   [20]  119 	bit	0,8 (ix)
   0083 CArD1r01      [10]  120 	jp	Z,00118$
   0086                     121 00117$:
                            122 ;../sincoshf.c:66: if(y>YBAR)
   0086 C5            [11]  123 	push	bc
   0087 D5            [11]  124 	push	de
   0088 21 10 41      [10]  125 	ld	hl,#0x4110
   008B E5            [11]  126 	push	hl
   008C 21 00 00      [10]  127 	ld	hl,#0x0000
   008F E5            [11]  128 	push	hl
   0090 D5            [11]  129 	push	de
   0091 C5            [11]  130 	push	bc
   0092 CDr00r00      [17]  131 	call	___fsgt
   0095 F1            [10]  132 	pop	af
   0096 F1            [10]  133 	pop	af
   0097 F1            [10]  134 	pop	af
   0098 F1            [10]  135 	pop	af
   0099 DD 75 FB      [19]  136 	ld	-5 (ix),l
   009C D1            [10]  137 	pop	de
   009D C1            [10]  138 	pop	bc
   009E DD 7E FB      [19]  139 	ld	a,-5 (ix)
   00A1 B7            [ 4]  140 	or	a, a
   00A2 CAr3Ar01      [10]  141 	jp	Z,00110$
                            142 ;../sincoshf.c:68: w=y-K1;
   00A5 21 31 3F      [10]  143 	ld	hl,#0x3F31
   00A8 E5            [11]  144 	push	hl
   00A9 21 00 73      [10]  145 	ld	hl,#0x7300
   00AC E5            [11]  146 	push	hl
   00AD D5            [11]  147 	push	de
   00AE C5            [11]  148 	push	bc
   00AF CDr00r00      [17]  149 	call	___fssub
   00B2 F1            [10]  150 	pop	af
   00B3 F1            [10]  151 	pop	af
   00B4 F1            [10]  152 	pop	af
   00B5 F1            [10]  153 	pop	af
   00B6 4D            [ 4]  154 	ld	c,l
   00B7 44            [ 4]  155 	ld	b,h
                            156 ;../sincoshf.c:69: if (w>WMAX)
   00B8 C5            [11]  157 	push	bc
   00B9 D5            [11]  158 	push	de
   00BA 21 33 42      [10]  159 	ld	hl,#0x4233
   00BD E5            [11]  160 	push	hl
   00BE 21 CF BD      [10]  161 	ld	hl,#0xBDCF
   00C1 E5            [11]  162 	push	hl
   00C2 D5            [11]  163 	push	de
   00C3 C5            [11]  164 	push	bc
   00C4 CDr00r00      [17]  165 	call	___fsgt
   00C7 F1            [10]  166 	pop	af
   00C8 F1            [10]  167 	pop	af
   00C9 F1            [10]  168 	pop	af
   00CA F1            [10]  169 	pop	af
   00CB 7D            [ 4]  170 	ld	a,l
   00CC D1            [10]  171 	pop	de
   00CD C1            [10]  172 	pop	bc
   00CE B7            [ 4]  173 	or	a, a
   00CF 28 19         [12]  174 	jr	Z,00105$
                            175 ;../sincoshf.c:71: errno=ERANGE;
   00D1 21 22 00      [10]  176 	ld	hl,#0x0022
   00D4 22r00r00      [16]  177 	ld	(_errno),hl
                            178 ;../sincoshf.c:72: z=HUGE_VALF;
   00D7 DD 36 FC FF   [19]  179 	ld	-4 (ix),#0xFF
   00DB DD 36 FD FF   [19]  180 	ld	-3 (ix),#0xFF
   00DF DD 36 FE 7F   [19]  181 	ld	-2 (ix),#0x7F
   00E3 DD 36 FF 7F   [19]  182 	ld	-1 (ix),#0x7F
   00E7 C3rBFr01      [10]  183 	jp	00111$
   00EA                     184 00105$:
                            185 ;../sincoshf.c:76: z=expf(w);
   00EA D5            [11]  186 	push	de
   00EB C5            [11]  187 	push	bc
   00EC CDr00r00      [17]  188 	call	_expf
   00EF F1            [10]  189 	pop	af
   00F0 F1            [10]  190 	pop	af
   00F1 4D            [ 4]  191 	ld	c,l
   00F2 44            [ 4]  192 	ld	b,h
                            193 ;../sincoshf.c:77: z+=K3*z;
   00F3 C5            [11]  194 	push	bc
   00F4 D5            [11]  195 	push	de
   00F5 D5            [11]  196 	push	de
   00F6 C5            [11]  197 	push	bc
   00F7 21 68 37      [10]  198 	ld	hl,#0x3768
   00FA E5            [11]  199 	push	hl
   00FB 21 97 08      [10]  200 	ld	hl,#0x0897
   00FE E5            [11]  201 	push	hl
   00FF CDr00r00      [17]  202 	call	___fsmul
   0102 F1            [10]  203 	pop	af
   0103 F1            [10]  204 	pop	af
   0104 F1            [10]  205 	pop	af
   0105 F1            [10]  206 	pop	af
   0106 DD 72 F6      [19]  207 	ld	-10 (ix),d
   0109 DD 73 F5      [19]  208 	ld	-11 (ix),e
   010C DD 74 F4      [19]  209 	ld	-12 (ix),h
   010F DD 75 F3      [19]  210 	ld	-13 (ix),l
   0112 D1            [10]  211 	pop	de
   0113 C1            [10]  212 	pop	bc
   0114 DD 6E F5      [19]  213 	ld	l,-11 (ix)
   0117 DD 66 F6      [19]  214 	ld	h,-10 (ix)
   011A E5            [11]  215 	push	hl
   011B DD 6E F3      [19]  216 	ld	l,-13 (ix)
   011E DD 66 F4      [19]  217 	ld	h,-12 (ix)
   0121 E5            [11]  218 	push	hl
   0122 D5            [11]  219 	push	de
   0123 C5            [11]  220 	push	bc
   0124 CDr00r00      [17]  221 	call	___fsadd
   0127 F1            [10]  222 	pop	af
   0128 F1            [10]  223 	pop	af
   0129 F1            [10]  224 	pop	af
   012A F1            [10]  225 	pop	af
   012B DD 75 FC      [19]  226 	ld	-4 (ix),l
   012E DD 74 FD      [19]  227 	ld	-3 (ix),h
   0131 DD 73 FE      [19]  228 	ld	-2 (ix),e
   0134 DD 72 FF      [19]  229 	ld	-1 (ix),d
   0137 C3rBFr01      [10]  230 	jp	00111$
   013A                     231 00110$:
                            232 ;../sincoshf.c:82: z=expf(y);
   013A D5            [11]  233 	push	de
   013B C5            [11]  234 	push	bc
   013C CDr00r00      [17]  235 	call	_expf
   013F F1            [10]  236 	pop	af
   0140 F1            [10]  237 	pop	af
   0141 4D            [ 4]  238 	ld	c,l
   0142 44            [ 4]  239 	ld	b,h
                            240 ;../sincoshf.c:83: w=1.0/z;
   0143 C5            [11]  241 	push	bc
   0144 D5            [11]  242 	push	de
   0145 D5            [11]  243 	push	de
   0146 C5            [11]  244 	push	bc
   0147 21 80 3F      [10]  245 	ld	hl,#0x3F80
   014A E5            [11]  246 	push	hl
   014B 21 00 00      [10]  247 	ld	hl,#0x0000
   014E E5            [11]  248 	push	hl
   014F CDr00r00      [17]  249 	call	___fsdiv
   0152 F1            [10]  250 	pop	af
   0153 F1            [10]  251 	pop	af
   0154 F1            [10]  252 	pop	af
   0155 F1            [10]  253 	pop	af
   0156 DD 72 F6      [19]  254 	ld	-10 (ix),d
   0159 DD 73 F5      [19]  255 	ld	-11 (ix),e
   015C DD 74 F4      [19]  256 	ld	-12 (ix),h
   015F DD 75 F3      [19]  257 	ld	-13 (ix),l
   0162 D1            [10]  258 	pop	de
   0163 C1            [10]  259 	pop	bc
   0164 DD 7E F3      [19]  260 	ld	a,-13 (ix)
   0167 DD 77 EF      [19]  261 	ld	-17 (ix),a
   016A DD 7E F4      [19]  262 	ld	a,-12 (ix)
   016D DD 77 F0      [19]  263 	ld	-16 (ix),a
   0170 DD 7E F5      [19]  264 	ld	a,-11 (ix)
   0173 DD 77 F1      [19]  265 	ld	-15 (ix),a
   0176 DD 7E F6      [19]  266 	ld	a,-10 (ix)
   0179 DD 77 F2      [19]  267 	ld	-14 (ix),a
                            268 ;../sincoshf.c:84: if(!iscosh) w=-w;
   017C DD CB 08 46   [20]  269 	bit	0,8 (ix)
   0180 20 08         [12]  270 	jr	NZ,00108$
   0182 DD 7E F2      [19]  271 	ld	a,-14 (ix)
   0185 EE 80         [ 7]  272 	xor	a,#0x80
   0187 DD 77 F2      [19]  273 	ld	-14 (ix),a
   018A                     274 00108$:
                            275 ;../sincoshf.c:85: z=(z+w)*0.5;
   018A DD 6E F1      [19]  276 	ld	l,-15 (ix)
   018D DD 66 F2      [19]  277 	ld	h,-14 (ix)
   0190 E5            [11]  278 	push	hl
   0191 DD 6E EF      [19]  279 	ld	l,-17 (ix)
   0194 DD 66 F0      [19]  280 	ld	h,-16 (ix)
   0197 E5            [11]  281 	push	hl
   0198 D5            [11]  282 	push	de
   0199 C5            [11]  283 	push	bc
   019A CDr00r00      [17]  284 	call	___fsadd
   019D F1            [10]  285 	pop	af
   019E F1            [10]  286 	pop	af
   019F F1            [10]  287 	pop	af
   01A0 F1            [10]  288 	pop	af
   01A1 EB            [ 4]  289 	ex	de, hl
   01A2 E5            [11]  290 	push	hl
   01A3 D5            [11]  291 	push	de
   01A4 21 00 3F      [10]  292 	ld	hl,#0x3F00
   01A7 E5            [11]  293 	push	hl
   01A8 21 00 00      [10]  294 	ld	hl,#0x0000
   01AB E5            [11]  295 	push	hl
   01AC CDr00r00      [17]  296 	call	___fsmul
   01AF F1            [10]  297 	pop	af
   01B0 F1            [10]  298 	pop	af
   01B1 F1            [10]  299 	pop	af
   01B2 F1            [10]  300 	pop	af
   01B3 DD 75 FC      [19]  301 	ld	-4 (ix),l
   01B6 DD 74 FD      [19]  302 	ld	-3 (ix),h
   01B9 DD 73 FE      [19]  303 	ld	-2 (ix),e
   01BC DD 72 FF      [19]  304 	ld	-1 (ix),d
   01BF                     305 00111$:
                            306 ;../sincoshf.c:87: if(sign) z=-z;
   01BF DD CB EE 46   [20]  307 	bit	0,-18 (ix)
   01C3 CAr02r03      [10]  308 	jp	Z,00119$
   01C6 DD 7E FF      [19]  309 	ld	a,-1 (ix)
   01C9 EE 80         [ 7]  310 	xor	a,#0x80
   01CB DD 77 FF      [19]  311 	ld	-1 (ix),a
   01CE C3r02r03      [10]  312 	jp	00119$
   01D1                     313 00118$:
                            314 ;../sincoshf.c:91: if (y<EPS)
   01D1 21 80 39      [10]  315 	ld	hl,#0x3980
   01D4 E5            [11]  316 	push	hl
   01D5 21 00 00      [10]  317 	ld	hl,#0x0000
   01D8 E5            [11]  318 	push	hl
   01D9 D5            [11]  319 	push	de
   01DA C5            [11]  320 	push	bc
   01DB CDr00r00      [17]  321 	call	___fslt
   01DE F1            [10]  322 	pop	af
   01DF F1            [10]  323 	pop	af
   01E0 F1            [10]  324 	pop	af
   01E1 F1            [10]  325 	pop	af
   01E2 7D            [ 4]  326 	ld	a,l
   01E3 B7            [ 4]  327 	or	a, a
   01E4 28 11         [12]  328 	jr	Z,00115$
                            329 ;../sincoshf.c:92: z=x;
   01E6 21 0E 00      [10]  330 	ld	hl, #14
   01E9 39            [11]  331 	add	hl, sp
   01EA EB            [ 4]  332 	ex	de, hl
   01EB 21 09 00      [10]  333 	ld	hl, #9
   01EE 39            [11]  334 	add	hl, sp
   01EF 01 04 00      [10]  335 	ld	bc, #4
   01F2 ED B0         [21]  336 	ldir
   01F4 C3r02r03      [10]  337 	jp	00119$
   01F7                     338 00115$:
                            339 ;../sincoshf.c:95: z=x*x;
   01F7 DD 6E 06      [19]  340 	ld	l,6 (ix)
   01FA DD 66 07      [19]  341 	ld	h,7 (ix)
   01FD E5            [11]  342 	push	hl
   01FE DD 6E 04      [19]  343 	ld	l,4 (ix)
   0201 DD 66 05      [19]  344 	ld	h,5 (ix)
   0204 E5            [11]  345 	push	hl
   0205 DD 6E 06      [19]  346 	ld	l,6 (ix)
   0208 DD 66 07      [19]  347 	ld	h,7 (ix)
   020B E5            [11]  348 	push	hl
   020C DD 6E 04      [19]  349 	ld	l,4 (ix)
   020F DD 66 05      [19]  350 	ld	h,5 (ix)
   0212 E5            [11]  351 	push	hl
   0213 CDr00r00      [17]  352 	call	___fsmul
   0216 F1            [10]  353 	pop	af
   0217 F1            [10]  354 	pop	af
   0218 F1            [10]  355 	pop	af
   0219 F1            [10]  356 	pop	af
   021A DD 75 F3      [19]  357 	ld	-13 (ix),l
   021D DD 74 F4      [19]  358 	ld	-12 (ix),h
   0220 DD 73 F5      [19]  359 	ld	-11 (ix),e
   0223 DD 72 F6      [19]  360 	ld	-10 (ix),d
                            361 ;../sincoshf.c:96: z=x+x*z*P(z)/Q(z);
   0226 DD 6E F5      [19]  362 	ld	l,-11 (ix)
   0229 DD 66 F6      [19]  363 	ld	h,-10 (ix)
   022C E5            [11]  364 	push	hl
   022D DD 6E F3      [19]  365 	ld	l,-13 (ix)
   0230 DD 66 F4      [19]  366 	ld	h,-12 (ix)
   0233 E5            [11]  367 	push	hl
   0234 DD 6E 06      [19]  368 	ld	l,6 (ix)
   0237 DD 66 07      [19]  369 	ld	h,7 (ix)
   023A E5            [11]  370 	push	hl
   023B DD 6E 04      [19]  371 	ld	l,4 (ix)
   023E DD 66 05      [19]  372 	ld	h,5 (ix)
   0241 E5            [11]  373 	push	hl
   0242 CDr00r00      [17]  374 	call	___fsmul
   0245 F1            [10]  375 	pop	af
   0246 F1            [10]  376 	pop	af
   0247 F1            [10]  377 	pop	af
   0248 F1            [10]  378 	pop	af
   0249 DD 72 FA      [19]  379 	ld	-6 (ix),d
   024C DD 73 F9      [19]  380 	ld	-7 (ix),e
   024F DD 74 F8      [19]  381 	ld	-8 (ix),h
   0252 DD 75 F7      [19]  382 	ld	-9 (ix),l
   0255 DD 6E F5      [19]  383 	ld	l,-11 (ix)
   0258 DD 66 F6      [19]  384 	ld	h,-10 (ix)
   025B E5            [11]  385 	push	hl
   025C DD 6E F3      [19]  386 	ld	l,-13 (ix)
   025F DD 66 F4      [19]  387 	ld	h,-12 (ix)
   0262 E5            [11]  388 	push	hl
   0263 21 42 BE      [10]  389 	ld	hl,#0xBE42
   0266 E5            [11]  390 	push	hl
   0267 21 EA E6      [10]  391 	ld	hl,#0xE6EA
   026A E5            [11]  392 	push	hl
   026B CDr00r00      [17]  393 	call	___fsmul
   026E F1            [10]  394 	pop	af
   026F F1            [10]  395 	pop	af
   0270 F1            [10]  396 	pop	af
   0271 F1            [10]  397 	pop	af
   0272 4D            [ 4]  398 	ld	c,l
   0273 44            [ 4]  399 	ld	b,h
   0274 21 E4 C0      [10]  400 	ld	hl,#0xC0E4
   0277 E5            [11]  401 	push	hl
   0278 21 F0 69      [10]  402 	ld	hl,#0x69F0
   027B E5            [11]  403 	push	hl
   027C D5            [11]  404 	push	de
   027D C5            [11]  405 	push	bc
   027E CDr00r00      [17]  406 	call	___fsadd
   0281 F1            [10]  407 	pop	af
   0282 F1            [10]  408 	pop	af
   0283 F1            [10]  409 	pop	af
   0284 F1            [10]  410 	pop	af
   0285 EB            [ 4]  411 	ex	de, hl
   0286 E5            [11]  412 	push	hl
   0287 D5            [11]  413 	push	de
   0288 DD 6E F9      [19]  414 	ld	l,-7 (ix)
   028B DD 66 FA      [19]  415 	ld	h,-6 (ix)
   028E E5            [11]  416 	push	hl
   028F DD 6E F7      [19]  417 	ld	l,-9 (ix)
   0292 DD 66 F8      [19]  418 	ld	h,-8 (ix)
   0295 E5            [11]  419 	push	hl
   0296 CDr00r00      [17]  420 	call	___fsmul
   0299 F1            [10]  421 	pop	af
   029A F1            [10]  422 	pop	af
   029B F1            [10]  423 	pop	af
   029C F1            [10]  424 	pop	af
   029D DD 72 FA      [19]  425 	ld	-6 (ix),d
   02A0 DD 73 F9      [19]  426 	ld	-7 (ix),e
   02A3 DD 74 F8      [19]  427 	ld	-8 (ix),h
   02A6 DD 75 F7      [19]  428 	ld	-9 (ix),l
   02A9 21 2B C2      [10]  429 	ld	hl,#0xC22B
   02AC E5            [11]  430 	push	hl
   02AD 21 93 4F      [10]  431 	ld	hl,#0x4F93
   02B0 E5            [11]  432 	push	hl
   02B1 DD 6E F5      [19]  433 	ld	l,-11 (ix)
   02B4 DD 66 F6      [19]  434 	ld	h,-10 (ix)
   02B7 E5            [11]  435 	push	hl
   02B8 DD 6E F3      [19]  436 	ld	l,-13 (ix)
   02BB DD 66 F4      [19]  437 	ld	h,-12 (ix)
   02BE E5            [11]  438 	push	hl
   02BF CDr00r00      [17]  439 	call	___fsadd
   02C2 F1            [10]  440 	pop	af
   02C3 F1            [10]  441 	pop	af
   02C4 F1            [10]  442 	pop	af
   02C5 F1            [10]  443 	pop	af
   02C6 EB            [ 4]  444 	ex	de, hl
   02C7 E5            [11]  445 	push	hl
   02C8 D5            [11]  446 	push	de
   02C9 DD 6E F9      [19]  447 	ld	l,-7 (ix)
   02CC DD 66 FA      [19]  448 	ld	h,-6 (ix)
   02CF E5            [11]  449 	push	hl
   02D0 DD 6E F7      [19]  450 	ld	l,-9 (ix)
   02D3 DD 66 F8      [19]  451 	ld	h,-8 (ix)
   02D6 E5            [11]  452 	push	hl
   02D7 CDr00r00      [17]  453 	call	___fsdiv
   02DA F1            [10]  454 	pop	af
   02DB F1            [10]  455 	pop	af
   02DC F1            [10]  456 	pop	af
   02DD F1            [10]  457 	pop	af
   02DE EB            [ 4]  458 	ex	de, hl
   02DF E5            [11]  459 	push	hl
   02E0 D5            [11]  460 	push	de
   02E1 DD 6E 06      [19]  461 	ld	l,6 (ix)
   02E4 DD 66 07      [19]  462 	ld	h,7 (ix)
   02E7 E5            [11]  463 	push	hl
   02E8 DD 6E 04      [19]  464 	ld	l,4 (ix)
   02EB DD 66 05      [19]  465 	ld	h,5 (ix)
   02EE E5            [11]  466 	push	hl
   02EF CDr00r00      [17]  467 	call	___fsadd
   02F2 F1            [10]  468 	pop	af
   02F3 F1            [10]  469 	pop	af
   02F4 F1            [10]  470 	pop	af
   02F5 F1            [10]  471 	pop	af
   02F6 DD 75 FC      [19]  472 	ld	-4 (ix),l
   02F9 DD 74 FD      [19]  473 	ld	-3 (ix),h
   02FC DD 73 FE      [19]  474 	ld	-2 (ix),e
   02FF DD 72 FF      [19]  475 	ld	-1 (ix),d
   0302                     476 00119$:
                            477 ;../sincoshf.c:99: return z;
   0302 DD 6E FC      [19]  478 	ld	l,-4 (ix)
   0305 DD 66 FD      [19]  479 	ld	h,-3 (ix)
   0308 DD 5E FE      [19]  480 	ld	e,-2 (ix)
   030B DD 56 FF      [19]  481 	ld	d,-1 (ix)
   030E DD F9         [10]  482 	ld	sp, ix
   0310 DD E1         [14]  483 	pop	ix
   0312 C9            [10]  484 	ret
                            485 	.area _CODE
                            486 	.area _INITIALIZER
                            487 	.area _CABS (ABS)
