                              1 ;--------------------------------------------------------
                              2 ; File Created by SDCC : free open source ANSI-C Compiler
                              3 ; Version 3.5.0 #9253 (Apr  4 2022) (Linux)
                              4 ; This file was generated Mon Apr  4 14:10:36 2022
                              5 ;--------------------------------------------------------
                              6 	.cs08
                              7 	.module asincosf
                              8 	.optsdcc -ms08
                              9 	
                             10 	.area HOME    (CODE)
                             11 	.area GSINIT0 (CODE)
                             12 	.area GSINIT  (CODE)
                             13 	.area GSFINAL (CODE)
                             14 	.area CSEG    (CODE)
                             15 	.area XINIT   (CODE)
                             16 	.area CONST   (CODE)
                             17 	.area DSEG    (PAG)
                             18 	.area OSEG    (PAG, OVR)
                             19 	.area XSEG
                             20 	.area XISEG
                             21 ;--------------------------------------------------------
                             22 ; Public variables in this module
                             23 ;--------------------------------------------------------
                             24 	.globl _asincosf
                             25 	.globl _ldexpf
                             26 	.globl _fabsf
                             27 	.globl _sqrtf
                             28 	.globl _asincosf_PARM_2
                             29 	.globl _asincosf_PARM_1
                             30 ;--------------------------------------------------------
                             31 ; ram data
                             32 ;--------------------------------------------------------
                             33 	.area DSEG    (PAG)
   0000                      34 _asincosf_sloc0_1_0:
   0000                      35 	.ds 4
   0004                      36 _asincosf_sloc1_1_0:
   0004                      37 	.ds 4
                             38 ;--------------------------------------------------------
                             39 ; overlayable items in ram 
                             40 ;--------------------------------------------------------
                             41 ;--------------------------------------------------------
                             42 ; absolute ram data
                             43 ;--------------------------------------------------------
                             44 	.area IABS    (ABS)
                             45 	.area IABS    (ABS)
                             46 ;--------------------------------------------------------
                             47 ; absolute external ram data
                             48 ;--------------------------------------------------------
                             49 	.area XABS    (ABS)
                             50 ;--------------------------------------------------------
                             51 ; external initialized ram data
                             52 ;--------------------------------------------------------
                             53 	.area XISEG
                             54 ;--------------------------------------------------------
                             55 ; extended address mode data
                             56 ;--------------------------------------------------------
                             57 	.area XSEG
   0000                      58 _asincosf_PARM_1:
   0000                      59 	.ds 4
   0004                      60 _asincosf_PARM_2:
   0004                      61 	.ds 1
   0005                      62 _asincosf_y_1_24:
   0005                      63 	.ds 4
   0009                      64 _asincosf_g_1_24:
   0009                      65 	.ds 4
   000D                      66 _asincosf_r_1_24:
   000D                      67 	.ds 4
   0011                      68 _asincosf_quartPI_1_24:
   0011                      69 	.ds 1
                             70 ;--------------------------------------------------------
                             71 ; global & static initialisations
                             72 ;--------------------------------------------------------
                             73 	.area HOME    (CODE)
                             74 	.area GSINIT  (CODE)
                             75 	.area GSFINAL (CODE)
                             76 	.area GSINIT  (CODE)
                             77 ;--------------------------------------------------------
                             78 ; Home
                             79 ;--------------------------------------------------------
                             80 	.area HOME    (CODE)
                             81 	.area HOME    (CODE)
                             82 ;--------------------------------------------------------
                             83 ; code
                             84 ;--------------------------------------------------------
                             85 	.area CSEG    (CODE)
                             86 ;------------------------------------------------------------
                             87 ;Allocation info for local variables in function 'asincosf'
                             88 ;------------------------------------------------------------
                             89 ;sloc0                     Allocated with name '_asincosf_sloc0_1_0'
                             90 ;sloc1                     Allocated with name '_asincosf_sloc1_1_0'
                             91 ;x                         Allocated with name '_asincosf_PARM_1'
                             92 ;isacos                    Allocated with name '_asincosf_PARM_2'
                             93 ;y                         Allocated with name '_asincosf_y_1_24'
                             94 ;g                         Allocated with name '_asincosf_g_1_24'
                             95 ;r                         Allocated with name '_asincosf_r_1_24'
                             96 ;i                         Allocated to registers a 
                             97 ;quartPI                   Allocated with name '_asincosf_quartPI_1_24'
                             98 ;------------------------------------------------------------
                             99 ;../asincosf.c:47: float asincosf(float x, bool isacos)
                            100 ;	-----------------------------------------
                            101 ;	 function asincosf
                            102 ;	-----------------------------------------
                            103 ;	Register assignment might be sub-optimal.
                            104 ;	Stack space usage: 0 bytes.
   0000                     105 _asincosf:
                            106 ;../asincosf.c:51: bool quartPI = isacos;
   0000 C6r00r04      [ 4]  107 	lda	_asincosf_PARM_2
   0003 C7r00r11      [ 4]  108 	sta	_asincosf_quartPI_1_24
                            109 ;../asincosf.c:56: y = fabsf(x);
   0006 C6r00r03      [ 4]  110 	lda	(_asincosf_PARM_1 + 3)
   0009 87            [ 2]  111 	psha
   000A C6r00r02      [ 4]  112 	lda	(_asincosf_PARM_1 + 2)
   000D 87            [ 2]  113 	psha
   000E C6r00r01      [ 4]  114 	lda	(_asincosf_PARM_1 + 1)
   0011 87            [ 2]  115 	psha
   0012 C6r00r00      [ 4]  116 	lda	_asincosf_PARM_1
   0015 87            [ 2]  117 	psha
   0016 CDr00r00      [ 6]  118 	jsr	_fabsf
   0019 B7*03         [ 3]  119 	sta	*(_asincosf_sloc0_1_0 + 3)
   001B BF*02         [ 3]  120 	stx	*(_asincosf_sloc0_1_0 + 2)
   001D 4E*00*01      [ 6]  121 	mov	*___SDCC_hc08_ret2,*(_asincosf_sloc0_1_0 + 1)
   0020 4E*00*00      [ 6]  122 	mov	*___SDCC_hc08_ret3,*_asincosf_sloc0_1_0
   0023 A7 04         [ 2]  123 	ais	#4
   0025 B6*00         [ 3]  124 	lda	*_asincosf_sloc0_1_0
   0027 C7r00r05      [ 4]  125 	sta	_asincosf_y_1_24
   002A B6*01         [ 3]  126 	lda	*(_asincosf_sloc0_1_0 + 1)
   002C C7r00r06      [ 4]  127 	sta	(_asincosf_y_1_24 + 1)
   002F B6*02         [ 3]  128 	lda	*(_asincosf_sloc0_1_0 + 2)
   0031 C7r00r07      [ 4]  129 	sta	(_asincosf_y_1_24 + 2)
   0034 B6*03         [ 3]  130 	lda	*(_asincosf_sloc0_1_0 + 3)
   0036 C7r00r08      [ 4]  131 	sta	(_asincosf_y_1_24 + 3)
                            132 ;../asincosf.c:57: if (y < EPS)
   0039 B6*00         [ 3]  133 	lda	*_asincosf_sloc0_1_0
   003B C7r00r00      [ 4]  134 	sta	___fslt_PARM_1
   003E B6*01         [ 3]  135 	lda	*(_asincosf_sloc0_1_0 + 1)
   0040 C7r00r01      [ 4]  136 	sta	(___fslt_PARM_1 + 1)
   0043 B6*02         [ 3]  137 	lda	*(_asincosf_sloc0_1_0 + 2)
   0045 C7r00r02      [ 4]  138 	sta	(___fslt_PARM_1 + 2)
   0048 B6*03         [ 3]  139 	lda	*(_asincosf_sloc0_1_0 + 3)
   004A C7r00r03      [ 4]  140 	sta	(___fslt_PARM_1 + 3)
   004D 45 39 80      [ 3]  141 	ldhx	#0x3980
   0050 96r00r00      [ 5]  142 	sthx	___fslt_PARM_2
   0053 8C            [ 1]  143 	clrh
   0054 5F            [ 1]  144 	clrx
   0055 96r00r02      [ 5]  145 	sthx	(___fslt_PARM_2 + 2)
   0058 CDr00r00      [ 6]  146 	jsr	___fslt
   005B 4D            [ 1]  147 	tsta
   005C 27 17         [ 3]  148 	beq	00107$
                            149 ;../asincosf.c:59: r = y;
   005E B6*00         [ 3]  150 	lda	*_asincosf_sloc0_1_0
   0060 C7r00r0D      [ 4]  151 	sta	_asincosf_r_1_24
   0063 B6*01         [ 3]  152 	lda	*(_asincosf_sloc0_1_0 + 1)
   0065 C7r00r0E      [ 4]  153 	sta	(_asincosf_r_1_24 + 1)
   0068 B6*02         [ 3]  154 	lda	*(_asincosf_sloc0_1_0 + 2)
   006A C7r00r0F      [ 4]  155 	sta	(_asincosf_r_1_24 + 2)
   006D B6*03         [ 3]  156 	lda	*(_asincosf_sloc0_1_0 + 3)
   006F C7r00r10      [ 4]  157 	sta	(_asincosf_r_1_24 + 3)
   0072 CCr03r1D      [ 4]  158 	jmp	00108$
   0075                     159 00107$:
                            160 ;../asincosf.c:63: if (y > 0.5)
   0075 B6*00         [ 3]  161 	lda	*_asincosf_sloc0_1_0
   0077 C7r00r00      [ 4]  162 	sta	___fsgt_PARM_1
   007A B6*01         [ 3]  163 	lda	*(_asincosf_sloc0_1_0 + 1)
   007C C7r00r01      [ 4]  164 	sta	(___fsgt_PARM_1 + 1)
   007F B6*02         [ 3]  165 	lda	*(_asincosf_sloc0_1_0 + 2)
   0081 C7r00r02      [ 4]  166 	sta	(___fsgt_PARM_1 + 2)
   0084 B6*03         [ 3]  167 	lda	*(_asincosf_sloc0_1_0 + 3)
   0086 C7r00r03      [ 4]  168 	sta	(___fsgt_PARM_1 + 3)
   0089 45 3F 00      [ 3]  169 	ldhx	#0x3F00
   008C 96r00r00      [ 5]  170 	sthx	___fsgt_PARM_2
   008F 8C            [ 1]  171 	clrh
   0090 96r00r02      [ 5]  172 	sthx	(___fsgt_PARM_2 + 2)
   0093 CDr00r00      [ 6]  173 	jsr	___fsgt
   0096 4D            [ 1]  174 	tsta
   0097 26 03         [ 3]  175 	bne	00144$
   0099 CCr01r97      [ 4]  176 	jmp	00104$
   009C                     177 00144$:
                            178 ;../asincosf.c:65: quartPI = !isacos;
   009C C6r00r11      [ 4]  179 	lda	_asincosf_quartPI_1_24
   009F A8 01         [ 2]  180 	eor	#0x01
   00A1 C7r00r11      [ 4]  181 	sta	_asincosf_quartPI_1_24
                            182 ;../asincosf.c:66: if (y > 1.0)
   00A4 B6*00         [ 3]  183 	lda	*_asincosf_sloc0_1_0
   00A6 C7r00r00      [ 4]  184 	sta	___fsgt_PARM_1
   00A9 B6*01         [ 3]  185 	lda	*(_asincosf_sloc0_1_0 + 1)
   00AB C7r00r01      [ 4]  186 	sta	(___fsgt_PARM_1 + 1)
   00AE B6*02         [ 3]  187 	lda	*(_asincosf_sloc0_1_0 + 2)
   00B0 C7r00r02      [ 4]  188 	sta	(___fsgt_PARM_1 + 2)
   00B3 B6*03         [ 3]  189 	lda	*(_asincosf_sloc0_1_0 + 3)
   00B5 C7r00r03      [ 4]  190 	sta	(___fsgt_PARM_1 + 3)
   00B8 45 3F 80      [ 3]  191 	ldhx	#0x3F80
   00BB 96r00r00      [ 5]  192 	sthx	___fsgt_PARM_2
   00BE 8C            [ 1]  193 	clrh
   00BF 5F            [ 1]  194 	clrx
   00C0 96r00r02      [ 5]  195 	sthx	(___fsgt_PARM_2 + 2)
   00C3 CDr00r00      [ 6]  196 	jsr	___fsgt
   00C6 4D            [ 1]  197 	tsta
   00C7 27 0D         [ 3]  198 	beq	00102$
                            199 ;../asincosf.c:68: errno = EDOM;
   00C9 45 00 21      [ 3]  200 	ldhx	#0x0021
   00CC 96r00r00      [ 5]  201 	sthx	_errno
                            202 ;../asincosf.c:69: return 0.0;
   00CF 4F            [ 1]  203 	clra
   00D0 97            [ 1]  204 	tax
   00D1 B7*00         [ 3]  205 	sta	*___SDCC_hc08_ret2
   00D3 B7*00         [ 3]  206 	sta	*___SDCC_hc08_ret3
   00D5 81            [ 6]  207 	rts
   00D6                     208 00102$:
                            209 ;../asincosf.c:71: g = (0.5 - y) + 0.5;
   00D6 45 3F 80      [ 3]  210 	ldhx	#0x3F80
   00D9 96r00r00      [ 5]  211 	sthx	___fssub_PARM_1
   00DC 8C            [ 1]  212 	clrh
   00DD 5F            [ 1]  213 	clrx
   00DE 96r00r02      [ 5]  214 	sthx	(___fssub_PARM_1 + 2)
   00E1 B6*00         [ 3]  215 	lda	*_asincosf_sloc0_1_0
   00E3 C7r00r00      [ 4]  216 	sta	___fssub_PARM_2
   00E6 B6*01         [ 3]  217 	lda	*(_asincosf_sloc0_1_0 + 1)
   00E8 C7r00r01      [ 4]  218 	sta	(___fssub_PARM_2 + 1)
   00EB B6*02         [ 3]  219 	lda	*(_asincosf_sloc0_1_0 + 2)
   00ED C7r00r02      [ 4]  220 	sta	(___fssub_PARM_2 + 2)
   00F0 B6*03         [ 3]  221 	lda	*(_asincosf_sloc0_1_0 + 3)
   00F2 C7r00r03      [ 4]  222 	sta	(___fssub_PARM_2 + 3)
                            223 ;../asincosf.c:72: g = ldexpf(g, -1);
   00F5 CDr00r00      [ 6]  224 	jsr	___fssub
   00F8 C7r00r03      [ 4]  225 	sta	(_ldexpf_PARM_1 + 3)
   00FB CFr00r02      [ 4]  226 	stx	(_ldexpf_PARM_1 + 2)
   00FE B6*00         [ 3]  227 	lda	*___SDCC_hc08_ret2
   0100 C7r00r01      [ 4]  228 	sta	(_ldexpf_PARM_1 + 1)
   0103 B6*00         [ 3]  229 	lda	*___SDCC_hc08_ret3
   0105 C7r00r00      [ 4]  230 	sta	_ldexpf_PARM_1
   0108 45 FF FF      [ 3]  231 	ldhx	#0xFFFF
   010B 96r00r00      [ 5]  232 	sthx	_ldexpf_PARM_2
   010E CDr00r00      [ 6]  233 	jsr	_ldexpf
   0111 B7*07         [ 3]  234 	sta	*(_asincosf_sloc1_1_0 + 3)
   0113 BF*06         [ 3]  235 	stx	*(_asincosf_sloc1_1_0 + 2)
   0115 4E*00*05      [ 6]  236 	mov	*___SDCC_hc08_ret2,*(_asincosf_sloc1_1_0 + 1)
   0118 4E*00*04      [ 6]  237 	mov	*___SDCC_hc08_ret3,*_asincosf_sloc1_1_0
   011B B6*04         [ 3]  238 	lda	*_asincosf_sloc1_1_0
   011D C7r00r09      [ 4]  239 	sta	_asincosf_g_1_24
   0120 B6*05         [ 3]  240 	lda	*(_asincosf_sloc1_1_0 + 1)
   0122 C7r00r0A      [ 4]  241 	sta	(_asincosf_g_1_24 + 1)
   0125 B6*06         [ 3]  242 	lda	*(_asincosf_sloc1_1_0 + 2)
   0127 C7r00r0B      [ 4]  243 	sta	(_asincosf_g_1_24 + 2)
   012A B6*07         [ 3]  244 	lda	*(_asincosf_sloc1_1_0 + 3)
   012C C7r00r0C      [ 4]  245 	sta	(_asincosf_g_1_24 + 3)
                            246 ;../asincosf.c:73: y = sqrtf(g);
   012F B6*07         [ 3]  247 	lda	*(_asincosf_sloc1_1_0 + 3)
   0131 87            [ 2]  248 	psha
   0132 B6*06         [ 3]  249 	lda	*(_asincosf_sloc1_1_0 + 2)
   0134 87            [ 2]  250 	psha
   0135 B6*05         [ 3]  251 	lda	*(_asincosf_sloc1_1_0 + 1)
   0137 87            [ 2]  252 	psha
   0138 B6*04         [ 3]  253 	lda	*_asincosf_sloc1_1_0
   013A 87            [ 2]  254 	psha
   013B CDr00r00      [ 6]  255 	jsr	_sqrtf
   013E B7*07         [ 3]  256 	sta	*(_asincosf_sloc1_1_0 + 3)
   0140 BF*06         [ 3]  257 	stx	*(_asincosf_sloc1_1_0 + 2)
   0142 4E*00*05      [ 6]  258 	mov	*___SDCC_hc08_ret2,*(_asincosf_sloc1_1_0 + 1)
   0145 4E*00*04      [ 6]  259 	mov	*___SDCC_hc08_ret3,*_asincosf_sloc1_1_0
   0148 A7 04         [ 2]  260 	ais	#4
                            261 ;../asincosf.c:74: y = -(y + y);
   014A B6*04         [ 3]  262 	lda	*_asincosf_sloc1_1_0
   014C C7r00r00      [ 4]  263 	sta	___fsadd_PARM_1
   014F B6*05         [ 3]  264 	lda	*(_asincosf_sloc1_1_0 + 1)
   0151 C7r00r01      [ 4]  265 	sta	(___fsadd_PARM_1 + 1)
   0154 B6*06         [ 3]  266 	lda	*(_asincosf_sloc1_1_0 + 2)
   0156 C7r00r02      [ 4]  267 	sta	(___fsadd_PARM_1 + 2)
   0159 B6*07         [ 3]  268 	lda	*(_asincosf_sloc1_1_0 + 3)
   015B C7r00r03      [ 4]  269 	sta	(___fsadd_PARM_1 + 3)
   015E B6*04         [ 3]  270 	lda	*_asincosf_sloc1_1_0
   0160 C7r00r00      [ 4]  271 	sta	___fsadd_PARM_2
   0163 B6*05         [ 3]  272 	lda	*(_asincosf_sloc1_1_0 + 1)
   0165 C7r00r01      [ 4]  273 	sta	(___fsadd_PARM_2 + 1)
   0168 B6*06         [ 3]  274 	lda	*(_asincosf_sloc1_1_0 + 2)
   016A C7r00r02      [ 4]  275 	sta	(___fsadd_PARM_2 + 2)
   016D B6*07         [ 3]  276 	lda	*(_asincosf_sloc1_1_0 + 3)
   016F C7r00r03      [ 4]  277 	sta	(___fsadd_PARM_2 + 3)
   0172 CDr00r00      [ 6]  278 	jsr	___fsadd
   0175 B7*07         [ 3]  279 	sta	*(_asincosf_sloc1_1_0 + 3)
   0177 BF*06         [ 3]  280 	stx	*(_asincosf_sloc1_1_0 + 2)
   0179 4E*00*05      [ 6]  281 	mov	*___SDCC_hc08_ret2,*(_asincosf_sloc1_1_0 + 1)
   017C 4E*00*04      [ 6]  282 	mov	*___SDCC_hc08_ret3,*_asincosf_sloc1_1_0
   017F B6*07         [ 3]  283 	lda	*(_asincosf_sloc1_1_0 + 3)
   0181 C7r00r08      [ 4]  284 	sta	(_asincosf_y_1_24 + 3)
   0184 B6*06         [ 3]  285 	lda	*(_asincosf_sloc1_1_0 + 2)
   0186 C7r00r07      [ 4]  286 	sta	(_asincosf_y_1_24 + 2)
   0189 B6*05         [ 3]  287 	lda	*(_asincosf_sloc1_1_0 + 1)
   018B C7r00r06      [ 4]  288 	sta	(_asincosf_y_1_24 + 1)
   018E B6*04         [ 3]  289 	lda	*_asincosf_sloc1_1_0
   0190 A8 80         [ 2]  290 	eor	#0x80
   0192 C7r00r05      [ 4]  291 	sta	_asincosf_y_1_24
   0195 20 3B         [ 3]  292 	bra	00105$
   0197                     293 00104$:
                            294 ;../asincosf.c:78: g = y * y;
   0197 B6*00         [ 3]  295 	lda	*_asincosf_sloc0_1_0
   0199 C7r00r00      [ 4]  296 	sta	___fsmul_PARM_1
   019C B6*01         [ 3]  297 	lda	*(_asincosf_sloc0_1_0 + 1)
   019E C7r00r01      [ 4]  298 	sta	(___fsmul_PARM_1 + 1)
   01A1 B6*02         [ 3]  299 	lda	*(_asincosf_sloc0_1_0 + 2)
   01A3 C7r00r02      [ 4]  300 	sta	(___fsmul_PARM_1 + 2)
   01A6 B6*03         [ 3]  301 	lda	*(_asincosf_sloc0_1_0 + 3)
   01A8 C7r00r03      [ 4]  302 	sta	(___fsmul_PARM_1 + 3)
   01AB B6*00         [ 3]  303 	lda	*_asincosf_sloc0_1_0
   01AD C7r00r00      [ 4]  304 	sta	___fsmul_PARM_2
   01B0 B6*01         [ 3]  305 	lda	*(_asincosf_sloc0_1_0 + 1)
   01B2 C7r00r01      [ 4]  306 	sta	(___fsmul_PARM_2 + 1)
   01B5 B6*02         [ 3]  307 	lda	*(_asincosf_sloc0_1_0 + 2)
   01B7 C7r00r02      [ 4]  308 	sta	(___fsmul_PARM_2 + 2)
   01BA B6*03         [ 3]  309 	lda	*(_asincosf_sloc0_1_0 + 3)
   01BC C7r00r03      [ 4]  310 	sta	(___fsmul_PARM_2 + 3)
   01BF CDr00r00      [ 6]  311 	jsr	___fsmul
   01C2 C7r00r0C      [ 4]  312 	sta	(_asincosf_g_1_24 + 3)
   01C5 CFr00r0B      [ 4]  313 	stx	(_asincosf_g_1_24 + 2)
   01C8 B6*00         [ 3]  314 	lda	*___SDCC_hc08_ret2
   01CA C7r00r0A      [ 4]  315 	sta	(_asincosf_g_1_24 + 1)
   01CD B6*00         [ 3]  316 	lda	*___SDCC_hc08_ret3
   01CF C7r00r09      [ 4]  317 	sta	_asincosf_g_1_24
   01D2                     318 00105$:
                            319 ;../asincosf.c:80: r = y + y * ((P(g) * g) / Q(g));
   01D2 45 BF 01      [ 3]  320 	ldhx	#0xBF01
   01D5 96r00r00      [ 5]  321 	sthx	___fsmul_PARM_1
   01D8 45 20 65      [ 3]  322 	ldhx	#0x2065
   01DB 96r00r02      [ 5]  323 	sthx	(___fsmul_PARM_1 + 2)
   01DE 32r00r09      [ 5]  324 	ldhx	_asincosf_g_1_24
   01E1 96r00r00      [ 5]  325 	sthx	___fsmul_PARM_2
   01E4 32r00r0B      [ 5]  326 	ldhx	(_asincosf_g_1_24 + 2)
   01E7 96r00r02      [ 5]  327 	sthx	(___fsmul_PARM_2 + 2)
   01EA CDr00r00      [ 6]  328 	jsr	___fsmul
   01ED C7r00r03      [ 4]  329 	sta	(___fsadd_PARM_1 + 3)
   01F0 CFr00r02      [ 4]  330 	stx	(___fsadd_PARM_1 + 2)
   01F3 B6*00         [ 3]  331 	lda	*___SDCC_hc08_ret2
   01F5 C7r00r01      [ 4]  332 	sta	(___fsadd_PARM_1 + 1)
   01F8 B6*00         [ 3]  333 	lda	*___SDCC_hc08_ret3
   01FA C7r00r00      [ 4]  334 	sta	___fsadd_PARM_1
   01FD 45 3F 6F      [ 3]  335 	ldhx	#0x3F6F
   0200 96r00r00      [ 5]  336 	sthx	___fsadd_PARM_2
   0203 45 16 6B      [ 3]  337 	ldhx	#0x166B
   0206 96r00r02      [ 5]  338 	sthx	(___fsadd_PARM_2 + 2)
   0209 CDr00r00      [ 6]  339 	jsr	___fsadd
   020C C7r00r03      [ 4]  340 	sta	(___fsmul_PARM_1 + 3)
   020F CFr00r02      [ 4]  341 	stx	(___fsmul_PARM_1 + 2)
   0212 B6*00         [ 3]  342 	lda	*___SDCC_hc08_ret2
   0214 C7r00r01      [ 4]  343 	sta	(___fsmul_PARM_1 + 1)
   0217 B6*00         [ 3]  344 	lda	*___SDCC_hc08_ret3
   0219 C7r00r00      [ 4]  345 	sta	___fsmul_PARM_1
   021C 32r00r09      [ 5]  346 	ldhx	_asincosf_g_1_24
   021F 96r00r00      [ 5]  347 	sthx	___fsmul_PARM_2
   0222 32r00r0B      [ 5]  348 	ldhx	(_asincosf_g_1_24 + 2)
   0225 96r00r02      [ 5]  349 	sthx	(___fsmul_PARM_2 + 2)
   0228 CDr00r00      [ 6]  350 	jsr	___fsmul
   022B B7*07         [ 3]  351 	sta	*(_asincosf_sloc1_1_0 + 3)
   022D BF*06         [ 3]  352 	stx	*(_asincosf_sloc1_1_0 + 2)
   022F 4E*00*05      [ 6]  353 	mov	*___SDCC_hc08_ret2,*(_asincosf_sloc1_1_0 + 1)
   0232 4E*00*04      [ 6]  354 	mov	*___SDCC_hc08_ret3,*_asincosf_sloc1_1_0
   0235 32r00r09      [ 5]  355 	ldhx	_asincosf_g_1_24
   0238 35*00         [ 4]  356 	sthx	*_asincosf_sloc0_1_0
   023A 32r00r0B      [ 5]  357 	ldhx	(_asincosf_g_1_24 + 2)
   023D 35*02         [ 4]  358 	sthx	*(_asincosf_sloc0_1_0 + 2)
   023F B6*00         [ 3]  359 	lda	*_asincosf_sloc0_1_0
   0241 C7r00r00      [ 4]  360 	sta	___fsadd_PARM_1
   0244 B6*01         [ 3]  361 	lda	*(_asincosf_sloc0_1_0 + 1)
   0246 C7r00r01      [ 4]  362 	sta	(___fsadd_PARM_1 + 1)
   0249 B6*02         [ 3]  363 	lda	*(_asincosf_sloc0_1_0 + 2)
   024B C7r00r02      [ 4]  364 	sta	(___fsadd_PARM_1 + 2)
   024E B6*03         [ 3]  365 	lda	*(_asincosf_sloc0_1_0 + 3)
   0250 C7r00r03      [ 4]  366 	sta	(___fsadd_PARM_1 + 3)
   0253 45 C0 B1      [ 3]  367 	ldhx	#0xC0B1
   0256 96r00r00      [ 5]  368 	sthx	___fsadd_PARM_2
   0259 45 8D 0B      [ 3]  369 	ldhx	#0x8D0B
   025C 96r00r02      [ 5]  370 	sthx	(___fsadd_PARM_2 + 2)
   025F CDr00r00      [ 6]  371 	jsr	___fsadd
   0262 C7r00r03      [ 4]  372 	sta	(___fsmul_PARM_1 + 3)
   0265 CFr00r02      [ 4]  373 	stx	(___fsmul_PARM_1 + 2)
   0268 B6*00         [ 3]  374 	lda	*___SDCC_hc08_ret2
   026A C7r00r01      [ 4]  375 	sta	(___fsmul_PARM_1 + 1)
   026D B6*00         [ 3]  376 	lda	*___SDCC_hc08_ret3
   026F C7r00r00      [ 4]  377 	sta	___fsmul_PARM_1
   0272 B6*00         [ 3]  378 	lda	*_asincosf_sloc0_1_0
   0274 C7r00r00      [ 4]  379 	sta	___fsmul_PARM_2
   0277 B6*01         [ 3]  380 	lda	*(_asincosf_sloc0_1_0 + 1)
   0279 C7r00r01      [ 4]  381 	sta	(___fsmul_PARM_2 + 1)
   027C B6*02         [ 3]  382 	lda	*(_asincosf_sloc0_1_0 + 2)
   027E C7r00r02      [ 4]  383 	sta	(___fsmul_PARM_2 + 2)
   0281 B6*03         [ 3]  384 	lda	*(_asincosf_sloc0_1_0 + 3)
   0283 C7r00r03      [ 4]  385 	sta	(___fsmul_PARM_2 + 3)
   0286 CDr00r00      [ 6]  386 	jsr	___fsmul
   0289 C7r00r03      [ 4]  387 	sta	(___fsadd_PARM_1 + 3)
   028C CFr00r02      [ 4]  388 	stx	(___fsadd_PARM_1 + 2)
   028F B6*00         [ 3]  389 	lda	*___SDCC_hc08_ret2
   0291 C7r00r01      [ 4]  390 	sta	(___fsadd_PARM_1 + 1)
   0294 B6*00         [ 3]  391 	lda	*___SDCC_hc08_ret3
   0296 C7r00r00      [ 4]  392 	sta	___fsadd_PARM_1
   0299 45 40 B3      [ 3]  393 	ldhx	#0x40B3
   029C 96r00r00      [ 5]  394 	sthx	___fsadd_PARM_2
   029F 45 50 F0      [ 3]  395 	ldhx	#0x50F0
   02A2 96r00r02      [ 5]  396 	sthx	(___fsadd_PARM_2 + 2)
   02A5 CDr00r00      [ 6]  397 	jsr	___fsadd
   02A8 C7r00r03      [ 4]  398 	sta	(___fsdiv_PARM_2 + 3)
   02AB CFr00r02      [ 4]  399 	stx	(___fsdiv_PARM_2 + 2)
   02AE B6*00         [ 3]  400 	lda	*___SDCC_hc08_ret2
   02B0 C7r00r01      [ 4]  401 	sta	(___fsdiv_PARM_2 + 1)
   02B3 B6*00         [ 3]  402 	lda	*___SDCC_hc08_ret3
   02B5 C7r00r00      [ 4]  403 	sta	___fsdiv_PARM_2
   02B8 B6*04         [ 3]  404 	lda	*_asincosf_sloc1_1_0
   02BA C7r00r00      [ 4]  405 	sta	___fsdiv_PARM_1
   02BD B6*05         [ 3]  406 	lda	*(_asincosf_sloc1_1_0 + 1)
   02BF C7r00r01      [ 4]  407 	sta	(___fsdiv_PARM_1 + 1)
   02C2 B6*06         [ 3]  408 	lda	*(_asincosf_sloc1_1_0 + 2)
   02C4 C7r00r02      [ 4]  409 	sta	(___fsdiv_PARM_1 + 2)
   02C7 B6*07         [ 3]  410 	lda	*(_asincosf_sloc1_1_0 + 3)
   02C9 C7r00r03      [ 4]  411 	sta	(___fsdiv_PARM_1 + 3)
   02CC CDr00r00      [ 6]  412 	jsr	___fsdiv
   02CF C7r00r03      [ 4]  413 	sta	(___fsmul_PARM_2 + 3)
   02D2 CFr00r02      [ 4]  414 	stx	(___fsmul_PARM_2 + 2)
   02D5 B6*00         [ 3]  415 	lda	*___SDCC_hc08_ret2
   02D7 C7r00r01      [ 4]  416 	sta	(___fsmul_PARM_2 + 1)
   02DA B6*00         [ 3]  417 	lda	*___SDCC_hc08_ret3
   02DC C7r00r00      [ 4]  418 	sta	___fsmul_PARM_2
   02DF 32r00r05      [ 5]  419 	ldhx	_asincosf_y_1_24
   02E2 96r00r00      [ 5]  420 	sthx	___fsmul_PARM_1
   02E5 32r00r07      [ 5]  421 	ldhx	(_asincosf_y_1_24 + 2)
   02E8 96r00r02      [ 5]  422 	sthx	(___fsmul_PARM_1 + 2)
   02EB CDr00r00      [ 6]  423 	jsr	___fsmul
   02EE C7r00r03      [ 4]  424 	sta	(___fsadd_PARM_2 + 3)
   02F1 CFr00r02      [ 4]  425 	stx	(___fsadd_PARM_2 + 2)
   02F4 B6*00         [ 3]  426 	lda	*___SDCC_hc08_ret2
   02F6 C7r00r01      [ 4]  427 	sta	(___fsadd_PARM_2 + 1)
   02F9 B6*00         [ 3]  428 	lda	*___SDCC_hc08_ret3
   02FB C7r00r00      [ 4]  429 	sta	___fsadd_PARM_2
   02FE 32r00r05      [ 5]  430 	ldhx	_asincosf_y_1_24
   0301 96r00r00      [ 5]  431 	sthx	___fsadd_PARM_1
   0304 32r00r07      [ 5]  432 	ldhx	(_asincosf_y_1_24 + 2)
   0307 96r00r02      [ 5]  433 	sthx	(___fsadd_PARM_1 + 2)
   030A CDr00r00      [ 6]  434 	jsr	___fsadd
   030D C7r00r10      [ 4]  435 	sta	(_asincosf_r_1_24 + 3)
   0310 CFr00r0F      [ 4]  436 	stx	(_asincosf_r_1_24 + 2)
   0313 B6*00         [ 3]  437 	lda	*___SDCC_hc08_ret2
   0315 C7r00r0E      [ 4]  438 	sta	(_asincosf_r_1_24 + 1)
   0318 B6*00         [ 3]  439 	lda	*___SDCC_hc08_ret3
   031A C7r00r0D      [ 4]  440 	sta	_asincosf_r_1_24
   031D                     441 00108$:
                            442 ;../asincosf.c:82: i = quartPI;
   031D C6r00r11      [ 4]  443 	lda	_asincosf_quartPI_1_24
                            444 ;../asincosf.c:85: if (x < 0.0)
   0320 32r00r00      [ 5]  445 	ldhx	_asincosf_PARM_1
   0323 96r00r00      [ 5]  446 	sthx	___fslt_PARM_1
   0326 32r00r02      [ 5]  447 	ldhx	(_asincosf_PARM_1 + 2)
   0329 96r00r02      [ 5]  448 	sthx	(___fslt_PARM_1 + 2)
   032C 8C            [ 1]  449 	clrh
   032D 5F            [ 1]  450 	clrx
   032E 96r00r00      [ 5]  451 	sthx	___fslt_PARM_2
   0331 96r00r02      [ 5]  452 	sthx	(___fslt_PARM_2 + 2)
                            453 ;../asincosf.c:86: r = (b[i] + r) + b[i];
   0334 87            [ 2]  454 	psha
   0335 CDr00r00      [ 6]  455 	jsr	___fslt
   0338 B7*04         [ 3]  456 	sta	*_asincosf_sloc1_1_0
   033A 86            [ 3]  457 	pula
   033B AE 04         [ 2]  458 	ldx	#0x04
   033D 42            [ 5]  459 	mul
   033E 89            [ 2]  460 	pshx
   033F 8A            [ 3]  461 	pulh
   0340 97            [ 1]  462 	tax
                            463 ;../asincosf.c:83: if (isacos)
   0341 C6r00r04      [ 4]  464 	lda	_asincosf_PARM_2
   0344 26 03         [ 3]  465 	bne	00146$
   0346 CCr04r2E      [ 4]  466 	jmp	00115$
   0349                     467 00146$:
                            468 ;../asincosf.c:85: if (x < 0.0)
   0349 3D*04         [ 4]  469 	tst	*_asincosf_sloc1_1_0
   034B 27 71         [ 3]  470 	beq	00110$
                            471 ;../asincosf.c:86: r = (b[i] + r) + b[i];
   034D D6r00r08      [ 4]  472 	lda	(_asincosf_b_1_24),x
   0350 B7*00         [ 3]  473 	sta	*_asincosf_sloc0_1_0
   0352 D6r00r09      [ 4]  474 	lda	(_asincosf_b_1_24+1),x
   0355 B7*01         [ 3]  475 	sta	*(_asincosf_sloc0_1_0 + 1)
   0357 D6r00r0A      [ 4]  476 	lda	(_asincosf_b_1_24+2),x
   035A B7*02         [ 3]  477 	sta	*(_asincosf_sloc0_1_0 + 2)
   035C D6r00r0B      [ 4]  478 	lda	(_asincosf_b_1_24+3),x
   035F B7*03         [ 3]  479 	sta	*(_asincosf_sloc0_1_0 + 3)
   0361 B6*00         [ 3]  480 	lda	*_asincosf_sloc0_1_0
   0363 C7r00r00      [ 4]  481 	sta	___fsadd_PARM_1
   0366 B6*01         [ 3]  482 	lda	*(_asincosf_sloc0_1_0 + 1)
   0368 C7r00r01      [ 4]  483 	sta	(___fsadd_PARM_1 + 1)
   036B B6*02         [ 3]  484 	lda	*(_asincosf_sloc0_1_0 + 2)
   036D C7r00r02      [ 4]  485 	sta	(___fsadd_PARM_1 + 2)
   0370 B6*03         [ 3]  486 	lda	*(_asincosf_sloc0_1_0 + 3)
   0372 C7r00r03      [ 4]  487 	sta	(___fsadd_PARM_1 + 3)
   0375 32r00r0D      [ 5]  488 	ldhx	_asincosf_r_1_24
   0378 96r00r00      [ 5]  489 	sthx	___fsadd_PARM_2
   037B 32r00r0F      [ 5]  490 	ldhx	(_asincosf_r_1_24 + 2)
   037E 96r00r02      [ 5]  491 	sthx	(___fsadd_PARM_2 + 2)
   0381 CDr00r00      [ 6]  492 	jsr	___fsadd
   0384 C7r00r03      [ 4]  493 	sta	(___fsadd_PARM_1 + 3)
   0387 CFr00r02      [ 4]  494 	stx	(___fsadd_PARM_1 + 2)
   038A B6*00         [ 3]  495 	lda	*___SDCC_hc08_ret2
   038C C7r00r01      [ 4]  496 	sta	(___fsadd_PARM_1 + 1)
   038F B6*00         [ 3]  497 	lda	*___SDCC_hc08_ret3
   0391 C7r00r00      [ 4]  498 	sta	___fsadd_PARM_1
   0394 B6*00         [ 3]  499 	lda	*_asincosf_sloc0_1_0
   0396 C7r00r00      [ 4]  500 	sta	___fsadd_PARM_2
   0399 B6*01         [ 3]  501 	lda	*(_asincosf_sloc0_1_0 + 1)
   039B C7r00r01      [ 4]  502 	sta	(___fsadd_PARM_2 + 1)
   039E B6*02         [ 3]  503 	lda	*(_asincosf_sloc0_1_0 + 2)
   03A0 C7r00r02      [ 4]  504 	sta	(___fsadd_PARM_2 + 2)
   03A3 B6*03         [ 3]  505 	lda	*(_asincosf_sloc0_1_0 + 3)
   03A5 C7r00r03      [ 4]  506 	sta	(___fsadd_PARM_2 + 3)
   03A8 CDr00r00      [ 6]  507 	jsr	___fsadd
   03AB C7r00r10      [ 4]  508 	sta	(_asincosf_r_1_24 + 3)
   03AE CFr00r0F      [ 4]  509 	stx	(_asincosf_r_1_24 + 2)
   03B1 B6*00         [ 3]  510 	lda	*___SDCC_hc08_ret2
   03B3 C7r00r0E      [ 4]  511 	sta	(_asincosf_r_1_24 + 1)
   03B6 B6*00         [ 3]  512 	lda	*___SDCC_hc08_ret3
   03B8 C7r00r0D      [ 4]  513 	sta	_asincosf_r_1_24
   03BB CCr04rA8      [ 4]  514 	jmp	00116$
   03BE                     515 00110$:
                            516 ;../asincosf.c:88: r = (a[i] - r) + a[i];
   03BE D6r00r00      [ 4]  517 	lda	(_asincosf_a_1_24),x
   03C1 B7*00         [ 3]  518 	sta	*_asincosf_sloc0_1_0
   03C3 D6r00r01      [ 4]  519 	lda	(_asincosf_a_1_24+1),x
   03C6 B7*01         [ 3]  520 	sta	*(_asincosf_sloc0_1_0 + 1)
   03C8 D6r00r02      [ 4]  521 	lda	(_asincosf_a_1_24+2),x
   03CB B7*02         [ 3]  522 	sta	*(_asincosf_sloc0_1_0 + 2)
   03CD D6r00r03      [ 4]  523 	lda	(_asincosf_a_1_24+3),x
   03D0 B7*03         [ 3]  524 	sta	*(_asincosf_sloc0_1_0 + 3)
   03D2 B6*00         [ 3]  525 	lda	*_asincosf_sloc0_1_0
   03D4 C7r00r00      [ 4]  526 	sta	___fssub_PARM_1
   03D7 B6*01         [ 3]  527 	lda	*(_asincosf_sloc0_1_0 + 1)
   03D9 C7r00r01      [ 4]  528 	sta	(___fssub_PARM_1 + 1)
   03DC B6*02         [ 3]  529 	lda	*(_asincosf_sloc0_1_0 + 2)
   03DE C7r00r02      [ 4]  530 	sta	(___fssub_PARM_1 + 2)
   03E1 B6*03         [ 3]  531 	lda	*(_asincosf_sloc0_1_0 + 3)
   03E3 C7r00r03      [ 4]  532 	sta	(___fssub_PARM_1 + 3)
   03E6 32r00r0D      [ 5]  533 	ldhx	_asincosf_r_1_24
   03E9 96r00r00      [ 5]  534 	sthx	___fssub_PARM_2
   03EC 32r00r0F      [ 5]  535 	ldhx	(_asincosf_r_1_24 + 2)
   03EF 96r00r02      [ 5]  536 	sthx	(___fssub_PARM_2 + 2)
   03F2 CDr00r00      [ 6]  537 	jsr	___fssub
   03F5 C7r00r03      [ 4]  538 	sta	(___fsadd_PARM_1 + 3)
   03F8 CFr00r02      [ 4]  539 	stx	(___fsadd_PARM_1 + 2)
   03FB B6*00         [ 3]  540 	lda	*___SDCC_hc08_ret2
   03FD C7r00r01      [ 4]  541 	sta	(___fsadd_PARM_1 + 1)
   0400 B6*00         [ 3]  542 	lda	*___SDCC_hc08_ret3
   0402 C7r00r00      [ 4]  543 	sta	___fsadd_PARM_1
   0405 B6*00         [ 3]  544 	lda	*_asincosf_sloc0_1_0
   0407 C7r00r00      [ 4]  545 	sta	___fsadd_PARM_2
   040A B6*01         [ 3]  546 	lda	*(_asincosf_sloc0_1_0 + 1)
   040C C7r00r01      [ 4]  547 	sta	(___fsadd_PARM_2 + 1)
   040F B6*02         [ 3]  548 	lda	*(_asincosf_sloc0_1_0 + 2)
   0411 C7r00r02      [ 4]  549 	sta	(___fsadd_PARM_2 + 2)
   0414 B6*03         [ 3]  550 	lda	*(_asincosf_sloc0_1_0 + 3)
   0416 C7r00r03      [ 4]  551 	sta	(___fsadd_PARM_2 + 3)
   0419 CDr00r00      [ 6]  552 	jsr	___fsadd
   041C C7r00r10      [ 4]  553 	sta	(_asincosf_r_1_24 + 3)
   041F CFr00r0F      [ 4]  554 	stx	(_asincosf_r_1_24 + 2)
   0422 B6*00         [ 3]  555 	lda	*___SDCC_hc08_ret2
   0424 C7r00r0E      [ 4]  556 	sta	(_asincosf_r_1_24 + 1)
   0427 B6*00         [ 3]  557 	lda	*___SDCC_hc08_ret3
   0429 C7r00r0D      [ 4]  558 	sta	_asincosf_r_1_24
   042C 20 7A         [ 3]  559 	bra	00116$
   042E                     560 00115$:
                            561 ;../asincosf.c:92: r = (a[i] + r) + a[i];
   042E D6r00r00      [ 4]  562 	lda	(_asincosf_a_1_24),x
   0431 B7*00         [ 3]  563 	sta	*_asincosf_sloc0_1_0
   0433 D6r00r01      [ 4]  564 	lda	(_asincosf_a_1_24+1),x
   0436 B7*01         [ 3]  565 	sta	*(_asincosf_sloc0_1_0 + 1)
   0438 D6r00r02      [ 4]  566 	lda	(_asincosf_a_1_24+2),x
   043B B7*02         [ 3]  567 	sta	*(_asincosf_sloc0_1_0 + 2)
   043D D6r00r03      [ 4]  568 	lda	(_asincosf_a_1_24+3),x
   0440 B7*03         [ 3]  569 	sta	*(_asincosf_sloc0_1_0 + 3)
   0442 B6*00         [ 3]  570 	lda	*_asincosf_sloc0_1_0
   0444 C7r00r00      [ 4]  571 	sta	___fsadd_PARM_1
   0447 B6*01         [ 3]  572 	lda	*(_asincosf_sloc0_1_0 + 1)
   0449 C7r00r01      [ 4]  573 	sta	(___fsadd_PARM_1 + 1)
   044C B6*02         [ 3]  574 	lda	*(_asincosf_sloc0_1_0 + 2)
   044E C7r00r02      [ 4]  575 	sta	(___fsadd_PARM_1 + 2)
   0451 B6*03         [ 3]  576 	lda	*(_asincosf_sloc0_1_0 + 3)
   0453 C7r00r03      [ 4]  577 	sta	(___fsadd_PARM_1 + 3)
   0456 32r00r0D      [ 5]  578 	ldhx	_asincosf_r_1_24
   0459 96r00r00      [ 5]  579 	sthx	___fsadd_PARM_2
   045C 32r00r0F      [ 5]  580 	ldhx	(_asincosf_r_1_24 + 2)
   045F 96r00r02      [ 5]  581 	sthx	(___fsadd_PARM_2 + 2)
   0462 CDr00r00      [ 6]  582 	jsr	___fsadd
   0465 C7r00r03      [ 4]  583 	sta	(___fsadd_PARM_1 + 3)
   0468 CFr00r02      [ 4]  584 	stx	(___fsadd_PARM_1 + 2)
   046B B6*00         [ 3]  585 	lda	*___SDCC_hc08_ret2
   046D C7r00r01      [ 4]  586 	sta	(___fsadd_PARM_1 + 1)
   0470 B6*00         [ 3]  587 	lda	*___SDCC_hc08_ret3
   0472 C7r00r00      [ 4]  588 	sta	___fsadd_PARM_1
   0475 B6*00         [ 3]  589 	lda	*_asincosf_sloc0_1_0
   0477 C7r00r00      [ 4]  590 	sta	___fsadd_PARM_2
   047A B6*01         [ 3]  591 	lda	*(_asincosf_sloc0_1_0 + 1)
   047C C7r00r01      [ 4]  592 	sta	(___fsadd_PARM_2 + 1)
   047F B6*02         [ 3]  593 	lda	*(_asincosf_sloc0_1_0 + 2)
   0481 C7r00r02      [ 4]  594 	sta	(___fsadd_PARM_2 + 2)
   0484 B6*03         [ 3]  595 	lda	*(_asincosf_sloc0_1_0 + 3)
   0486 C7r00r03      [ 4]  596 	sta	(___fsadd_PARM_2 + 3)
   0489 CDr00r00      [ 6]  597 	jsr	___fsadd
   048C C7r00r10      [ 4]  598 	sta	(_asincosf_r_1_24 + 3)
   048F CFr00r0F      [ 4]  599 	stx	(_asincosf_r_1_24 + 2)
   0492 B6*00         [ 3]  600 	lda	*___SDCC_hc08_ret2
   0494 C7r00r0E      [ 4]  601 	sta	(_asincosf_r_1_24 + 1)
   0497 B6*00         [ 3]  602 	lda	*___SDCC_hc08_ret3
   0499 C7r00r0D      [ 4]  603 	sta	_asincosf_r_1_24
                            604 ;../asincosf.c:93: if (x < 0.0)
   049C 3D*04         [ 4]  605 	tst	*_asincosf_sloc1_1_0
   049E 27 08         [ 3]  606 	beq	00116$
                            607 ;../asincosf.c:94: r = -r;
   04A0 C6r00r0D      [ 4]  608 	lda	_asincosf_r_1_24
   04A3 A8 80         [ 2]  609 	eor	#0x80
   04A5 C7r00r0D      [ 4]  610 	sta	_asincosf_r_1_24
   04A8                     611 00116$:
                            612 ;../asincosf.c:96: return r;
   04A8 C6r00r0D      [ 4]  613 	lda	_asincosf_r_1_24
   04AB B7*00         [ 3]  614 	sta	*___SDCC_hc08_ret3
   04AD C6r00r0E      [ 4]  615 	lda	(_asincosf_r_1_24 + 1)
   04B0 B7*00         [ 3]  616 	sta	*___SDCC_hc08_ret2
   04B2 CEr00r0F      [ 4]  617 	ldx	(_asincosf_r_1_24 + 2)
   04B5 C6r00r10      [ 4]  618 	lda	(_asincosf_r_1_24 + 3)
   04B8 81            [ 6]  619 	rts
                            620 	.area CSEG    (CODE)
                            621 	.area CONST   (CODE)
   0000                     622 _asincosf_a_1_24:
   0000 00 00 00 00         623 	.byte #0x00,#0x00,#0x00,#0x00	;  0.000000e+00
   0004 3F 49 0F DB         624 	.byte #0x3F,#0x49,#0x0F,#0xDB	;  7.853982e-01
   0008                     625 _asincosf_b_1_24:
   0008 3F C9 0F DB         626 	.byte #0x3F,#0xC9,#0x0F,#0xDB	;  1.570796e+00
   000C 3F 49 0F DB         627 	.byte #0x3F,#0x49,#0x0F,#0xDB	;  7.853982e-01
                            628 	.area XINIT   (CODE)
                            629 	.area CABS    (ABS,CODE)
