                              1 ;--------------------------------------------------------
                              2 ; File Created by SDCC : free open source ANSI-C Compiler
                              3 ; Version 3.5.0 #9253 (Apr  4 2022) (Linux)
                              4 ; This file was generated Mon Apr  4 14:10:37 2022
                              5 ;--------------------------------------------------------
                              6 	.cs08
                              7 	.module atol
                              8 	.optsdcc -ms08
                              9 	
                             10 	.area HOME    (CODE)
                             11 	.area GSINIT0 (CODE)
                             12 	.area GSINIT  (CODE)
                             13 	.area GSFINAL (CODE)
                             14 	.area CSEG    (CODE)
                             15 	.area XINIT   (CODE)
                             16 	.area CONST   (CODE)
                             17 	.area DSEG    (PAG)
                             18 	.area OSEG    (PAG, OVR)
                             19 	.area XSEG
                             20 	.area XISEG
                             21 ;--------------------------------------------------------
                             22 ; Public variables in this module
                             23 ;--------------------------------------------------------
                             24 	.globl _atol
                             25 ;--------------------------------------------------------
                             26 ; ram data
                             27 ;--------------------------------------------------------
                             28 	.area DSEG    (PAG)
   0000                      29 _atol_sloc0_1_0:
   0000                      30 	.ds 1
   0001                      31 _atol_sloc1_1_0:
   0001                      32 	.ds 2
   0003                      33 _atol_sloc2_1_0:
   0003                      34 	.ds 2
   0005                      35 _atol_sloc3_1_0:
   0005                      36 	.ds 4
   0009                      37 _atol_sloc4_1_0:
   0009                      38 	.ds 4
                             39 ;--------------------------------------------------------
                             40 ; overlayable items in ram 
                             41 ;--------------------------------------------------------
                             42 ;--------------------------------------------------------
                             43 ; absolute ram data
                             44 ;--------------------------------------------------------
                             45 	.area IABS    (ABS)
                             46 	.area IABS    (ABS)
                             47 ;--------------------------------------------------------
                             48 ; absolute external ram data
                             49 ;--------------------------------------------------------
                             50 	.area XABS    (ABS)
                             51 ;--------------------------------------------------------
                             52 ; external initialized ram data
                             53 ;--------------------------------------------------------
                             54 	.area XISEG
                             55 ;--------------------------------------------------------
                             56 ; extended address mode data
                             57 ;--------------------------------------------------------
                             58 	.area XSEG
   0000                      59 _atol_ret_1_37:
   0000                      60 	.ds 4
   0004                      61 _atol_neg_1_37:
   0004                      62 	.ds 1
   0005                      63 _atol___00020002_3_39:
   0005                      64 	.ds 2
                             65 ;--------------------------------------------------------
                             66 ; global & static initialisations
                             67 ;--------------------------------------------------------
                             68 	.area HOME    (CODE)
                             69 	.area GSINIT  (CODE)
                             70 	.area GSFINAL (CODE)
                             71 	.area GSINIT  (CODE)
                             72 ;--------------------------------------------------------
                             73 ; Home
                             74 ;--------------------------------------------------------
                             75 	.area HOME    (CODE)
                             76 	.area HOME    (CODE)
                             77 ;--------------------------------------------------------
                             78 ; code
                             79 ;--------------------------------------------------------
                             80 	.area CSEG    (CODE)
                             81 ;------------------------------------------------------------
                             82 ;Allocation info for local variables in function 'atol'
                             83 ;------------------------------------------------------------
                             84 ;sloc0                     Allocated with name '_atol_sloc0_1_0'
                             85 ;sloc1                     Allocated with name '_atol_sloc1_1_0'
                             86 ;sloc2                     Allocated with name '_atol_sloc2_1_0'
                             87 ;sloc3                     Allocated with name '_atol_sloc3_1_0'
                             88 ;sloc4                     Allocated with name '_atol_sloc4_1_0'
                             89 ;nptr                      Allocated to registers x h 
                             90 ;__00010004                Allocated to registers 
                             91 ;__00010001                Allocated to registers 
                             92 ;ret                       Allocated with name '_atol_ret_1_37'
                             93 ;neg                       Allocated with name '_atol_neg_1_37'
                             94 ;__00020002                Allocated with name '_atol___00020002_3_39'
                             95 ;c                         Allocated to registers 
                             96 ;__00020005                Allocated to registers x h 
                             97 ;c                         Allocated to registers 
                             98 ;------------------------------------------------------------
                             99 ;../atol.c:34: long int atol(const char *nptr)
                            100 ;	-----------------------------------------
                            101 ;	 function atol
                            102 ;	-----------------------------------------
                            103 ;	Register assignment might be sub-optimal.
                            104 ;	Stack space usage: 0 bytes.
   0000                     105 _atol:
   0000 89            [ 2]  106 	pshx
   0001 97            [ 1]  107 	tax
   0002 8A            [ 3]  108 	pulh
                            109 ;../atol.c:36: long int ret = 0;
   0003 4F            [ 1]  110 	clra
   0004 C7r00r00      [ 4]  111 	sta	_atol_ret_1_37
   0007 C7r00r01      [ 4]  112 	sta	(_atol_ret_1_37 + 1)
   000A C7r00r02      [ 4]  113 	sta	(_atol_ret_1_37 + 2)
   000D C7r00r03      [ 4]  114 	sta	(_atol_ret_1_37 + 3)
                            115 ;../atol.c:39: while (isblank (*nptr))
   0010                     116 00101$:
   0010 F6            [ 3]  117 	lda	,x
   0011 B7*00         [ 3]  118 	sta	*_atol_sloc0_1_0
   0013 B6*00         [ 3]  119 	lda	*_atol_sloc0_1_0
   0015 C7r00r06      [ 4]  120 	sta	(_atol___00020002_3_39 + 1)
   0018 49            [ 1]  121 	rola	
   0019 4F            [ 1]  122 	clra	
   001A A2 00         [ 2]  123 	sbc	#0x00
   001C C7r00r05      [ 4]  124 	sta	_atol___00020002_3_39
                            125 ;./../../include/ctype.h:53: return ((unsigned char)c == ' ' || (unsigned char)c == '\t');
   001F C6r00r06      [ 4]  126 	lda	(_atol___00020002_3_39 + 1)
   0022 41 20 04      [ 4]  127 	cbeqa	#0x20,00115$
   0025 A1 09         [ 2]  128 	cmp	#0x09
   0027 26 04         [ 3]  129 	bne	00131$
   0029                     130 00115$:
                            131 ;../atol.c:40: nptr++;
   0029 AF 01         [ 2]  132 	aix	#1
   002B 20 E3         [ 3]  133 	bra	00101$
   002D                     134 00131$:
                            135 ;../atol.c:42: neg = (*nptr == '-');
   002D B6*00         [ 3]  136 	lda	*_atol_sloc0_1_0
   002F 41 2D 03      [ 4]  137 	cbeqa	#0x2D,00157$
   0032 4F            [ 1]  138 	clra
   0033 20 02         [ 3]  139 	bra	00156$
   0035                     140 00157$:
   0035 A6 01         [ 2]  141 	lda	#0x01
   0037                     142 00156$:
   0037 C7r00r04      [ 4]  143 	sta	_atol_neg_1_37
                            144 ;../atol.c:44: if (*nptr == '-' || *nptr == '+')
   003A 4D            [ 1]  145 	tsta
   003B 26 06         [ 3]  146 	bne	00104$
   003D B6*00         [ 3]  147 	lda	*_atol_sloc0_1_0
   003F A1 2B         [ 2]  148 	cmp	#0x2B
   0041 26 02         [ 3]  149 	bne	00129$
   0043                     150 00104$:
                            151 ;../atol.c:45: nptr++;
   0043 AF 01         [ 2]  152 	aix	#1
                            153 ;../atol.c:47: while (isdigit (*nptr))
   0045                     154 00129$:
   0045 35*01         [ 4]  155 	sthx	*_atol_sloc1_1_0
   0047                     156 00107$:
   0047 55*01         [ 4]  157 	ldhx	*_atol_sloc1_1_0
   0049 F6            [ 3]  158 	lda	,x
   004A B7*04         [ 3]  159 	sta	*(_atol_sloc2_1_0 + 1)
   004C 49            [ 1]  160 	rola	
   004D 4F            [ 1]  161 	clra	
   004E A2 00         [ 2]  162 	sbc	#0x00
   0050 B7*03         [ 3]  163 	sta	*_atol_sloc2_1_0
   0052 55*03         [ 4]  164 	ldhx	*_atol_sloc2_1_0
                            165 ;./../../include/ctype.h:62: return ((unsigned char)c >= '0' && (unsigned char)c <= '9');
   0054 A3 30         [ 2]  166 	cpx	#0x30
   0056 25 5B         [ 3]  167 	bcs	00109$
   0058 A3 39         [ 2]  168 	cpx	#0x39
   005A 22 57         [ 3]  169 	bhi	00109$
                            170 ;../atol.c:48: ret = ret * 10 + (*(nptr++) - '0');
   005C 8C            [ 1]  171 	clrh
   005D 5F            [ 1]  172 	clrx
   005E 96r00r00      [ 5]  173 	sthx	__mullong_PARM_1
   0061 AE 0A         [ 2]  174 	ldx	#0x0A
   0063 96r00r02      [ 5]  175 	sthx	(__mullong_PARM_1 + 2)
   0066 32r00r00      [ 5]  176 	ldhx	_atol_ret_1_37
   0069 96r00r00      [ 5]  177 	sthx	__mullong_PARM_2
   006C 32r00r02      [ 5]  178 	ldhx	(_atol_ret_1_37 + 2)
   006F 96r00r02      [ 5]  179 	sthx	(__mullong_PARM_2 + 2)
   0072 CDr00r00      [ 6]  180 	jsr	__mullong
   0075 B7*08         [ 3]  181 	sta	*(_atol_sloc3_1_0 + 3)
   0077 BF*07         [ 3]  182 	stx	*(_atol_sloc3_1_0 + 2)
   0079 4E*00*06      [ 6]  183 	mov	*___SDCC_hc08_ret2,*(_atol_sloc3_1_0 + 1)
   007C 4E*00*05      [ 6]  184 	mov	*___SDCC_hc08_ret3,*_atol_sloc3_1_0
   007F 55*01         [ 4]  185 	ldhx	*_atol_sloc1_1_0
   0081 AF 01         [ 2]  186 	aix	#1
   0083 35*01         [ 4]  187 	sthx	*_atol_sloc1_1_0
   0085 55*03         [ 4]  188 	ldhx	*_atol_sloc2_1_0
   0087 AF D0         [ 2]  189 	aix	#-48
   0089 BF*0C         [ 3]  190 	stx	*(_atol_sloc4_1_0 + 3)
   008B 8B            [ 2]  191 	pshh
   008C 86            [ 3]  192 	pula
   008D B7*0B         [ 3]  193 	sta	*(_atol_sloc4_1_0 + 2)
   008F 49            [ 1]  194 	rola	
   0090 4F            [ 1]  195 	clra	
   0091 A2 00         [ 2]  196 	sbc	#0x00
   0093 B7*0A         [ 3]  197 	sta	*(_atol_sloc4_1_0 + 1)
   0095 B7*09         [ 3]  198 	sta	*_atol_sloc4_1_0
   0097 45r00r00      [ 3]  199 	ldhx	#_atol_ret_1_37
   009A B6*08         [ 3]  200 	lda	*(_atol_sloc3_1_0 + 3)
   009C BB*0C         [ 3]  201 	add	*(_atol_sloc4_1_0 + 3)
   009E E7 03         [ 3]  202 	sta	3,x
   00A0 B6*07         [ 3]  203 	lda	*(_atol_sloc3_1_0 + 2)
   00A2 B9*0B         [ 3]  204 	adc	*(_atol_sloc4_1_0 + 2)
   00A4 E7 02         [ 3]  205 	sta	2,x
   00A6 B6*06         [ 3]  206 	lda	*(_atol_sloc3_1_0 + 1)
   00A8 B9*0A         [ 3]  207 	adc	*(_atol_sloc4_1_0 + 1)
   00AA E7 01         [ 3]  208 	sta	1,x
   00AC B6*05         [ 3]  209 	lda	*_atol_sloc3_1_0
   00AE B9*09         [ 3]  210 	adc	*_atol_sloc4_1_0
   00B0 F7            [ 2]  211 	sta	,x
   00B1 20 94         [ 3]  212 	bra	00107$
   00B3                     213 00109$:
                            214 ;../atol.c:50: return (neg ? -ret : ret); // Since -LONG_MIN is LONG_MIN in sdcc, the result value always turns out ok.
   00B3 C6r00r04      [ 4]  215 	lda	_atol_neg_1_37
   00B6 27 1A         [ 3]  216 	beq	00120$
   00B8 4F            [ 1]  217 	clra
   00B9 C0r00r03      [ 4]  218 	sub	(_atol_ret_1_37 + 3)
   00BC B7*0C         [ 3]  219 	sta	*(_atol_sloc4_1_0 + 3)
   00BE 4F            [ 1]  220 	clra
   00BF C2r00r02      [ 4]  221 	sbc	(_atol_ret_1_37 + 2)
   00C2 B7*0B         [ 3]  222 	sta	*(_atol_sloc4_1_0 + 2)
   00C4 4F            [ 1]  223 	clra
   00C5 C2r00r01      [ 4]  224 	sbc	(_atol_ret_1_37 + 1)
   00C8 B7*0A         [ 3]  225 	sta	*(_atol_sloc4_1_0 + 1)
   00CA 4F            [ 1]  226 	clra
   00CB C2r00r00      [ 4]  227 	sbc	_atol_ret_1_37
   00CE B7*09         [ 3]  228 	sta	*_atol_sloc4_1_0
   00D0 20 0A         [ 3]  229 	bra	00121$
   00D2                     230 00120$:
   00D2 32r00r00      [ 5]  231 	ldhx	_atol_ret_1_37
   00D5 35*09         [ 4]  232 	sthx	*_atol_sloc4_1_0
   00D7 32r00r02      [ 5]  233 	ldhx	(_atol_ret_1_37 + 2)
   00DA 35*0B         [ 4]  234 	sthx	*(_atol_sloc4_1_0 + 2)
   00DC                     235 00121$:
   00DC 4E*09*00      [ 6]  236 	mov	*_atol_sloc4_1_0,*___SDCC_hc08_ret3
   00DF 4E*0A*00      [ 6]  237 	mov	*(_atol_sloc4_1_0 + 1),*___SDCC_hc08_ret2
   00E2 BE*0B         [ 3]  238 	ldx	*(_atol_sloc4_1_0 + 2)
   00E4 B6*0C         [ 3]  239 	lda	*(_atol_sloc4_1_0 + 3)
   00E6 81            [ 6]  240 	rts
                            241 	.area CSEG    (CODE)
                            242 	.area CONST   (CODE)
                            243 	.area XINIT   (CODE)
                            244 	.area CABS    (ABS,CODE)
