                              1 ;--------------------------------------------------------
                              2 ; File Created by SDCC : free open source ANSI-C Compiler
                              3 ; Version 3.5.0 #9253 (Apr  4 2022) (Linux)
                              4 ; This file was generated Mon Apr  4 14:10:36 2022
                              5 ;--------------------------------------------------------
                              6 	.cs08
                              7 	.module sincoshf
                              8 	.optsdcc -ms08
                              9 	
                             10 	.area HOME    (CODE)
                             11 	.area GSINIT0 (CODE)
                             12 	.area GSINIT  (CODE)
                             13 	.area GSFINAL (CODE)
                             14 	.area CSEG    (CODE)
                             15 	.area XINIT   (CODE)
                             16 	.area CONST   (CODE)
                             17 	.area DSEG    (PAG)
                             18 	.area OSEG    (PAG, OVR)
                             19 	.area XSEG
                             20 	.area XISEG
                             21 ;--------------------------------------------------------
                             22 ; Public variables in this module
                             23 ;--------------------------------------------------------
                             24 	.globl _sincoshf
                             25 	.globl _expf
                             26 	.globl _sincoshf_PARM_2
                             27 	.globl _sincoshf_PARM_1
                             28 ;--------------------------------------------------------
                             29 ; ram data
                             30 ;--------------------------------------------------------
                             31 	.area DSEG    (PAG)
   0000                      32 _sincoshf_sloc0_1_0:
   0000                      33 	.ds 4
   0004                      34 _sincoshf_sloc1_1_0:
   0004                      35 	.ds 1
   0005                      36 _sincoshf_sloc2_1_0:
   0005                      37 	.ds 4
   0009                      38 _sincoshf_sloc3_1_0:
   0009                      39 	.ds 4
                             40 ;--------------------------------------------------------
                             41 ; overlayable items in ram 
                             42 ;--------------------------------------------------------
                             43 ;--------------------------------------------------------
                             44 ; absolute ram data
                             45 ;--------------------------------------------------------
                             46 	.area IABS    (ABS)
                             47 	.area IABS    (ABS)
                             48 ;--------------------------------------------------------
                             49 ; absolute external ram data
                             50 ;--------------------------------------------------------
                             51 	.area XABS    (ABS)
                             52 ;--------------------------------------------------------
                             53 ; external initialized ram data
                             54 ;--------------------------------------------------------
                             55 	.area XISEG
                             56 ;--------------------------------------------------------
                             57 ; extended address mode data
                             58 ;--------------------------------------------------------
                             59 	.area XSEG
   0000                      60 _sincoshf_PARM_1:
   0000                      61 	.ds 4
   0004                      62 _sincoshf_PARM_2:
   0004                      63 	.ds 1
   0005                      64 _sincoshf_y_1_24:
   0005                      65 	.ds 4
   0009                      66 _sincoshf_w_1_24:
   0009                      67 	.ds 4
   000D                      68 _sincoshf_z_1_24:
   000D                      69 	.ds 4
   0011                      70 _sincoshf_sign_1_24:
   0011                      71 	.ds 1
                             72 ;--------------------------------------------------------
                             73 ; global & static initialisations
                             74 ;--------------------------------------------------------
                             75 	.area HOME    (CODE)
                             76 	.area GSINIT  (CODE)
                             77 	.area GSFINAL (CODE)
                             78 	.area GSINIT  (CODE)
                             79 ;--------------------------------------------------------
                             80 ; Home
                             81 ;--------------------------------------------------------
                             82 	.area HOME    (CODE)
                             83 	.area HOME    (CODE)
                             84 ;--------------------------------------------------------
                             85 ; code
                             86 ;--------------------------------------------------------
                             87 	.area CSEG    (CODE)
                             88 ;------------------------------------------------------------
                             89 ;Allocation info for local variables in function 'sincoshf'
                             90 ;------------------------------------------------------------
                             91 ;sloc0                     Allocated with name '_sincoshf_sloc0_1_0'
                             92 ;sloc1                     Allocated with name '_sincoshf_sloc1_1_0'
                             93 ;sloc2                     Allocated with name '_sincoshf_sloc2_1_0'
                             94 ;sloc3                     Allocated with name '_sincoshf_sloc3_1_0'
                             95 ;x                         Allocated with name '_sincoshf_PARM_1'
                             96 ;iscosh                    Allocated with name '_sincoshf_PARM_2'
                             97 ;y                         Allocated with name '_sincoshf_y_1_24'
                             98 ;w                         Allocated with name '_sincoshf_w_1_24'
                             99 ;z                         Allocated with name '_sincoshf_z_1_24'
                            100 ;sign                      Allocated with name '_sincoshf_sign_1_24'
                            101 ;------------------------------------------------------------
                            102 ;../sincoshf.c:56: float sincoshf(float x, bool iscosh)
                            103 ;	-----------------------------------------
                            104 ;	 function sincoshf
                            105 ;	-----------------------------------------
                            106 ;	Register assignment is optimal.
                            107 ;	Stack space usage: 0 bytes.
   0000                     108 _sincoshf:
                            109 ;../sincoshf.c:62: else { y=x;  sign=0; }
   0000 32r00r00      [ 5]  110 	ldhx	_sincoshf_PARM_1
   0003 35*00         [ 4]  111 	sthx	*_sincoshf_sloc0_1_0
   0005 32r00r02      [ 5]  112 	ldhx	(_sincoshf_PARM_1 + 2)
   0008 35*02         [ 4]  113 	sthx	*(_sincoshf_sloc0_1_0 + 2)
                            114 ;../sincoshf.c:61: if (x<0.0) { y=-x; sign=1; }
   000A 32r00r00      [ 5]  115 	ldhx	_sincoshf_PARM_1
   000D 96r00r00      [ 5]  116 	sthx	___fslt_PARM_1
   0010 32r00r02      [ 5]  117 	ldhx	(_sincoshf_PARM_1 + 2)
   0013 96r00r02      [ 5]  118 	sthx	(___fslt_PARM_1 + 2)
   0016 8C            [ 1]  119 	clrh
   0017 5F            [ 1]  120 	clrx
   0018 96r00r00      [ 5]  121 	sthx	___fslt_PARM_2
   001B 96r00r02      [ 5]  122 	sthx	(___fslt_PARM_2 + 2)
   001E CDr00r00      [ 6]  123 	jsr	___fslt
   0021 4D            [ 1]  124 	tsta
   0022 27 21         [ 3]  125 	beq	00102$
   0024 C6r00r03      [ 4]  126 	lda	(_sincoshf_PARM_1 + 3)
   0027 C7r00r08      [ 4]  127 	sta	(_sincoshf_y_1_24 + 3)
   002A C6r00r02      [ 4]  128 	lda	(_sincoshf_PARM_1 + 2)
   002D C7r00r07      [ 4]  129 	sta	(_sincoshf_y_1_24 + 2)
   0030 C6r00r01      [ 4]  130 	lda	(_sincoshf_PARM_1 + 1)
   0033 C7r00r06      [ 4]  131 	sta	(_sincoshf_y_1_24 + 1)
   0036 C6r00r00      [ 4]  132 	lda	_sincoshf_PARM_1
   0039 A8 80         [ 2]  133 	eor	#0x80
   003B C7r00r05      [ 4]  134 	sta	_sincoshf_y_1_24
   003E A6 01         [ 2]  135 	lda	#0x01
   0040 C7r00r11      [ 4]  136 	sta	_sincoshf_sign_1_24
   0043 20 18         [ 3]  137 	bra	00103$
   0045                     138 00102$:
                            139 ;../sincoshf.c:62: else { y=x;  sign=0; }
   0045 B6*00         [ 3]  140 	lda	*_sincoshf_sloc0_1_0
   0047 C7r00r05      [ 4]  141 	sta	_sincoshf_y_1_24
   004A B6*01         [ 3]  142 	lda	*(_sincoshf_sloc0_1_0 + 1)
   004C C7r00r06      [ 4]  143 	sta	(_sincoshf_y_1_24 + 1)
   004F B6*02         [ 3]  144 	lda	*(_sincoshf_sloc0_1_0 + 2)
   0051 C7r00r07      [ 4]  145 	sta	(_sincoshf_y_1_24 + 2)
   0054 B6*03         [ 3]  146 	lda	*(_sincoshf_sloc0_1_0 + 3)
   0056 C7r00r08      [ 4]  147 	sta	(_sincoshf_y_1_24 + 3)
   0059 4F            [ 1]  148 	clra
   005A C7r00r11      [ 4]  149 	sta	_sincoshf_sign_1_24
   005D                     150 00103$:
                            151 ;../sincoshf.c:64: if ((y>1.0) || iscosh)
   005D 32r00r05      [ 5]  152 	ldhx	_sincoshf_y_1_24
   0060 96r00r00      [ 5]  153 	sthx	___fsgt_PARM_1
   0063 32r00r07      [ 5]  154 	ldhx	(_sincoshf_y_1_24 + 2)
   0066 96r00r02      [ 5]  155 	sthx	(___fsgt_PARM_1 + 2)
   0069 45 3F 80      [ 3]  156 	ldhx	#0x3F80
   006C 96r00r00      [ 5]  157 	sthx	___fsgt_PARM_2
   006F 8C            [ 1]  158 	clrh
   0070 5F            [ 1]  159 	clrx
   0071 96r00r02      [ 5]  160 	sthx	(___fsgt_PARM_2 + 2)
   0074 CDr00r00      [ 6]  161 	jsr	___fsgt
   0077 4D            [ 1]  162 	tsta
   0078 26 08         [ 3]  163 	bne	00117$
   007A C6r00r04      [ 4]  164 	lda	_sincoshf_PARM_2
   007D 26 03         [ 3]  165 	bne	00153$
   007F CCr02r5A      [ 4]  166 	jmp	00118$
   0082                     167 00153$:
   0082                     168 00117$:
                            169 ;../sincoshf.c:66: if(y>YBAR)
   0082 32r00r05      [ 5]  170 	ldhx	_sincoshf_y_1_24
   0085 96r00r00      [ 5]  171 	sthx	___fsgt_PARM_1
   0088 32r00r07      [ 5]  172 	ldhx	(_sincoshf_y_1_24 + 2)
   008B 96r00r02      [ 5]  173 	sthx	(___fsgt_PARM_1 + 2)
   008E 45 41 10      [ 3]  174 	ldhx	#0x4110
   0091 96r00r00      [ 5]  175 	sthx	___fsgt_PARM_2
   0094 8C            [ 1]  176 	clrh
   0095 5F            [ 1]  177 	clrx
   0096 96r00r02      [ 5]  178 	sthx	(___fsgt_PARM_2 + 2)
   0099 CDr00r00      [ 6]  179 	jsr	___fsgt
   009C B7*04         [ 3]  180 	sta	*_sincoshf_sloc1_1_0
   009E 3D*04         [ 4]  181 	tst	*_sincoshf_sloc1_1_0
   00A0 26 03         [ 3]  182 	bne	00154$
   00A2 CCr01r7D      [ 4]  183 	jmp	00110$
   00A5                     184 00154$:
                            185 ;../sincoshf.c:68: w=y-K1;
   00A5 32r00r05      [ 5]  186 	ldhx	_sincoshf_y_1_24
   00A8 96r00r00      [ 5]  187 	sthx	___fssub_PARM_1
   00AB 32r00r07      [ 5]  188 	ldhx	(_sincoshf_y_1_24 + 2)
   00AE 96r00r02      [ 5]  189 	sthx	(___fssub_PARM_1 + 2)
   00B1 45 3F 31      [ 3]  190 	ldhx	#0x3F31
   00B4 96r00r00      [ 5]  191 	sthx	___fssub_PARM_2
   00B7 45 73 00      [ 3]  192 	ldhx	#0x7300
   00BA 96r00r02      [ 5]  193 	sthx	(___fssub_PARM_2 + 2)
                            194 ;../sincoshf.c:69: if (w>WMAX)
   00BD CDr00r00      [ 6]  195 	jsr	___fssub
   00C0 B7*08         [ 3]  196 	sta	*(_sincoshf_sloc2_1_0 + 3)
   00C2 BF*07         [ 3]  197 	stx	*(_sincoshf_sloc2_1_0 + 2)
   00C4 4E*00*06      [ 6]  198 	mov	*___SDCC_hc08_ret2,*(_sincoshf_sloc2_1_0 + 1)
   00C7 4E*00*05      [ 6]  199 	mov	*___SDCC_hc08_ret3,*_sincoshf_sloc2_1_0
   00CA B6*05         [ 3]  200 	lda	*_sincoshf_sloc2_1_0
   00CC C7r00r00      [ 4]  201 	sta	___fsgt_PARM_1
   00CF B6*06         [ 3]  202 	lda	*(_sincoshf_sloc2_1_0 + 1)
   00D1 C7r00r01      [ 4]  203 	sta	(___fsgt_PARM_1 + 1)
   00D4 B6*07         [ 3]  204 	lda	*(_sincoshf_sloc2_1_0 + 2)
   00D6 C7r00r02      [ 4]  205 	sta	(___fsgt_PARM_1 + 2)
   00D9 B6*08         [ 3]  206 	lda	*(_sincoshf_sloc2_1_0 + 3)
   00DB C7r00r03      [ 4]  207 	sta	(___fsgt_PARM_1 + 3)
   00DE 45 42 33      [ 3]  208 	ldhx	#0x4233
   00E1 96r00r00      [ 5]  209 	sthx	___fsgt_PARM_2
   00E4 45 BD CF      [ 3]  210 	ldhx	#0xBDCF
   00E7 96r00r02      [ 5]  211 	sthx	(___fsgt_PARM_2 + 2)
   00EA CDr00r00      [ 6]  212 	jsr	___fsgt
   00ED 4D            [ 1]  213 	tsta
   00EE 27 15         [ 3]  214 	beq	00105$
                            215 ;../sincoshf.c:71: errno=ERANGE;
   00F0 45 00 22      [ 3]  216 	ldhx	#0x0022
   00F3 96r00r00      [ 5]  217 	sthx	_errno
                            218 ;../sincoshf.c:72: z=HUGE_VALF;
   00F6 45 7F 7F      [ 3]  219 	ldhx	#0x7F7F
   00F9 96r00r0D      [ 5]  220 	sthx	_sincoshf_z_1_24
   00FC 45 FF FF      [ 3]  221 	ldhx	#0xFFFF
   00FF 96r00r0F      [ 5]  222 	sthx	(_sincoshf_z_1_24 + 2)
   0102 CCr02r47      [ 4]  223 	jmp	00111$
   0105                     224 00105$:
                            225 ;../sincoshf.c:76: z=expf(w);
   0105 B6*08         [ 3]  226 	lda	*(_sincoshf_sloc2_1_0 + 3)
   0107 87            [ 2]  227 	psha
   0108 B6*07         [ 3]  228 	lda	*(_sincoshf_sloc2_1_0 + 2)
   010A 87            [ 2]  229 	psha
   010B B6*06         [ 3]  230 	lda	*(_sincoshf_sloc2_1_0 + 1)
   010D 87            [ 2]  231 	psha
   010E B6*05         [ 3]  232 	lda	*_sincoshf_sloc2_1_0
   0110 87            [ 2]  233 	psha
   0111 CDr00r00      [ 6]  234 	jsr	_expf
   0114 B7*08         [ 3]  235 	sta	*(_sincoshf_sloc2_1_0 + 3)
   0116 BF*07         [ 3]  236 	stx	*(_sincoshf_sloc2_1_0 + 2)
   0118 4E*00*06      [ 6]  237 	mov	*___SDCC_hc08_ret2,*(_sincoshf_sloc2_1_0 + 1)
   011B 4E*00*05      [ 6]  238 	mov	*___SDCC_hc08_ret3,*_sincoshf_sloc2_1_0
   011E A7 04         [ 2]  239 	ais	#4
                            240 ;../sincoshf.c:77: z+=K3*z;
   0120 45 37 68      [ 3]  241 	ldhx	#0x3768
   0123 96r00r00      [ 5]  242 	sthx	___fsmul_PARM_1
   0126 45 08 97      [ 3]  243 	ldhx	#0x0897
   0129 96r00r02      [ 5]  244 	sthx	(___fsmul_PARM_1 + 2)
   012C B6*05         [ 3]  245 	lda	*_sincoshf_sloc2_1_0
   012E C7r00r00      [ 4]  246 	sta	___fsmul_PARM_2
   0131 B6*06         [ 3]  247 	lda	*(_sincoshf_sloc2_1_0 + 1)
   0133 C7r00r01      [ 4]  248 	sta	(___fsmul_PARM_2 + 1)
   0136 B6*07         [ 3]  249 	lda	*(_sincoshf_sloc2_1_0 + 2)
   0138 C7r00r02      [ 4]  250 	sta	(___fsmul_PARM_2 + 2)
   013B B6*08         [ 3]  251 	lda	*(_sincoshf_sloc2_1_0 + 3)
   013D C7r00r03      [ 4]  252 	sta	(___fsmul_PARM_2 + 3)
   0140 CDr00r00      [ 6]  253 	jsr	___fsmul
   0143 C7r00r03      [ 4]  254 	sta	(___fsadd_PARM_2 + 3)
   0146 CFr00r02      [ 4]  255 	stx	(___fsadd_PARM_2 + 2)
   0149 B6*00         [ 3]  256 	lda	*___SDCC_hc08_ret2
   014B C7r00r01      [ 4]  257 	sta	(___fsadd_PARM_2 + 1)
   014E B6*00         [ 3]  258 	lda	*___SDCC_hc08_ret3
   0150 C7r00r00      [ 4]  259 	sta	___fsadd_PARM_2
   0153 B6*05         [ 3]  260 	lda	*_sincoshf_sloc2_1_0
   0155 C7r00r00      [ 4]  261 	sta	___fsadd_PARM_1
   0158 B6*06         [ 3]  262 	lda	*(_sincoshf_sloc2_1_0 + 1)
   015A C7r00r01      [ 4]  263 	sta	(___fsadd_PARM_1 + 1)
   015D B6*07         [ 3]  264 	lda	*(_sincoshf_sloc2_1_0 + 2)
   015F C7r00r02      [ 4]  265 	sta	(___fsadd_PARM_1 + 2)
   0162 B6*08         [ 3]  266 	lda	*(_sincoshf_sloc2_1_0 + 3)
   0164 C7r00r03      [ 4]  267 	sta	(___fsadd_PARM_1 + 3)
   0167 CDr00r00      [ 6]  268 	jsr	___fsadd
   016A C7r00r10      [ 4]  269 	sta	(_sincoshf_z_1_24 + 3)
   016D CFr00r0F      [ 4]  270 	stx	(_sincoshf_z_1_24 + 2)
   0170 B6*00         [ 3]  271 	lda	*___SDCC_hc08_ret2
   0172 C7r00r0E      [ 4]  272 	sta	(_sincoshf_z_1_24 + 1)
   0175 B6*00         [ 3]  273 	lda	*___SDCC_hc08_ret3
   0177 C7r00r0D      [ 4]  274 	sta	_sincoshf_z_1_24
   017A CCr02r47      [ 4]  275 	jmp	00111$
   017D                     276 00110$:
                            277 ;../sincoshf.c:82: z=expf(y);
   017D C6r00r08      [ 4]  278 	lda	(_sincoshf_y_1_24 + 3)
   0180 87            [ 2]  279 	psha
   0181 C6r00r07      [ 4]  280 	lda	(_sincoshf_y_1_24 + 2)
   0184 87            [ 2]  281 	psha
   0185 C6r00r06      [ 4]  282 	lda	(_sincoshf_y_1_24 + 1)
   0188 87            [ 2]  283 	psha
   0189 C6r00r05      [ 4]  284 	lda	_sincoshf_y_1_24
   018C 87            [ 2]  285 	psha
   018D CDr00r00      [ 6]  286 	jsr	_expf
   0190 B7*08         [ 3]  287 	sta	*(_sincoshf_sloc2_1_0 + 3)
   0192 BF*07         [ 3]  288 	stx	*(_sincoshf_sloc2_1_0 + 2)
   0194 4E*00*06      [ 6]  289 	mov	*___SDCC_hc08_ret2,*(_sincoshf_sloc2_1_0 + 1)
   0197 4E*00*05      [ 6]  290 	mov	*___SDCC_hc08_ret3,*_sincoshf_sloc2_1_0
   019A A7 04         [ 2]  291 	ais	#4
                            292 ;../sincoshf.c:83: w=1.0/z;
   019C 45 3F 80      [ 3]  293 	ldhx	#0x3F80
   019F 96r00r00      [ 5]  294 	sthx	___fsdiv_PARM_1
   01A2 8C            [ 1]  295 	clrh
   01A3 5F            [ 1]  296 	clrx
   01A4 96r00r02      [ 5]  297 	sthx	(___fsdiv_PARM_1 + 2)
   01A7 B6*05         [ 3]  298 	lda	*_sincoshf_sloc2_1_0
   01A9 C7r00r00      [ 4]  299 	sta	___fsdiv_PARM_2
   01AC B6*06         [ 3]  300 	lda	*(_sincoshf_sloc2_1_0 + 1)
   01AE C7r00r01      [ 4]  301 	sta	(___fsdiv_PARM_2 + 1)
   01B1 B6*07         [ 3]  302 	lda	*(_sincoshf_sloc2_1_0 + 2)
   01B3 C7r00r02      [ 4]  303 	sta	(___fsdiv_PARM_2 + 2)
   01B6 B6*08         [ 3]  304 	lda	*(_sincoshf_sloc2_1_0 + 3)
   01B8 C7r00r03      [ 4]  305 	sta	(___fsdiv_PARM_2 + 3)
   01BB CDr00r00      [ 6]  306 	jsr	___fsdiv
   01BE B7*0C         [ 3]  307 	sta	*(_sincoshf_sloc3_1_0 + 3)
   01C0 BF*0B         [ 3]  308 	stx	*(_sincoshf_sloc3_1_0 + 2)
   01C2 4E*00*0A      [ 6]  309 	mov	*___SDCC_hc08_ret2,*(_sincoshf_sloc3_1_0 + 1)
   01C5 4E*00*09      [ 6]  310 	mov	*___SDCC_hc08_ret3,*_sincoshf_sloc3_1_0
   01C8 B6*09         [ 3]  311 	lda	*_sincoshf_sloc3_1_0
   01CA C7r00r09      [ 4]  312 	sta	_sincoshf_w_1_24
   01CD B6*0A         [ 3]  313 	lda	*(_sincoshf_sloc3_1_0 + 1)
   01CF C7r00r0A      [ 4]  314 	sta	(_sincoshf_w_1_24 + 1)
   01D2 B6*0B         [ 3]  315 	lda	*(_sincoshf_sloc3_1_0 + 2)
   01D4 C7r00r0B      [ 4]  316 	sta	(_sincoshf_w_1_24 + 2)
   01D7 B6*0C         [ 3]  317 	lda	*(_sincoshf_sloc3_1_0 + 3)
   01D9 C7r00r0C      [ 4]  318 	sta	(_sincoshf_w_1_24 + 3)
                            319 ;../sincoshf.c:84: if(!iscosh) w=-w;
   01DC C6r00r04      [ 4]  320 	lda	_sincoshf_PARM_2
   01DF 26 16         [ 3]  321 	bne	00108$
   01E1 B6*0C         [ 3]  322 	lda	*(_sincoshf_sloc3_1_0 + 3)
   01E3 C7r00r0C      [ 4]  323 	sta	(_sincoshf_w_1_24 + 3)
   01E6 B6*0B         [ 3]  324 	lda	*(_sincoshf_sloc3_1_0 + 2)
   01E8 C7r00r0B      [ 4]  325 	sta	(_sincoshf_w_1_24 + 2)
   01EB B6*0A         [ 3]  326 	lda	*(_sincoshf_sloc3_1_0 + 1)
   01ED C7r00r0A      [ 4]  327 	sta	(_sincoshf_w_1_24 + 1)
   01F0 B6*09         [ 3]  328 	lda	*_sincoshf_sloc3_1_0
   01F2 A8 80         [ 2]  329 	eor	#0x80
   01F4 C7r00r09      [ 4]  330 	sta	_sincoshf_w_1_24
   01F7                     331 00108$:
                            332 ;../sincoshf.c:85: z=(z+w)*0.5;
   01F7 B6*05         [ 3]  333 	lda	*_sincoshf_sloc2_1_0
   01F9 C7r00r00      [ 4]  334 	sta	___fsadd_PARM_1
   01FC B6*06         [ 3]  335 	lda	*(_sincoshf_sloc2_1_0 + 1)
   01FE C7r00r01      [ 4]  336 	sta	(___fsadd_PARM_1 + 1)
   0201 B6*07         [ 3]  337 	lda	*(_sincoshf_sloc2_1_0 + 2)
   0203 C7r00r02      [ 4]  338 	sta	(___fsadd_PARM_1 + 2)
   0206 B6*08         [ 3]  339 	lda	*(_sincoshf_sloc2_1_0 + 3)
   0208 C7r00r03      [ 4]  340 	sta	(___fsadd_PARM_1 + 3)
   020B 32r00r09      [ 5]  341 	ldhx	_sincoshf_w_1_24
   020E 96r00r00      [ 5]  342 	sthx	___fsadd_PARM_2
   0211 32r00r0B      [ 5]  343 	ldhx	(_sincoshf_w_1_24 + 2)
   0214 96r00r02      [ 5]  344 	sthx	(___fsadd_PARM_2 + 2)
   0217 CDr00r00      [ 6]  345 	jsr	___fsadd
   021A C7r00r03      [ 4]  346 	sta	(___fsmul_PARM_2 + 3)
   021D CFr00r02      [ 4]  347 	stx	(___fsmul_PARM_2 + 2)
   0220 B6*00         [ 3]  348 	lda	*___SDCC_hc08_ret2
   0222 C7r00r01      [ 4]  349 	sta	(___fsmul_PARM_2 + 1)
   0225 B6*00         [ 3]  350 	lda	*___SDCC_hc08_ret3
   0227 C7r00r00      [ 4]  351 	sta	___fsmul_PARM_2
   022A 45 3F 00      [ 3]  352 	ldhx	#0x3F00
   022D 96r00r00      [ 5]  353 	sthx	___fsmul_PARM_1
   0230 8C            [ 1]  354 	clrh
   0231 96r00r02      [ 5]  355 	sthx	(___fsmul_PARM_1 + 2)
   0234 CDr00r00      [ 6]  356 	jsr	___fsmul
   0237 C7r00r10      [ 4]  357 	sta	(_sincoshf_z_1_24 + 3)
   023A CFr00r0F      [ 4]  358 	stx	(_sincoshf_z_1_24 + 2)
   023D B6*00         [ 3]  359 	lda	*___SDCC_hc08_ret2
   023F C7r00r0E      [ 4]  360 	sta	(_sincoshf_z_1_24 + 1)
   0242 B6*00         [ 3]  361 	lda	*___SDCC_hc08_ret3
   0244 C7r00r0D      [ 4]  362 	sta	_sincoshf_z_1_24
   0247                     363 00111$:
                            364 ;../sincoshf.c:87: if(sign) z=-z;
   0247 C6r00r11      [ 4]  365 	lda	_sincoshf_sign_1_24
   024A 26 03         [ 3]  366 	bne	00157$
   024C CCr03rCC      [ 4]  367 	jmp	00119$
   024F                     368 00157$:
   024F C6r00r0D      [ 4]  369 	lda	_sincoshf_z_1_24
   0252 A8 80         [ 2]  370 	eor	#0x80
   0254 C7r00r0D      [ 4]  371 	sta	_sincoshf_z_1_24
   0257 CCr03rCC      [ 4]  372 	jmp	00119$
   025A                     373 00118$:
                            374 ;../sincoshf.c:91: if (y<EPS)
   025A 32r00r05      [ 5]  375 	ldhx	_sincoshf_y_1_24
   025D 96r00r00      [ 5]  376 	sthx	___fslt_PARM_1
   0260 32r00r07      [ 5]  377 	ldhx	(_sincoshf_y_1_24 + 2)
   0263 96r00r02      [ 5]  378 	sthx	(___fslt_PARM_1 + 2)
   0266 45 39 80      [ 3]  379 	ldhx	#0x3980
   0269 96r00r00      [ 5]  380 	sthx	___fslt_PARM_2
   026C 8C            [ 1]  381 	clrh
   026D 5F            [ 1]  382 	clrx
   026E 96r00r02      [ 5]  383 	sthx	(___fslt_PARM_2 + 2)
   0271 CDr00r00      [ 6]  384 	jsr	___fslt
   0274 4D            [ 1]  385 	tsta
   0275 27 17         [ 3]  386 	beq	00115$
                            387 ;../sincoshf.c:92: z=x;
   0277 B6*00         [ 3]  388 	lda	*_sincoshf_sloc0_1_0
   0279 C7r00r0D      [ 4]  389 	sta	_sincoshf_z_1_24
   027C B6*01         [ 3]  390 	lda	*(_sincoshf_sloc0_1_0 + 1)
   027E C7r00r0E      [ 4]  391 	sta	(_sincoshf_z_1_24 + 1)
   0281 B6*02         [ 3]  392 	lda	*(_sincoshf_sloc0_1_0 + 2)
   0283 C7r00r0F      [ 4]  393 	sta	(_sincoshf_z_1_24 + 2)
   0286 B6*03         [ 3]  394 	lda	*(_sincoshf_sloc0_1_0 + 3)
   0288 C7r00r10      [ 4]  395 	sta	(_sincoshf_z_1_24 + 3)
   028B CCr03rCC      [ 4]  396 	jmp	00119$
   028E                     397 00115$:
                            398 ;../sincoshf.c:95: z=x*x;
   028E 32r00r00      [ 5]  399 	ldhx	_sincoshf_PARM_1
   0291 96r00r00      [ 5]  400 	sthx	___fsmul_PARM_1
   0294 32r00r02      [ 5]  401 	ldhx	(_sincoshf_PARM_1 + 2)
   0297 96r00r02      [ 5]  402 	sthx	(___fsmul_PARM_1 + 2)
   029A 32r00r00      [ 5]  403 	ldhx	_sincoshf_PARM_1
   029D 96r00r00      [ 5]  404 	sthx	___fsmul_PARM_2
   02A0 32r00r02      [ 5]  405 	ldhx	(_sincoshf_PARM_1 + 2)
   02A3 96r00r02      [ 5]  406 	sthx	(___fsmul_PARM_2 + 2)
                            407 ;../sincoshf.c:96: z=x+x*z*P(z)/Q(z);
   02A6 CDr00r00      [ 6]  408 	jsr	___fsmul
   02A9 B7*0C         [ 3]  409 	sta	*(_sincoshf_sloc3_1_0 + 3)
   02AB BF*0B         [ 3]  410 	stx	*(_sincoshf_sloc3_1_0 + 2)
   02AD 4E*00*0A      [ 6]  411 	mov	*___SDCC_hc08_ret2,*(_sincoshf_sloc3_1_0 + 1)
   02B0 4E*00*09      [ 6]  412 	mov	*___SDCC_hc08_ret3,*_sincoshf_sloc3_1_0
   02B3 32r00r00      [ 5]  413 	ldhx	_sincoshf_PARM_1
   02B6 96r00r00      [ 5]  414 	sthx	___fsmul_PARM_1
   02B9 32r00r02      [ 5]  415 	ldhx	(_sincoshf_PARM_1 + 2)
   02BC 96r00r02      [ 5]  416 	sthx	(___fsmul_PARM_1 + 2)
   02BF B6*09         [ 3]  417 	lda	*_sincoshf_sloc3_1_0
   02C1 C7r00r00      [ 4]  418 	sta	___fsmul_PARM_2
   02C4 B6*0A         [ 3]  419 	lda	*(_sincoshf_sloc3_1_0 + 1)
   02C6 C7r00r01      [ 4]  420 	sta	(___fsmul_PARM_2 + 1)
   02C9 B6*0B         [ 3]  421 	lda	*(_sincoshf_sloc3_1_0 + 2)
   02CB C7r00r02      [ 4]  422 	sta	(___fsmul_PARM_2 + 2)
   02CE B6*0C         [ 3]  423 	lda	*(_sincoshf_sloc3_1_0 + 3)
   02D0 C7r00r03      [ 4]  424 	sta	(___fsmul_PARM_2 + 3)
   02D3 CDr00r00      [ 6]  425 	jsr	___fsmul
   02D6 B7*08         [ 3]  426 	sta	*(_sincoshf_sloc2_1_0 + 3)
   02D8 BF*07         [ 3]  427 	stx	*(_sincoshf_sloc2_1_0 + 2)
   02DA 4E*00*06      [ 6]  428 	mov	*___SDCC_hc08_ret2,*(_sincoshf_sloc2_1_0 + 1)
   02DD 4E*00*05      [ 6]  429 	mov	*___SDCC_hc08_ret3,*_sincoshf_sloc2_1_0
   02E0 45 BE 42      [ 3]  430 	ldhx	#0xBE42
   02E3 96r00r00      [ 5]  431 	sthx	___fsmul_PARM_1
   02E6 45 E6 EA      [ 3]  432 	ldhx	#0xE6EA
   02E9 96r00r02      [ 5]  433 	sthx	(___fsmul_PARM_1 + 2)
   02EC B6*09         [ 3]  434 	lda	*_sincoshf_sloc3_1_0
   02EE C7r00r00      [ 4]  435 	sta	___fsmul_PARM_2
   02F1 B6*0A         [ 3]  436 	lda	*(_sincoshf_sloc3_1_0 + 1)
   02F3 C7r00r01      [ 4]  437 	sta	(___fsmul_PARM_2 + 1)
   02F6 B6*0B         [ 3]  438 	lda	*(_sincoshf_sloc3_1_0 + 2)
   02F8 C7r00r02      [ 4]  439 	sta	(___fsmul_PARM_2 + 2)
   02FB B6*0C         [ 3]  440 	lda	*(_sincoshf_sloc3_1_0 + 3)
   02FD C7r00r03      [ 4]  441 	sta	(___fsmul_PARM_2 + 3)
   0300 CDr00r00      [ 6]  442 	jsr	___fsmul
   0303 C7r00r03      [ 4]  443 	sta	(___fsadd_PARM_1 + 3)
   0306 CFr00r02      [ 4]  444 	stx	(___fsadd_PARM_1 + 2)
   0309 B6*00         [ 3]  445 	lda	*___SDCC_hc08_ret2
   030B C7r00r01      [ 4]  446 	sta	(___fsadd_PARM_1 + 1)
   030E B6*00         [ 3]  447 	lda	*___SDCC_hc08_ret3
   0310 C7r00r00      [ 4]  448 	sta	___fsadd_PARM_1
   0313 45 C0 E4      [ 3]  449 	ldhx	#0xC0E4
   0316 96r00r00      [ 5]  450 	sthx	___fsadd_PARM_2
   0319 45 69 F0      [ 3]  451 	ldhx	#0x69F0
   031C 96r00r02      [ 5]  452 	sthx	(___fsadd_PARM_2 + 2)
   031F CDr00r00      [ 6]  453 	jsr	___fsadd
   0322 C7r00r03      [ 4]  454 	sta	(___fsmul_PARM_2 + 3)
   0325 CFr00r02      [ 4]  455 	stx	(___fsmul_PARM_2 + 2)
   0328 B6*00         [ 3]  456 	lda	*___SDCC_hc08_ret2
   032A C7r00r01      [ 4]  457 	sta	(___fsmul_PARM_2 + 1)
   032D B6*00         [ 3]  458 	lda	*___SDCC_hc08_ret3
   032F C7r00r00      [ 4]  459 	sta	___fsmul_PARM_2
   0332 B6*05         [ 3]  460 	lda	*_sincoshf_sloc2_1_0
   0334 C7r00r00      [ 4]  461 	sta	___fsmul_PARM_1
   0337 B6*06         [ 3]  462 	lda	*(_sincoshf_sloc2_1_0 + 1)
   0339 C7r00r01      [ 4]  463 	sta	(___fsmul_PARM_1 + 1)
   033C B6*07         [ 3]  464 	lda	*(_sincoshf_sloc2_1_0 + 2)
   033E C7r00r02      [ 4]  465 	sta	(___fsmul_PARM_1 + 2)
   0341 B6*08         [ 3]  466 	lda	*(_sincoshf_sloc2_1_0 + 3)
   0343 C7r00r03      [ 4]  467 	sta	(___fsmul_PARM_1 + 3)
   0346 CDr00r00      [ 6]  468 	jsr	___fsmul
   0349 B7*08         [ 3]  469 	sta	*(_sincoshf_sloc2_1_0 + 3)
   034B BF*07         [ 3]  470 	stx	*(_sincoshf_sloc2_1_0 + 2)
   034D 4E*00*06      [ 6]  471 	mov	*___SDCC_hc08_ret2,*(_sincoshf_sloc2_1_0 + 1)
   0350 4E*00*05      [ 6]  472 	mov	*___SDCC_hc08_ret3,*_sincoshf_sloc2_1_0
   0353 B6*09         [ 3]  473 	lda	*_sincoshf_sloc3_1_0
   0355 C7r00r00      [ 4]  474 	sta	___fsadd_PARM_1
   0358 B6*0A         [ 3]  475 	lda	*(_sincoshf_sloc3_1_0 + 1)
   035A C7r00r01      [ 4]  476 	sta	(___fsadd_PARM_1 + 1)
   035D B6*0B         [ 3]  477 	lda	*(_sincoshf_sloc3_1_0 + 2)
   035F C7r00r02      [ 4]  478 	sta	(___fsadd_PARM_1 + 2)
   0362 B6*0C         [ 3]  479 	lda	*(_sincoshf_sloc3_1_0 + 3)
   0364 C7r00r03      [ 4]  480 	sta	(___fsadd_PARM_1 + 3)
   0367 45 C2 2B      [ 3]  481 	ldhx	#0xC22B
   036A 96r00r00      [ 5]  482 	sthx	___fsadd_PARM_2
   036D 45 4F 93      [ 3]  483 	ldhx	#0x4F93
   0370 96r00r02      [ 5]  484 	sthx	(___fsadd_PARM_2 + 2)
   0373 CDr00r00      [ 6]  485 	jsr	___fsadd
   0376 C7r00r03      [ 4]  486 	sta	(___fsdiv_PARM_2 + 3)
   0379 CFr00r02      [ 4]  487 	stx	(___fsdiv_PARM_2 + 2)
   037C B6*00         [ 3]  488 	lda	*___SDCC_hc08_ret2
   037E C7r00r01      [ 4]  489 	sta	(___fsdiv_PARM_2 + 1)
   0381 B6*00         [ 3]  490 	lda	*___SDCC_hc08_ret3
   0383 C7r00r00      [ 4]  491 	sta	___fsdiv_PARM_2
   0386 B6*05         [ 3]  492 	lda	*_sincoshf_sloc2_1_0
   0388 C7r00r00      [ 4]  493 	sta	___fsdiv_PARM_1
   038B B6*06         [ 3]  494 	lda	*(_sincoshf_sloc2_1_0 + 1)
   038D C7r00r01      [ 4]  495 	sta	(___fsdiv_PARM_1 + 1)
   0390 B6*07         [ 3]  496 	lda	*(_sincoshf_sloc2_1_0 + 2)
   0392 C7r00r02      [ 4]  497 	sta	(___fsdiv_PARM_1 + 2)
   0395 B6*08         [ 3]  498 	lda	*(_sincoshf_sloc2_1_0 + 3)
   0397 C7r00r03      [ 4]  499 	sta	(___fsdiv_PARM_1 + 3)
   039A CDr00r00      [ 6]  500 	jsr	___fsdiv
   039D C7r00r03      [ 4]  501 	sta	(___fsadd_PARM_2 + 3)
   03A0 CFr00r02      [ 4]  502 	stx	(___fsadd_PARM_2 + 2)
   03A3 B6*00         [ 3]  503 	lda	*___SDCC_hc08_ret2
   03A5 C7r00r01      [ 4]  504 	sta	(___fsadd_PARM_2 + 1)
   03A8 B6*00         [ 3]  505 	lda	*___SDCC_hc08_ret3
   03AA C7r00r00      [ 4]  506 	sta	___fsadd_PARM_2
   03AD 32r00r00      [ 5]  507 	ldhx	_sincoshf_PARM_1
   03B0 96r00r00      [ 5]  508 	sthx	___fsadd_PARM_1
   03B3 32r00r02      [ 5]  509 	ldhx	(_sincoshf_PARM_1 + 2)
   03B6 96r00r02      [ 5]  510 	sthx	(___fsadd_PARM_1 + 2)
   03B9 CDr00r00      [ 6]  511 	jsr	___fsadd
   03BC C7r00r10      [ 4]  512 	sta	(_sincoshf_z_1_24 + 3)
   03BF CFr00r0F      [ 4]  513 	stx	(_sincoshf_z_1_24 + 2)
   03C2 B6*00         [ 3]  514 	lda	*___SDCC_hc08_ret2
   03C4 C7r00r0E      [ 4]  515 	sta	(_sincoshf_z_1_24 + 1)
   03C7 B6*00         [ 3]  516 	lda	*___SDCC_hc08_ret3
   03C9 C7r00r0D      [ 4]  517 	sta	_sincoshf_z_1_24
   03CC                     518 00119$:
                            519 ;../sincoshf.c:99: return z;
   03CC C6r00r0D      [ 4]  520 	lda	_sincoshf_z_1_24
   03CF B7*00         [ 3]  521 	sta	*___SDCC_hc08_ret3
   03D1 C6r00r0E      [ 4]  522 	lda	(_sincoshf_z_1_24 + 1)
   03D4 B7*00         [ 3]  523 	sta	*___SDCC_hc08_ret2
   03D6 CEr00r0F      [ 4]  524 	ldx	(_sincoshf_z_1_24 + 2)
   03D9 C6r00r10      [ 4]  525 	lda	(_sincoshf_z_1_24 + 3)
   03DC 81            [ 6]  526 	rts
                            527 	.area CSEG    (CODE)
                            528 	.area CONST   (CODE)
                            529 	.area XINIT   (CODE)
                            530 	.area CABS    (ABS,CODE)
