                                      1 ;--------------------------------------------------------
                                      2 ; File Created by SDCC : free open source ANSI-C Compiler
                                      3 ; Version 3.5.0 #9253 (Apr  4 2022) (Linux)
                                      4 ; This file was generated Mon Apr  4 14:10:47 2022
                                      5 ;--------------------------------------------------------
                                      6 	.module atol
                                      7 	.optsdcc -mmcs51 --model-large
                                      8 	
                                      9 ;--------------------------------------------------------
                                     10 ; Public variables in this module
                                     11 ;--------------------------------------------------------
                                     12 	.globl _atol
                                     13 ;--------------------------------------------------------
                                     14 ; special function registers
                                     15 ;--------------------------------------------------------
                                     16 	.area RSEG    (ABS,DATA)
      000000                         17 	.org 0x0000
                                     18 ;--------------------------------------------------------
                                     19 ; special function bits
                                     20 ;--------------------------------------------------------
                                     21 	.area RSEG    (ABS,DATA)
      000000                         22 	.org 0x0000
                                     23 ;--------------------------------------------------------
                                     24 ; overlayable register banks
                                     25 ;--------------------------------------------------------
                                     26 	.area REG_BANK_0	(REL,OVR,DATA)
      000000                         27 	.ds 8
                                     28 ;--------------------------------------------------------
                                     29 ; internal ram data
                                     30 ;--------------------------------------------------------
                                     31 	.area DSEG    (DATA)
      000000                         32 _atol_sloc0_1_0:
      000000                         33 	.ds 4
                                     34 ;--------------------------------------------------------
                                     35 ; overlayable items in internal ram 
                                     36 ;--------------------------------------------------------
                                     37 ;--------------------------------------------------------
                                     38 ; indirectly addressable internal ram data
                                     39 ;--------------------------------------------------------
                                     40 	.area ISEG    (DATA)
                                     41 ;--------------------------------------------------------
                                     42 ; absolute internal ram data
                                     43 ;--------------------------------------------------------
                                     44 	.area IABS    (ABS,DATA)
                                     45 	.area IABS    (ABS,DATA)
                                     46 ;--------------------------------------------------------
                                     47 ; bit data
                                     48 ;--------------------------------------------------------
                                     49 	.area BSEG    (BIT)
      000000                         50 _atol_neg_1_37:
      000000                         51 	.ds 1
                                     52 ;--------------------------------------------------------
                                     53 ; paged external ram data
                                     54 ;--------------------------------------------------------
                                     55 	.area PSEG    (PAG,XDATA)
                                     56 ;--------------------------------------------------------
                                     57 ; external ram data
                                     58 ;--------------------------------------------------------
                                     59 	.area XSEG    (XDATA)
      000000                         60 _atol_nptr_1_36:
      000000                         61 	.ds 3
      000003                         62 _atol_ret_1_37:
      000003                         63 	.ds 4
                                     64 ;--------------------------------------------------------
                                     65 ; absolute external ram data
                                     66 ;--------------------------------------------------------
                                     67 	.area XABS    (ABS,XDATA)
                                     68 ;--------------------------------------------------------
                                     69 ; external initialized ram data
                                     70 ;--------------------------------------------------------
                                     71 	.area XISEG   (XDATA)
                                     72 	.area HOME    (CODE)
                                     73 	.area GSINIT0 (CODE)
                                     74 	.area GSINIT1 (CODE)
                                     75 	.area GSINIT2 (CODE)
                                     76 	.area GSINIT3 (CODE)
                                     77 	.area GSINIT4 (CODE)
                                     78 	.area GSINIT5 (CODE)
                                     79 	.area GSINIT  (CODE)
                                     80 	.area GSFINAL (CODE)
                                     81 	.area CSEG    (CODE)
                                     82 ;--------------------------------------------------------
                                     83 ; global & static initialisations
                                     84 ;--------------------------------------------------------
                                     85 	.area HOME    (CODE)
                                     86 	.area GSINIT  (CODE)
                                     87 	.area GSFINAL (CODE)
                                     88 	.area GSINIT  (CODE)
                                     89 ;--------------------------------------------------------
                                     90 ; Home
                                     91 ;--------------------------------------------------------
                                     92 	.area HOME    (CODE)
                                     93 	.area HOME    (CODE)
                                     94 ;--------------------------------------------------------
                                     95 ; code
                                     96 ;--------------------------------------------------------
                                     97 	.area CSEG    (CODE)
                                     98 ;------------------------------------------------------------
                                     99 ;Allocation info for local variables in function 'atol'
                                    100 ;------------------------------------------------------------
                                    101 ;sloc0                     Allocated with name '_atol_sloc0_1_0'
                                    102 ;nptr                      Allocated with name '_atol_nptr_1_36'
                                    103 ;__00010004                Allocated with name '_atol___00010004_4_43'
                                    104 ;__00010001                Allocated with name '_atol___00010001_4_40'
                                    105 ;ret                       Allocated with name '_atol_ret_1_37'
                                    106 ;__00020002                Allocated with name '_atol___00020002_3_39'
                                    107 ;c                         Allocated with name '_atol_c_3_39'
                                    108 ;__00020005                Allocated with name '_atol___00020005_3_42'
                                    109 ;c                         Allocated with name '_atol_c_3_42'
                                    110 ;------------------------------------------------------------
                                    111 ;	atol.c:34: long int atol(const char *nptr)
                                    112 ;	-----------------------------------------
                                    113 ;	 function atol
                                    114 ;	-----------------------------------------
      000000                        115 _atol:
                           000007   116 	ar7 = 0x07
                           000006   117 	ar6 = 0x06
                           000005   118 	ar5 = 0x05
                           000004   119 	ar4 = 0x04
                           000003   120 	ar3 = 0x03
                           000002   121 	ar2 = 0x02
                           000001   122 	ar1 = 0x01
                           000000   123 	ar0 = 0x00
      000000 AF F0            [24]  124 	mov	r7,b
      000002 AE 83            [24]  125 	mov	r6,dph
      000004 E5 82            [12]  126 	mov	a,dpl
      000006 90r00r00         [24]  127 	mov	dptr,#_atol_nptr_1_36
      000009 F0               [24]  128 	movx	@dptr,a
      00000A EE               [12]  129 	mov	a,r6
      00000B A3               [24]  130 	inc	dptr
      00000C F0               [24]  131 	movx	@dptr,a
      00000D EF               [12]  132 	mov	a,r7
      00000E A3               [24]  133 	inc	dptr
      00000F F0               [24]  134 	movx	@dptr,a
                                    135 ;	atol.c:36: long int ret = 0;
      000010 90r00r03         [24]  136 	mov	dptr,#_atol_ret_1_37
      000013 E4               [12]  137 	clr	a
      000014 F0               [24]  138 	movx	@dptr,a
      000015 A3               [24]  139 	inc	dptr
      000016 F0               [24]  140 	movx	@dptr,a
      000017 A3               [24]  141 	inc	dptr
      000018 F0               [24]  142 	movx	@dptr,a
      000019 A3               [24]  143 	inc	dptr
      00001A F0               [24]  144 	movx	@dptr,a
                                    145 ;	atol.c:39: while (isblank (*nptr))
      00001B 90r00r00         [24]  146 	mov	dptr,#_atol_nptr_1_36
      00001E E0               [24]  147 	movx	a,@dptr
      00001F FD               [12]  148 	mov	r5,a
      000020 A3               [24]  149 	inc	dptr
      000021 E0               [24]  150 	movx	a,@dptr
      000022 FE               [12]  151 	mov	r6,a
      000023 A3               [24]  152 	inc	dptr
      000024 E0               [24]  153 	movx	a,@dptr
      000025 FF               [12]  154 	mov	r7,a
      000026                        155 00101$:
      000026 8D 82            [24]  156 	mov	dpl,r5
      000028 8E 83            [24]  157 	mov	dph,r6
      00002A 8F F0            [24]  158 	mov	b,r7
      00002C 12r00r00         [24]  159 	lcall	__gptrget
      00002F FC               [12]  160 	mov	r4,a
      000030 33               [12]  161 	rlc	a
      000031 95 E0            [12]  162 	subb	a,acc
      000033 FB               [12]  163 	mov	r3,a
                                    164 ;	../../device/include/ctype.h:53: return ((unsigned char)c == ' ' || (unsigned char)c == '\t');
      000034 BC 20 02         [24]  165 	cjne	r4,#0x20,00147$
      000037 80 03            [24]  166 	sjmp	00115$
      000039                        167 00147$:
      000039 BC 09 12         [24]  168 	cjne	r4,#0x09,00131$
      00003C                        169 00115$:
                                    170 ;	atol.c:40: nptr++;
      00003C 0D               [12]  171 	inc	r5
      00003D BD 00 01         [24]  172 	cjne	r5,#0x00,00150$
      000040 0E               [12]  173 	inc	r6
      000041                        174 00150$:
      000041 90r00r00         [24]  175 	mov	dptr,#_atol_nptr_1_36
      000044 ED               [12]  176 	mov	a,r5
      000045 F0               [24]  177 	movx	@dptr,a
      000046 EE               [12]  178 	mov	a,r6
      000047 A3               [24]  179 	inc	dptr
      000048 F0               [24]  180 	movx	@dptr,a
      000049 EF               [12]  181 	mov	a,r7
      00004A A3               [24]  182 	inc	dptr
      00004B F0               [24]  183 	movx	@dptr,a
      00004C 80 D8            [24]  184 	sjmp	00101$
      00004E                        185 00131$:
      00004E 90r00r00         [24]  186 	mov	dptr,#_atol_nptr_1_36
      000051 ED               [12]  187 	mov	a,r5
      000052 F0               [24]  188 	movx	@dptr,a
      000053 EE               [12]  189 	mov	a,r6
      000054 A3               [24]  190 	inc	dptr
      000055 F0               [24]  191 	movx	@dptr,a
      000056 EF               [12]  192 	mov	a,r7
      000057 A3               [24]  193 	inc	dptr
      000058 F0               [24]  194 	movx	@dptr,a
                                    195 ;	atol.c:42: neg = (*nptr == '-');
      000059 8D 02            [24]  196 	mov	ar2,r5
      00005B 8E 03            [24]  197 	mov	ar3,r6
      00005D 8F 04            [24]  198 	mov	ar4,r7
      00005F 8D 82            [24]  199 	mov	dpl,r5
      000061 8E 83            [24]  200 	mov	dph,r6
      000063 8F F0            [24]  201 	mov	b,r7
      000065 12r00r00         [24]  202 	lcall	__gptrget
      000068 FF               [12]  203 	mov	r7,a
      000069 BF 2D 03         [24]  204 	cjne	r7,#0x2D,00151$
      00006C D3               [12]  205 	setb	c
      00006D 80 01            [24]  206 	sjmp	00152$
      00006F                        207 00151$:
      00006F C3               [12]  208 	clr	c
      000070                        209 00152$:
      000070 92*00            [24]  210 	mov	_atol_neg_1_37,c
                                    211 ;	atol.c:44: if (*nptr == '-' || *nptr == '+')
      000072 BF 2D 02         [24]  212 	cjne	r7,#0x2D,00153$
      000075 80 03            [24]  213 	sjmp	00104$
      000077                        214 00153$:
      000077 BF 2B 0E         [24]  215 	cjne	r7,#0x2B,00129$
      00007A                        216 00104$:
                                    217 ;	atol.c:45: nptr++;
      00007A 90r00r00         [24]  218 	mov	dptr,#_atol_nptr_1_36
      00007D 74 01            [12]  219 	mov	a,#0x01
      00007F 2A               [12]  220 	add	a,r2
      000080 F0               [24]  221 	movx	@dptr,a
      000081 E4               [12]  222 	clr	a
      000082 3B               [12]  223 	addc	a,r3
      000083 A3               [24]  224 	inc	dptr
      000084 F0               [24]  225 	movx	@dptr,a
      000085 EC               [12]  226 	mov	a,r4
      000086 A3               [24]  227 	inc	dptr
      000087 F0               [24]  228 	movx	@dptr,a
                                    229 ;	atol.c:47: while (isdigit (*nptr))
      000088                        230 00129$:
      000088 90r00r00         [24]  231 	mov	dptr,#_atol_nptr_1_36
      00008B E0               [24]  232 	movx	a,@dptr
      00008C FD               [12]  233 	mov	r5,a
      00008D A3               [24]  234 	inc	dptr
      00008E E0               [24]  235 	movx	a,@dptr
      00008F FE               [12]  236 	mov	r6,a
      000090 A3               [24]  237 	inc	dptr
      000091 E0               [24]  238 	movx	a,@dptr
      000092 FF               [12]  239 	mov	r7,a
      000093                        240 00107$:
      000093 8D 82            [24]  241 	mov	dpl,r5
      000095 8E 83            [24]  242 	mov	dph,r6
      000097 8F F0            [24]  243 	mov	b,r7
      000099 12r00r00         [24]  244 	lcall	__gptrget
      00009C FC               [12]  245 	mov	r4,a
      00009D 33               [12]  246 	rlc	a
      00009E 95 E0            [12]  247 	subb	a,acc
      0000A0 FB               [12]  248 	mov	r3,a
                                    249 ;	../../device/include/ctype.h:62: return ((unsigned char)c >= '0' && (unsigned char)c <= '9');
      0000A1 BC 30 00         [24]  250 	cjne	r4,#0x30,00156$
      0000A4                        251 00156$:
      0000A4 50 03            [24]  252 	jnc	00157$
      0000A6 02r01r32         [24]  253 	ljmp	00132$
      0000A9                        254 00157$:
      0000A9 EC               [12]  255 	mov	a,r4
      0000AA 24 C6            [12]  256 	add	a,#0xff - 0x39
      0000AC 50 03            [24]  257 	jnc	00158$
      0000AE 02r01r32         [24]  258 	ljmp	00132$
      0000B1                        259 00158$:
                                    260 ;	atol.c:48: ret = ret * 10 + (*(nptr++) - '0');
      0000B1 90r00r03         [24]  261 	mov	dptr,#_atol_ret_1_37
      0000B4 E0               [24]  262 	movx	a,@dptr
      0000B5 F9               [12]  263 	mov	r1,a
      0000B6 A3               [24]  264 	inc	dptr
      0000B7 E0               [24]  265 	movx	a,@dptr
      0000B8 FA               [12]  266 	mov	r2,a
      0000B9 A3               [24]  267 	inc	dptr
      0000BA E0               [24]  268 	movx	a,@dptr
      0000BB FB               [12]  269 	mov	r3,a
      0000BC A3               [24]  270 	inc	dptr
      0000BD E0               [24]  271 	movx	a,@dptr
      0000BE FC               [12]  272 	mov	r4,a
      0000BF 90r00r00         [24]  273 	mov	dptr,#__mullong_PARM_2
      0000C2 E9               [12]  274 	mov	a,r1
      0000C3 F0               [24]  275 	movx	@dptr,a
      0000C4 EA               [12]  276 	mov	a,r2
      0000C5 A3               [24]  277 	inc	dptr
      0000C6 F0               [24]  278 	movx	@dptr,a
      0000C7 EB               [12]  279 	mov	a,r3
      0000C8 A3               [24]  280 	inc	dptr
      0000C9 F0               [24]  281 	movx	@dptr,a
      0000CA EC               [12]  282 	mov	a,r4
      0000CB A3               [24]  283 	inc	dptr
      0000CC F0               [24]  284 	movx	@dptr,a
      0000CD 90 00 0A         [24]  285 	mov	dptr,#(0x0A&0x00ff)
      0000D0 E4               [12]  286 	clr	a
      0000D1 F5 F0            [12]  287 	mov	b,a
      0000D3 C0 07            [24]  288 	push	ar7
      0000D5 C0 06            [24]  289 	push	ar6
      0000D7 C0 05            [24]  290 	push	ar5
      0000D9 12r00r00         [24]  291 	lcall	__mullong
      0000DC 85 82*00         [24]  292 	mov	_atol_sloc0_1_0,dpl
      0000DF 85 83*01         [24]  293 	mov	(_atol_sloc0_1_0 + 1),dph
      0000E2 85 F0*02         [24]  294 	mov	(_atol_sloc0_1_0 + 2),b
      0000E5 F5*03            [12]  295 	mov	(_atol_sloc0_1_0 + 3),a
      0000E7 D0 05            [24]  296 	pop	ar5
      0000E9 D0 06            [24]  297 	pop	ar6
      0000EB D0 07            [24]  298 	pop	ar7
      0000ED 8D 82            [24]  299 	mov	dpl,r5
      0000EF 8E 83            [24]  300 	mov	dph,r6
      0000F1 8F F0            [24]  301 	mov	b,r7
      0000F3 12r00r00         [24]  302 	lcall	__gptrget
      0000F6 F8               [12]  303 	mov	r0,a
      0000F7 A3               [24]  304 	inc	dptr
      0000F8 AD 82            [24]  305 	mov	r5,dpl
      0000FA AE 83            [24]  306 	mov	r6,dph
      0000FC 90r00r00         [24]  307 	mov	dptr,#_atol_nptr_1_36
      0000FF ED               [12]  308 	mov	a,r5
      000100 F0               [24]  309 	movx	@dptr,a
      000101 EE               [12]  310 	mov	a,r6
      000102 A3               [24]  311 	inc	dptr
      000103 F0               [24]  312 	movx	@dptr,a
      000104 EF               [12]  313 	mov	a,r7
      000105 A3               [24]  314 	inc	dptr
      000106 F0               [24]  315 	movx	@dptr,a
      000107 E8               [12]  316 	mov	a,r0
      000108 33               [12]  317 	rlc	a
      000109 95 E0            [12]  318 	subb	a,acc
      00010B FC               [12]  319 	mov	r4,a
      00010C E8               [12]  320 	mov	a,r0
      00010D 24 D0            [12]  321 	add	a,#0xD0
      00010F F8               [12]  322 	mov	r0,a
      000110 EC               [12]  323 	mov	a,r4
      000111 34 FF            [12]  324 	addc	a,#0xFF
      000113 FC               [12]  325 	mov	r4,a
      000114 33               [12]  326 	rlc	a
      000115 95 E0            [12]  327 	subb	a,acc
      000117 FB               [12]  328 	mov	r3,a
      000118 FA               [12]  329 	mov	r2,a
      000119 90r00r03         [24]  330 	mov	dptr,#_atol_ret_1_37
      00011C E8               [12]  331 	mov	a,r0
      00011D 25*00            [12]  332 	add	a,_atol_sloc0_1_0
      00011F F0               [24]  333 	movx	@dptr,a
      000120 EC               [12]  334 	mov	a,r4
      000121 35*01            [12]  335 	addc	a,(_atol_sloc0_1_0 + 1)
      000123 A3               [24]  336 	inc	dptr
      000124 F0               [24]  337 	movx	@dptr,a
      000125 EB               [12]  338 	mov	a,r3
      000126 35*02            [12]  339 	addc	a,(_atol_sloc0_1_0 + 2)
      000128 A3               [24]  340 	inc	dptr
      000129 F0               [24]  341 	movx	@dptr,a
      00012A EA               [12]  342 	mov	a,r2
      00012B 35*03            [12]  343 	addc	a,(_atol_sloc0_1_0 + 3)
      00012D A3               [24]  344 	inc	dptr
      00012E F0               [24]  345 	movx	@dptr,a
      00012F 02r00r93         [24]  346 	ljmp	00107$
      000132                        347 00132$:
      000132 90r00r00         [24]  348 	mov	dptr,#_atol_nptr_1_36
      000135 ED               [12]  349 	mov	a,r5
      000136 F0               [24]  350 	movx	@dptr,a
      000137 EE               [12]  351 	mov	a,r6
      000138 A3               [24]  352 	inc	dptr
      000139 F0               [24]  353 	movx	@dptr,a
      00013A EF               [12]  354 	mov	a,r7
      00013B A3               [24]  355 	inc	dptr
      00013C F0               [24]  356 	movx	@dptr,a
                                    357 ;	atol.c:50: return (neg ? -ret : ret); // Since -LONG_MIN is LONG_MIN in sdcc, the result value always turns out ok.
      00013D 30*00 1D         [24]  358 	jnb	_atol_neg_1_37,00120$
      000140 90r00r03         [24]  359 	mov	dptr,#_atol_ret_1_37
      000143 E0               [24]  360 	movx	a,@dptr
      000144 FC               [12]  361 	mov	r4,a
      000145 A3               [24]  362 	inc	dptr
      000146 E0               [24]  363 	movx	a,@dptr
      000147 FD               [12]  364 	mov	r5,a
      000148 A3               [24]  365 	inc	dptr
      000149 E0               [24]  366 	movx	a,@dptr
      00014A FE               [12]  367 	mov	r6,a
      00014B A3               [24]  368 	inc	dptr
      00014C E0               [24]  369 	movx	a,@dptr
      00014D FF               [12]  370 	mov	r7,a
      00014E C3               [12]  371 	clr	c
      00014F E4               [12]  372 	clr	a
      000150 9C               [12]  373 	subb	a,r4
      000151 FC               [12]  374 	mov	r4,a
      000152 E4               [12]  375 	clr	a
      000153 9D               [12]  376 	subb	a,r5
      000154 FD               [12]  377 	mov	r5,a
      000155 E4               [12]  378 	clr	a
      000156 9E               [12]  379 	subb	a,r6
      000157 FE               [12]  380 	mov	r6,a
      000158 E4               [12]  381 	clr	a
      000159 9F               [12]  382 	subb	a,r7
      00015A FF               [12]  383 	mov	r7,a
      00015B 80 0E            [24]  384 	sjmp	00121$
      00015D                        385 00120$:
      00015D 90r00r03         [24]  386 	mov	dptr,#_atol_ret_1_37
      000160 E0               [24]  387 	movx	a,@dptr
      000161 FC               [12]  388 	mov	r4,a
      000162 A3               [24]  389 	inc	dptr
      000163 E0               [24]  390 	movx	a,@dptr
      000164 FD               [12]  391 	mov	r5,a
      000165 A3               [24]  392 	inc	dptr
      000166 E0               [24]  393 	movx	a,@dptr
      000167 FE               [12]  394 	mov	r6,a
      000168 A3               [24]  395 	inc	dptr
      000169 E0               [24]  396 	movx	a,@dptr
      00016A FF               [12]  397 	mov	r7,a
      00016B                        398 00121$:
      00016B 8C 82            [24]  399 	mov	dpl,r4
      00016D 8D 83            [24]  400 	mov	dph,r5
      00016F 8E F0            [24]  401 	mov	b,r6
      000171 EF               [12]  402 	mov	a,r7
      000172 22               [24]  403 	ret
                                    404 	.area CSEG    (CODE)
                                    405 	.area CONST   (CODE)
                                    406 	.area XINIT   (CODE)
                                    407 	.area CABS    (ABS,CODE)
