                              1 ;--------------------------------------------------------
                              2 ; File Created by SDCC : free open source ANSI-C Compiler
                              3 ; Version 3.5.0 #9253 (Apr  4 2022) (Linux)
                              4 ; This file was generated Mon Apr  4 14:10:31 2022
                              5 ;--------------------------------------------------------
                              6 	.module _fsdiv
                              7 	.optsdcc -mhc08
                              8 	
                              9 	.area HOME    (CODE)
                             10 	.area GSINIT0 (CODE)
                             11 	.area GSINIT  (CODE)
                             12 	.area GSFINAL (CODE)
                             13 	.area CSEG    (CODE)
                             14 	.area XINIT   (CODE)
                             15 	.area CONST   (CODE)
                             16 	.area DSEG    (PAG)
                             17 	.area OSEG    (PAG, OVR)
                             18 	.area XSEG
                             19 	.area XISEG
                             20 ;--------------------------------------------------------
                             21 ; Public variables in this module
                             22 ;--------------------------------------------------------
                             23 	.globl ___fsdiv_PARM_2
                             24 	.globl ___fsdiv_PARM_1
                             25 	.globl ___fsdiv
                             26 ;--------------------------------------------------------
                             27 ; ram data
                             28 ;--------------------------------------------------------
                             29 	.area DSEG    (PAG)
                             30 ;--------------------------------------------------------
                             31 ; overlayable items in ram 
                             32 ;--------------------------------------------------------
                             33 	.area	OSEG    (PAG, OVR)
   0000                      34 ___fsdiv_sloc0_1_0:
   0000                      35 	.ds 4
   0004                      36 ___fsdiv_sloc1_1_0:
   0004                      37 	.ds 4
                             38 ;--------------------------------------------------------
                             39 ; absolute ram data
                             40 ;--------------------------------------------------------
                             41 	.area IABS    (ABS)
                             42 	.area IABS    (ABS)
                             43 ;--------------------------------------------------------
                             44 ; absolute external ram data
                             45 ;--------------------------------------------------------
                             46 	.area XABS    (ABS)
                             47 ;--------------------------------------------------------
                             48 ; external initialized ram data
                             49 ;--------------------------------------------------------
                             50 	.area XISEG
                             51 ;--------------------------------------------------------
                             52 ; extended address mode data
                             53 ;--------------------------------------------------------
                             54 	.area XSEG
   0000                      55 ___fsdiv_PARM_1:
   0000                      56 	.ds 4
   0004                      57 ___fsdiv_PARM_2:
   0004                      58 	.ds 4
   0008                      59 ___fsdiv_fl1_1_21:
   0008                      60 	.ds 4
   000C                      61 ___fsdiv_fl2_1_21:
   000C                      62 	.ds 4
   0010                      63 ___fsdiv_result_1_21:
   0010                      64 	.ds 4
   0014                      65 ___fsdiv_mask_1_21:
   0014                      66 	.ds 4
   0018                      67 ___fsdiv_mant1_1_21:
   0018                      68 	.ds 4
   001C                      69 ___fsdiv_mant2_1_21:
   001C                      70 	.ds 4
   0020                      71 ___fsdiv_exp_1_21:
   0020                      72 	.ds 2
   0022                      73 ___fsdiv_sign_1_21:
   0022                      74 	.ds 1
                             75 ;--------------------------------------------------------
                             76 ; global & static initialisations
                             77 ;--------------------------------------------------------
                             78 	.area HOME    (CODE)
                             79 	.area GSINIT  (CODE)
                             80 	.area GSFINAL (CODE)
                             81 	.area GSINIT  (CODE)
                             82 ;--------------------------------------------------------
                             83 ; Home
                             84 ;--------------------------------------------------------
                             85 	.area HOME    (CODE)
                             86 	.area HOME    (CODE)
                             87 ;--------------------------------------------------------
                             88 ; code
                             89 ;--------------------------------------------------------
                             90 	.area CSEG    (CODE)
                             91 ;------------------------------------------------------------
                             92 ;Allocation info for local variables in function '__fsdiv'
                             93 ;------------------------------------------------------------
                             94 ;a1                        Allocated with name '___fsdiv_PARM_1'
                             95 ;a2                        Allocated with name '___fsdiv_PARM_2'
                             96 ;fl1                       Allocated with name '___fsdiv_fl1_1_21'
                             97 ;fl2                       Allocated with name '___fsdiv_fl2_1_21'
                             98 ;result                    Allocated with name '___fsdiv_result_1_21'
                             99 ;mask                      Allocated with name '___fsdiv_mask_1_21'
                            100 ;mant1                     Allocated with name '___fsdiv_mant1_1_21'
                            101 ;mant2                     Allocated with name '___fsdiv_mant2_1_21'
                            102 ;exp                       Allocated with name '___fsdiv_exp_1_21'
                            103 ;sign                      Allocated with name '___fsdiv_sign_1_21'
                            104 ;sloc0                     Allocated with name '___fsdiv_sloc0_1_0'
                            105 ;sloc1                     Allocated with name '___fsdiv_sloc1_1_0'
                            106 ;------------------------------------------------------------
                            107 ;../_fsdiv.c:274: float __fsdiv (float a1, float a2)
                            108 ;	-----------------------------------------
                            109 ;	 function __fsdiv
                            110 ;	-----------------------------------------
                            111 ;	Register assignment is optimal.
                            112 ;	Stack space usage: 0 bytes.
   0000                     113 ___fsdiv:
                            114 ;../_fsdiv.c:283: fl1.f = a1;
   0000 C6r00r00      [ 4]  115 	lda	___fsdiv_PARM_1
   0003 C7r00r08      [ 4]  116 	sta	___fsdiv_fl1_1_21
   0006 C6r00r01      [ 4]  117 	lda	(___fsdiv_PARM_1 + 1)
   0009 C7r00r09      [ 4]  118 	sta	(___fsdiv_fl1_1_21 + 1)
   000C C6r00r02      [ 4]  119 	lda	(___fsdiv_PARM_1 + 2)
   000F C7r00r0A      [ 4]  120 	sta	(___fsdiv_fl1_1_21 + 2)
   0012 C6r00r03      [ 4]  121 	lda	(___fsdiv_PARM_1 + 3)
   0015 C7r00r0B      [ 4]  122 	sta	(___fsdiv_fl1_1_21 + 3)
                            123 ;../_fsdiv.c:284: fl2.f = a2;
   0018 C6r00r04      [ 4]  124 	lda	___fsdiv_PARM_2
   001B C7r00r0C      [ 4]  125 	sta	___fsdiv_fl2_1_21
   001E C6r00r05      [ 4]  126 	lda	(___fsdiv_PARM_2 + 1)
   0021 C7r00r0D      [ 4]  127 	sta	(___fsdiv_fl2_1_21 + 1)
   0024 C6r00r06      [ 4]  128 	lda	(___fsdiv_PARM_2 + 2)
   0027 C7r00r0E      [ 4]  129 	sta	(___fsdiv_fl2_1_21 + 2)
   002A C6r00r07      [ 4]  130 	lda	(___fsdiv_PARM_2 + 3)
   002D C7r00r0F      [ 4]  131 	sta	(___fsdiv_fl2_1_21 + 3)
                            132 ;../_fsdiv.c:287: exp = EXP (fl1.l) ;
   0030 C6r00r08      [ 4]  133 	lda	___fsdiv_fl1_1_21
   0033 B7*00         [ 3]  134 	sta	*___fsdiv_sloc0_1_0
   0035 C6r00r09      [ 4]  135 	lda	(___fsdiv_fl1_1_21 + 1)
   0038 B7*01         [ 3]  136 	sta	*(___fsdiv_sloc0_1_0 + 1)
   003A C6r00r0A      [ 4]  137 	lda	(___fsdiv_fl1_1_21 + 2)
   003D B7*02         [ 3]  138 	sta	*(___fsdiv_sloc0_1_0 + 2)
   003F C6r00r0B      [ 4]  139 	lda	(___fsdiv_fl1_1_21 + 3)
   0042 B7*03         [ 3]  140 	sta	*(___fsdiv_sloc0_1_0 + 3)
   0044 B6*01         [ 3]  141 	lda	*(___fsdiv_sloc0_1_0 + 1)
   0046 BE*00         [ 3]  142 	ldx	*___fsdiv_sloc0_1_0
   0048 48            [ 1]  143 	lsla
   0049 9F            [ 1]  144 	txa
   004A 49            [ 1]  145 	rola
   004B 5F            [ 1]  146 	clrx
   004C 59            [ 1]  147 	rolx
   004D B7*03         [ 3]  148 	sta	*(___fsdiv_sloc0_1_0 + 3)
   004F BF*02         [ 3]  149 	stx	*(___fsdiv_sloc0_1_0 + 2)
   0051 6E 00*01      [ 4]  150 	mov	#0x00,*(___fsdiv_sloc0_1_0 + 1)
   0054 6E 00*00      [ 4]  151 	mov	#0x00,*___fsdiv_sloc0_1_0
   0057 6E 00*02      [ 4]  152 	mov	#0x00,*(___fsdiv_sloc0_1_0 + 2)
   005A 6E 00*01      [ 4]  153 	mov	#0x00,*(___fsdiv_sloc0_1_0 + 1)
   005D 6E 00*00      [ 4]  154 	mov	#0x00,*___fsdiv_sloc0_1_0
   0060 B6*03         [ 3]  155 	lda	*(___fsdiv_sloc0_1_0 + 3)
   0062 C7r00r21      [ 4]  156 	sta	(___fsdiv_exp_1_21 + 1)
   0065 B6*02         [ 3]  157 	lda	*(___fsdiv_sloc0_1_0 + 2)
   0067 C7r00r20      [ 4]  158 	sta	___fsdiv_exp_1_21
                            159 ;../_fsdiv.c:288: exp -= EXP (fl2.l);
   006A C6r00r0C      [ 4]  160 	lda	___fsdiv_fl2_1_21
   006D B7*00         [ 3]  161 	sta	*___fsdiv_sloc0_1_0
   006F C6r00r0D      [ 4]  162 	lda	(___fsdiv_fl2_1_21 + 1)
   0072 B7*01         [ 3]  163 	sta	*(___fsdiv_sloc0_1_0 + 1)
   0074 C6r00r0E      [ 4]  164 	lda	(___fsdiv_fl2_1_21 + 2)
   0077 B7*02         [ 3]  165 	sta	*(___fsdiv_sloc0_1_0 + 2)
   0079 C6r00r0F      [ 4]  166 	lda	(___fsdiv_fl2_1_21 + 3)
   007C B7*03         [ 3]  167 	sta	*(___fsdiv_sloc0_1_0 + 3)
   007E B6*01         [ 3]  168 	lda	*(___fsdiv_sloc0_1_0 + 1)
   0080 BE*00         [ 3]  169 	ldx	*___fsdiv_sloc0_1_0
   0082 48            [ 1]  170 	lsla
   0083 9F            [ 1]  171 	txa
   0084 49            [ 1]  172 	rola
   0085 5F            [ 1]  173 	clrx
   0086 59            [ 1]  174 	rolx
   0087 B7*03         [ 3]  175 	sta	*(___fsdiv_sloc0_1_0 + 3)
   0089 BF*02         [ 3]  176 	stx	*(___fsdiv_sloc0_1_0 + 2)
   008B 6E 00*01      [ 4]  177 	mov	#0x00,*(___fsdiv_sloc0_1_0 + 1)
   008E 6E 00*00      [ 4]  178 	mov	#0x00,*___fsdiv_sloc0_1_0
   0091 6E 00*02      [ 4]  179 	mov	#0x00,*(___fsdiv_sloc0_1_0 + 2)
   0094 6E 00*01      [ 4]  180 	mov	#0x00,*(___fsdiv_sloc0_1_0 + 1)
   0097 6E 00*00      [ 4]  181 	mov	#0x00,*___fsdiv_sloc0_1_0
   009A C6r00r21      [ 4]  182 	lda	(___fsdiv_exp_1_21 + 1)
   009D B7*07         [ 3]  183 	sta	*(___fsdiv_sloc1_1_0 + 3)
   009F C6r00r20      [ 4]  184 	lda	___fsdiv_exp_1_21
   00A2 B7*06         [ 3]  185 	sta	*(___fsdiv_sloc1_1_0 + 2)
   00A4 49            [ 1]  186 	rola	
   00A5 4F            [ 1]  187 	clra	
   00A6 A2 00         [ 2]  188 	sbc	#0x00
   00A8 B7*05         [ 3]  189 	sta	*(___fsdiv_sloc1_1_0 + 1)
   00AA B7*04         [ 3]  190 	sta	*___fsdiv_sloc1_1_0
   00AC B6*07         [ 3]  191 	lda	*(___fsdiv_sloc1_1_0 + 3)
   00AE B0*03         [ 3]  192 	sub	*(___fsdiv_sloc0_1_0 + 3)
   00B0 B7*07         [ 3]  193 	sta	*(___fsdiv_sloc1_1_0 + 3)
   00B2 B6*06         [ 3]  194 	lda	*(___fsdiv_sloc1_1_0 + 2)
   00B4 B2*02         [ 3]  195 	sbc	*(___fsdiv_sloc0_1_0 + 2)
   00B6 B7*06         [ 3]  196 	sta	*(___fsdiv_sloc1_1_0 + 2)
   00B8 B6*05         [ 3]  197 	lda	*(___fsdiv_sloc1_1_0 + 1)
   00BA B2*01         [ 3]  198 	sbc	*(___fsdiv_sloc0_1_0 + 1)
   00BC B7*05         [ 3]  199 	sta	*(___fsdiv_sloc1_1_0 + 1)
   00BE B6*04         [ 3]  200 	lda	*___fsdiv_sloc1_1_0
   00C0 B2*00         [ 3]  201 	sbc	*___fsdiv_sloc0_1_0
   00C2 B7*04         [ 3]  202 	sta	*___fsdiv_sloc1_1_0
   00C4 B6*07         [ 3]  203 	lda	*(___fsdiv_sloc1_1_0 + 3)
   00C6 C7r00r21      [ 4]  204 	sta	(___fsdiv_exp_1_21 + 1)
   00C9 B6*06         [ 3]  205 	lda	*(___fsdiv_sloc1_1_0 + 2)
   00CB C7r00r20      [ 4]  206 	sta	___fsdiv_exp_1_21
                            207 ;../_fsdiv.c:289: exp += EXCESS;
   00CE 45r00r20      [ 3]  208 	ldhx	#___fsdiv_exp_1_21
   00D1 E6 01         [ 3]  209 	lda	1,x
   00D3 AB 7E         [ 2]  210 	add	#0x7E
   00D5 E7 01         [ 3]  211 	sta	1,x
   00D7 24 01         [ 3]  212 	bcc	00164$
   00D9 7C            [ 3]  213 	inc	,x
   00DA                     214 00164$:
                            215 ;../_fsdiv.c:292: sign = SIGN (fl1.l) ^ SIGN (fl2.l);
   00DA C6r00r08      [ 4]  216 	lda	___fsdiv_fl1_1_21
   00DD B7*04         [ 3]  217 	sta	*___fsdiv_sloc1_1_0
   00DF C6r00r09      [ 4]  218 	lda	(___fsdiv_fl1_1_21 + 1)
   00E2 B7*05         [ 3]  219 	sta	*(___fsdiv_sloc1_1_0 + 1)
   00E4 C6r00r0A      [ 4]  220 	lda	(___fsdiv_fl1_1_21 + 2)
   00E7 B7*06         [ 3]  221 	sta	*(___fsdiv_sloc1_1_0 + 2)
   00E9 C6r00r0B      [ 4]  222 	lda	(___fsdiv_fl1_1_21 + 3)
   00EC B7*07         [ 3]  223 	sta	*(___fsdiv_sloc1_1_0 + 3)
   00EE B6*04         [ 3]  224 	lda	*___fsdiv_sloc1_1_0
   00F0 49            [ 1]  225 	rola
   00F1 4F            [ 1]  226 	clra
   00F2 49            [ 1]  227 	rola
   00F3 B7*04         [ 3]  228 	sta	*___fsdiv_sloc1_1_0
   00F5 C6r00r0C      [ 4]  229 	lda	___fsdiv_fl2_1_21
   00F8 B7*00         [ 3]  230 	sta	*___fsdiv_sloc0_1_0
   00FA C6r00r0D      [ 4]  231 	lda	(___fsdiv_fl2_1_21 + 1)
   00FD B7*01         [ 3]  232 	sta	*(___fsdiv_sloc0_1_0 + 1)
   00FF C6r00r0E      [ 4]  233 	lda	(___fsdiv_fl2_1_21 + 2)
   0102 B7*02         [ 3]  234 	sta	*(___fsdiv_sloc0_1_0 + 2)
   0104 C6r00r0F      [ 4]  235 	lda	(___fsdiv_fl2_1_21 + 3)
   0107 B7*03         [ 3]  236 	sta	*(___fsdiv_sloc0_1_0 + 3)
   0109 B6*00         [ 3]  237 	lda	*___fsdiv_sloc0_1_0
   010B 49            [ 1]  238 	rola
   010C 4F            [ 1]  239 	clra
   010D 49            [ 1]  240 	rola
   010E B8*04         [ 3]  241 	eor	*___fsdiv_sloc1_1_0
   0110 C7r00r22      [ 4]  242 	sta	___fsdiv_sign_1_21
                            243 ;../_fsdiv.c:295: if (!fl2.l)
   0113 C6r00r0C      [ 4]  244 	lda	___fsdiv_fl2_1_21
   0116 B7*04         [ 3]  245 	sta	*___fsdiv_sloc1_1_0
   0118 C6r00r0D      [ 4]  246 	lda	(___fsdiv_fl2_1_21 + 1)
   011B B7*05         [ 3]  247 	sta	*(___fsdiv_sloc1_1_0 + 1)
   011D C6r00r0E      [ 4]  248 	lda	(___fsdiv_fl2_1_21 + 2)
   0120 B7*06         [ 3]  249 	sta	*(___fsdiv_sloc1_1_0 + 2)
   0122 C6r00r0F      [ 4]  250 	lda	(___fsdiv_fl2_1_21 + 3)
   0125 B7*07         [ 3]  251 	sta	*(___fsdiv_sloc1_1_0 + 3)
   0127 B6*04         [ 3]  252 	lda	*___fsdiv_sloc1_1_0
   0129 BA*05         [ 3]  253 	ora	*(___fsdiv_sloc1_1_0 + 1)
   012B BA*06         [ 3]  254 	ora	*(___fsdiv_sloc1_1_0 + 2)
   012D BA*07         [ 3]  255 	ora	*(___fsdiv_sloc1_1_0 + 3)
   012F 26 30         [ 3]  256 	bne	00102$
                            257 ;../_fsdiv.c:297: fl2.l = 0x7FC00000;
   0131 A6 7F         [ 2]  258 	lda	#0x7F
   0133 C7r00r0C      [ 4]  259 	sta	___fsdiv_fl2_1_21
   0136 A6 C0         [ 2]  260 	lda	#0xC0
   0138 C7r00r0D      [ 4]  261 	sta	(___fsdiv_fl2_1_21 + 1)
   013B 4F            [ 1]  262 	clra
   013C C7r00r0E      [ 4]  263 	sta	(___fsdiv_fl2_1_21 + 2)
   013F C7r00r0F      [ 4]  264 	sta	(___fsdiv_fl2_1_21 + 3)
                            265 ;../_fsdiv.c:298: return (fl2.f);
   0142 C6r00r0C      [ 4]  266 	lda	___fsdiv_fl2_1_21
   0145 B7*04         [ 3]  267 	sta	*___fsdiv_sloc1_1_0
   0147 C6r00r0D      [ 4]  268 	lda	(___fsdiv_fl2_1_21 + 1)
   014A B7*05         [ 3]  269 	sta	*(___fsdiv_sloc1_1_0 + 1)
   014C C6r00r0E      [ 4]  270 	lda	(___fsdiv_fl2_1_21 + 2)
   014F B7*06         [ 3]  271 	sta	*(___fsdiv_sloc1_1_0 + 2)
   0151 C6r00r0F      [ 4]  272 	lda	(___fsdiv_fl2_1_21 + 3)
   0154 B7*07         [ 3]  273 	sta	*(___fsdiv_sloc1_1_0 + 3)
   0156 4E*04*00      [ 5]  274 	mov	*___fsdiv_sloc1_1_0,*___SDCC_hc08_ret3
   0159 4E*05*00      [ 5]  275 	mov	*(___fsdiv_sloc1_1_0 + 1),*___SDCC_hc08_ret2
   015C BE*06         [ 3]  276 	ldx	*(___fsdiv_sloc1_1_0 + 2)
   015E B6*07         [ 3]  277 	lda	*(___fsdiv_sloc1_1_0 + 3)
   0160 81            [ 4]  278 	rts
   0161                     279 00102$:
                            280 ;../_fsdiv.c:302: if (!fl1.l)
   0161 C6r00r08      [ 4]  281 	lda	___fsdiv_fl1_1_21
   0164 B7*04         [ 3]  282 	sta	*___fsdiv_sloc1_1_0
   0166 C6r00r09      [ 4]  283 	lda	(___fsdiv_fl1_1_21 + 1)
   0169 B7*05         [ 3]  284 	sta	*(___fsdiv_sloc1_1_0 + 1)
   016B C6r00r0A      [ 4]  285 	lda	(___fsdiv_fl1_1_21 + 2)
   016E B7*06         [ 3]  286 	sta	*(___fsdiv_sloc1_1_0 + 2)
   0170 C6r00r0B      [ 4]  287 	lda	(___fsdiv_fl1_1_21 + 3)
   0173 B7*07         [ 3]  288 	sta	*(___fsdiv_sloc1_1_0 + 3)
   0175 B6*04         [ 3]  289 	lda	*___fsdiv_sloc1_1_0
   0177 BA*05         [ 3]  290 	ora	*(___fsdiv_sloc1_1_0 + 1)
   0179 BA*06         [ 3]  291 	ora	*(___fsdiv_sloc1_1_0 + 2)
   017B BA*07         [ 3]  292 	ora	*(___fsdiv_sloc1_1_0 + 3)
   017D 26 07         [ 3]  293 	bne	00104$
                            294 ;../_fsdiv.c:303: return (0);
   017F 4F            [ 1]  295 	clra
   0180 97            [ 1]  296 	tax
   0181 B7*00         [ 3]  297 	sta	*___SDCC_hc08_ret2
   0183 B7*00         [ 3]  298 	sta	*___SDCC_hc08_ret3
   0185 81            [ 4]  299 	rts
   0186                     300 00104$:
                            301 ;../_fsdiv.c:306: mant1 = MANT (fl1.l);
   0186 C6r00r08      [ 4]  302 	lda	___fsdiv_fl1_1_21
   0189 B7*04         [ 3]  303 	sta	*___fsdiv_sloc1_1_0
   018B C6r00r09      [ 4]  304 	lda	(___fsdiv_fl1_1_21 + 1)
   018E B7*05         [ 3]  305 	sta	*(___fsdiv_sloc1_1_0 + 1)
   0190 C6r00r0A      [ 4]  306 	lda	(___fsdiv_fl1_1_21 + 2)
   0193 B7*06         [ 3]  307 	sta	*(___fsdiv_sloc1_1_0 + 2)
   0195 C6r00r0B      [ 4]  308 	lda	(___fsdiv_fl1_1_21 + 3)
   0198 B7*07         [ 3]  309 	sta	*(___fsdiv_sloc1_1_0 + 3)
   019A B6*05         [ 3]  310 	lda	*(___fsdiv_sloc1_1_0 + 1)
   019C A4 7F         [ 2]  311 	and	#0x7F
   019E B7*05         [ 3]  312 	sta	*(___fsdiv_sloc1_1_0 + 1)
   01A0 6E 00*04      [ 4]  313 	mov	#0x00,*___fsdiv_sloc1_1_0
   01A3 B6*07         [ 3]  314 	lda	*(___fsdiv_sloc1_1_0 + 3)
   01A5 C7r00r1B      [ 4]  315 	sta	(___fsdiv_mant1_1_21 + 3)
   01A8 B6*06         [ 3]  316 	lda	*(___fsdiv_sloc1_1_0 + 2)
   01AA C7r00r1A      [ 4]  317 	sta	(___fsdiv_mant1_1_21 + 2)
   01AD B6*05         [ 3]  318 	lda	*(___fsdiv_sloc1_1_0 + 1)
   01AF AA 80         [ 2]  319 	ora	#0x80
   01B1 C7r00r19      [ 4]  320 	sta	(___fsdiv_mant1_1_21 + 1)
   01B4 B6*04         [ 3]  321 	lda	*___fsdiv_sloc1_1_0
   01B6 C7r00r18      [ 4]  322 	sta	___fsdiv_mant1_1_21
                            323 ;../_fsdiv.c:307: mant2 = MANT (fl2.l);
   01B9 C6r00r0C      [ 4]  324 	lda	___fsdiv_fl2_1_21
   01BC B7*04         [ 3]  325 	sta	*___fsdiv_sloc1_1_0
   01BE C6r00r0D      [ 4]  326 	lda	(___fsdiv_fl2_1_21 + 1)
   01C1 B7*05         [ 3]  327 	sta	*(___fsdiv_sloc1_1_0 + 1)
   01C3 C6r00r0E      [ 4]  328 	lda	(___fsdiv_fl2_1_21 + 2)
   01C6 B7*06         [ 3]  329 	sta	*(___fsdiv_sloc1_1_0 + 2)
   01C8 C6r00r0F      [ 4]  330 	lda	(___fsdiv_fl2_1_21 + 3)
   01CB B7*07         [ 3]  331 	sta	*(___fsdiv_sloc1_1_0 + 3)
   01CD B6*05         [ 3]  332 	lda	*(___fsdiv_sloc1_1_0 + 1)
   01CF A4 7F         [ 2]  333 	and	#0x7F
   01D1 B7*05         [ 3]  334 	sta	*(___fsdiv_sloc1_1_0 + 1)
   01D3 6E 00*04      [ 4]  335 	mov	#0x00,*___fsdiv_sloc1_1_0
   01D6 B6*07         [ 3]  336 	lda	*(___fsdiv_sloc1_1_0 + 3)
   01D8 C7r00r1F      [ 4]  337 	sta	(___fsdiv_mant2_1_21 + 3)
   01DB B6*06         [ 3]  338 	lda	*(___fsdiv_sloc1_1_0 + 2)
   01DD C7r00r1E      [ 4]  339 	sta	(___fsdiv_mant2_1_21 + 2)
   01E0 B6*05         [ 3]  340 	lda	*(___fsdiv_sloc1_1_0 + 1)
   01E2 AA 80         [ 2]  341 	ora	#0x80
   01E4 C7r00r1D      [ 4]  342 	sta	(___fsdiv_mant2_1_21 + 1)
   01E7 B6*04         [ 3]  343 	lda	*___fsdiv_sloc1_1_0
   01E9 C7r00r1C      [ 4]  344 	sta	___fsdiv_mant2_1_21
                            345 ;../_fsdiv.c:310: if (mant1 < mant2)
   01EC C6r00r1B      [ 4]  346 	lda	(___fsdiv_mant1_1_21 + 3)
   01EF C0r00r1F      [ 4]  347 	sub	(___fsdiv_mant2_1_21 + 3)
   01F2 C6r00r1A      [ 4]  348 	lda	(___fsdiv_mant1_1_21 + 2)
   01F5 C2r00r1E      [ 4]  349 	sbc	(___fsdiv_mant2_1_21 + 2)
   01F8 C6r00r19      [ 4]  350 	lda	(___fsdiv_mant1_1_21 + 1)
   01FB C2r00r1D      [ 4]  351 	sbc	(___fsdiv_mant2_1_21 + 1)
   01FE C6r00r18      [ 4]  352 	lda	___fsdiv_mant1_1_21
   0201 C2r00r1C      [ 4]  353 	sbc	___fsdiv_mant2_1_21
   0204 90 29         [ 3]  354 	bge	00106$
                            355 ;../_fsdiv.c:312: mant1 <<= 1;
   0206 C6r00r1B      [ 4]  356 	lda	(___fsdiv_mant1_1_21 + 3)
   0209 CEr00r1A      [ 4]  357 	ldx	(___fsdiv_mant1_1_21 + 2)
   020C 48            [ 1]  358 	lsla
   020D 59            [ 1]  359 	rolx
   020E C7r00r1B      [ 4]  360 	sta	(___fsdiv_mant1_1_21 + 3)
   0211 CFr00r1A      [ 4]  361 	stx	(___fsdiv_mant1_1_21 + 2)
   0214 C6r00r19      [ 4]  362 	lda	(___fsdiv_mant1_1_21 + 1)
   0217 CEr00r18      [ 4]  363 	ldx	___fsdiv_mant1_1_21
   021A 49            [ 1]  364 	rola
   021B 59            [ 1]  365 	rolx
   021C C7r00r19      [ 4]  366 	sta	(___fsdiv_mant1_1_21 + 1)
   021F CFr00r18      [ 4]  367 	stx	___fsdiv_mant1_1_21
                            368 ;../_fsdiv.c:313: exp--;
   0222 45r00r20      [ 3]  369 	ldhx	#___fsdiv_exp_1_21
   0225 E6 01         [ 3]  370 	lda	1,x
   0227 A0 01         [ 2]  371 	sub	#0x01
   0229 E7 01         [ 3]  372 	sta	1,x
   022B F6            [ 2]  373 	lda	,x
   022C A2 00         [ 2]  374 	sbc	#0
   022E F7            [ 2]  375 	sta	,x
   022F                     376 00106$:
                            377 ;../_fsdiv.c:317: mask = 0x1000000;
   022F 45r00r14      [ 3]  378 	ldhx	#___fsdiv_mask_1_21
   0232 A6 01         [ 2]  379 	lda	#0x01
   0234 F7            [ 2]  380 	sta	,x
   0235 4A            [ 1]  381 	deca
   0236 E7 01         [ 3]  382 	sta	1,x
   0238 E7 02         [ 3]  383 	sta	2,x
   023A E7 03         [ 3]  384 	sta	3,x
                            385 ;../_fsdiv.c:318: result = 0;
   023C 45r00r10      [ 3]  386 	ldhx	#___fsdiv_result_1_21
   023F F7            [ 2]  387 	sta	,x
   0240 E7 01         [ 3]  388 	sta	1,x
   0242 E7 02         [ 3]  389 	sta	2,x
   0244 E7 03         [ 3]  390 	sta	3,x
                            391 ;../_fsdiv.c:319: while (mask)
   0246                     392 00109$:
   0246 C6r00r14      [ 4]  393 	lda	___fsdiv_mask_1_21
   0249 CAr00r15      [ 4]  394 	ora	(___fsdiv_mask_1_21 + 1)
   024C CAr00r16      [ 4]  395 	ora	(___fsdiv_mask_1_21 + 2)
   024F CAr00r17      [ 4]  396 	ora	(___fsdiv_mask_1_21 + 3)
   0252 26 03         [ 3]  397 	bne	00168$
   0254 CCr02rFD      [ 3]  398 	jmp	00111$
   0257                     399 00168$:
                            400 ;../_fsdiv.c:321: if (mant1 >= mant2)
   0257 C6r00r1B      [ 4]  401 	lda	(___fsdiv_mant1_1_21 + 3)
   025A C0r00r1F      [ 4]  402 	sub	(___fsdiv_mant2_1_21 + 3)
   025D C6r00r1A      [ 4]  403 	lda	(___fsdiv_mant1_1_21 + 2)
   0260 C2r00r1E      [ 4]  404 	sbc	(___fsdiv_mant2_1_21 + 2)
   0263 C6r00r19      [ 4]  405 	lda	(___fsdiv_mant1_1_21 + 1)
   0266 C2r00r1D      [ 4]  406 	sbc	(___fsdiv_mant2_1_21 + 1)
   0269 C6r00r18      [ 4]  407 	lda	___fsdiv_mant1_1_21
   026C C2r00r1C      [ 4]  408 	sbc	___fsdiv_mant2_1_21
   026F 91 51         [ 3]  409 	blt	00108$
                            410 ;../_fsdiv.c:323: result |= mask;
   0271 C6r00r13      [ 4]  411 	lda	(___fsdiv_result_1_21 + 3)
   0274 B7*07         [ 3]  412 	sta	*(___fsdiv_sloc1_1_0 + 3)
   0276 C6r00r12      [ 4]  413 	lda	(___fsdiv_result_1_21 + 2)
   0279 B7*06         [ 3]  414 	sta	*(___fsdiv_sloc1_1_0 + 2)
   027B C6r00r11      [ 4]  415 	lda	(___fsdiv_result_1_21 + 1)
   027E B7*05         [ 3]  416 	sta	*(___fsdiv_sloc1_1_0 + 1)
   0280 C6r00r10      [ 4]  417 	lda	___fsdiv_result_1_21
   0283 B7*04         [ 3]  418 	sta	*___fsdiv_sloc1_1_0
   0285 B6*07         [ 3]  419 	lda	*(___fsdiv_sloc1_1_0 + 3)
   0287 CAr00r17      [ 4]  420 	ora	(___fsdiv_mask_1_21 + 3)
   028A C7r00r13      [ 4]  421 	sta	(___fsdiv_result_1_21 + 3)
   028D B6*06         [ 3]  422 	lda	*(___fsdiv_sloc1_1_0 + 2)
   028F CAr00r16      [ 4]  423 	ora	(___fsdiv_mask_1_21 + 2)
   0292 C7r00r12      [ 4]  424 	sta	(___fsdiv_result_1_21 + 2)
   0295 B6*05         [ 3]  425 	lda	*(___fsdiv_sloc1_1_0 + 1)
   0297 CAr00r15      [ 4]  426 	ora	(___fsdiv_mask_1_21 + 1)
   029A C7r00r11      [ 4]  427 	sta	(___fsdiv_result_1_21 + 1)
   029D B6*04         [ 3]  428 	lda	*___fsdiv_sloc1_1_0
   029F CAr00r14      [ 4]  429 	ora	___fsdiv_mask_1_21
   02A2 C7r00r10      [ 4]  430 	sta	___fsdiv_result_1_21
                            431 ;../_fsdiv.c:324: mant1 -= mant2;
   02A5 45r00r18      [ 3]  432 	ldhx	#___fsdiv_mant1_1_21
   02A8 E6 03         [ 3]  433 	lda	3,x
   02AA C0r00r1F      [ 4]  434 	sub	(___fsdiv_mant2_1_21 + 3)
   02AD E7 03         [ 3]  435 	sta	3,x
   02AF E6 02         [ 3]  436 	lda	2,x
   02B1 C2r00r1E      [ 4]  437 	sbc	(___fsdiv_mant2_1_21 + 2)
   02B4 E7 02         [ 3]  438 	sta	2,x
   02B6 E6 01         [ 3]  439 	lda	1,x
   02B8 C2r00r1D      [ 4]  440 	sbc	(___fsdiv_mant2_1_21 + 1)
   02BB E7 01         [ 3]  441 	sta	1,x
   02BD F6            [ 2]  442 	lda	,x
   02BE C2r00r1C      [ 4]  443 	sbc	___fsdiv_mant2_1_21
   02C1 F7            [ 2]  444 	sta	,x
   02C2                     445 00108$:
                            446 ;../_fsdiv.c:326: mant1 <<= 1;
   02C2 C6r00r1B      [ 4]  447 	lda	(___fsdiv_mant1_1_21 + 3)
   02C5 CEr00r1A      [ 4]  448 	ldx	(___fsdiv_mant1_1_21 + 2)
   02C8 48            [ 1]  449 	lsla
   02C9 59            [ 1]  450 	rolx
   02CA C7r00r1B      [ 4]  451 	sta	(___fsdiv_mant1_1_21 + 3)
   02CD CFr00r1A      [ 4]  452 	stx	(___fsdiv_mant1_1_21 + 2)
   02D0 C6r00r19      [ 4]  453 	lda	(___fsdiv_mant1_1_21 + 1)
   02D3 CEr00r18      [ 4]  454 	ldx	___fsdiv_mant1_1_21
   02D6 49            [ 1]  455 	rola
   02D7 59            [ 1]  456 	rolx
   02D8 C7r00r19      [ 4]  457 	sta	(___fsdiv_mant1_1_21 + 1)
   02DB CFr00r18      [ 4]  458 	stx	___fsdiv_mant1_1_21
                            459 ;../_fsdiv.c:327: mask >>= 1;
   02DE C6r00r15      [ 4]  460 	lda	(___fsdiv_mask_1_21 + 1)
   02E1 CEr00r14      [ 4]  461 	ldx	___fsdiv_mask_1_21
   02E4 54            [ 1]  462 	lsrx
   02E5 46            [ 1]  463 	rora
   02E6 C7r00r15      [ 4]  464 	sta	(___fsdiv_mask_1_21 + 1)
   02E9 CFr00r14      [ 4]  465 	stx	___fsdiv_mask_1_21
   02EC C6r00r17      [ 4]  466 	lda	(___fsdiv_mask_1_21 + 3)
   02EF CEr00r16      [ 4]  467 	ldx	(___fsdiv_mask_1_21 + 2)
   02F2 56            [ 1]  468 	rorx
   02F3 46            [ 1]  469 	rora
   02F4 C7r00r17      [ 4]  470 	sta	(___fsdiv_mask_1_21 + 3)
   02F7 CFr00r16      [ 4]  471 	stx	(___fsdiv_mask_1_21 + 2)
   02FA CCr02r46      [ 3]  472 	jmp	00109$
   02FD                     473 00111$:
                            474 ;../_fsdiv.c:331: result += 1;
   02FD 45r00r10      [ 3]  475 	ldhx	#___fsdiv_result_1_21
   0300 6C 03         [ 4]  476 	inc	3,x
   0302 26 09         [ 3]  477 	bne	00170$
   0304 6C 02         [ 4]  478 	inc	2,x
   0306 26 05         [ 3]  479 	bne	00170$
   0308 6C 01         [ 4]  480 	inc	1,x
   030A 26 01         [ 3]  481 	bne	00170$
   030C 7C            [ 3]  482 	inc	,x
   030D                     483 00170$:
                            484 ;../_fsdiv.c:334: exp++;
   030D 45r00r20      [ 3]  485 	ldhx	#___fsdiv_exp_1_21
   0310 6C 01         [ 4]  486 	inc	1,x
   0312 26 01         [ 3]  487 	bne	00171$
   0314 7C            [ 3]  488 	inc	,x
   0315                     489 00171$:
                            490 ;../_fsdiv.c:335: result >>= 1;
   0315 C6r00r11      [ 4]  491 	lda	(___fsdiv_result_1_21 + 1)
   0318 CEr00r10      [ 4]  492 	ldx	___fsdiv_result_1_21
   031B 57            [ 1]  493 	asrx
   031C 46            [ 1]  494 	rora
   031D C7r00r11      [ 4]  495 	sta	(___fsdiv_result_1_21 + 1)
   0320 CFr00r10      [ 4]  496 	stx	___fsdiv_result_1_21
   0323 C6r00r13      [ 4]  497 	lda	(___fsdiv_result_1_21 + 3)
   0326 CEr00r12      [ 4]  498 	ldx	(___fsdiv_result_1_21 + 2)
   0329 56            [ 1]  499 	rorx
   032A 46            [ 1]  500 	rora
   032B C7r00r13      [ 4]  501 	sta	(___fsdiv_result_1_21 + 3)
   032E CFr00r12      [ 4]  502 	stx	(___fsdiv_result_1_21 + 2)
                            503 ;../_fsdiv.c:337: result &= ~HIDDEN;
   0331 C6r00r13      [ 4]  504 	lda	(___fsdiv_result_1_21 + 3)
   0334 B7*07         [ 3]  505 	sta	*(___fsdiv_sloc1_1_0 + 3)
   0336 C6r00r12      [ 4]  506 	lda	(___fsdiv_result_1_21 + 2)
   0339 B7*06         [ 3]  507 	sta	*(___fsdiv_sloc1_1_0 + 2)
   033B C6r00r11      [ 4]  508 	lda	(___fsdiv_result_1_21 + 1)
   033E B7*05         [ 3]  509 	sta	*(___fsdiv_sloc1_1_0 + 1)
   0340 C6r00r10      [ 4]  510 	lda	___fsdiv_result_1_21
   0343 B7*04         [ 3]  511 	sta	*___fsdiv_sloc1_1_0
   0345 B6*07         [ 3]  512 	lda	*(___fsdiv_sloc1_1_0 + 3)
   0347 C7r00r13      [ 4]  513 	sta	(___fsdiv_result_1_21 + 3)
   034A B6*06         [ 3]  514 	lda	*(___fsdiv_sloc1_1_0 + 2)
   034C C7r00r12      [ 4]  515 	sta	(___fsdiv_result_1_21 + 2)
   034F B6*05         [ 3]  516 	lda	*(___fsdiv_sloc1_1_0 + 1)
   0351 A4 7F         [ 2]  517 	and	#0x7F
   0353 C7r00r11      [ 4]  518 	sta	(___fsdiv_result_1_21 + 1)
   0356 B6*04         [ 3]  519 	lda	*___fsdiv_sloc1_1_0
   0358 C7r00r10      [ 4]  520 	sta	___fsdiv_result_1_21
                            521 ;../_fsdiv.c:340: if (exp >= 0x100)
   035B C6r00r21      [ 4]  522 	lda	(___fsdiv_exp_1_21 + 1)
   035E A0 00         [ 2]  523 	sub	#0x00
   0360 C6r00r20      [ 4]  524 	lda	___fsdiv_exp_1_21
   0363 A2 01         [ 2]  525 	sbc	#0x01
   0365 91 38         [ 3]  526 	blt	00116$
                            527 ;../_fsdiv.c:341: fl1.l = (sign ? SIGNBIT : 0) | __INFINITY;
   0367 C6r00r22      [ 4]  528 	lda	___fsdiv_sign_1_21
   036A 27 0A         [ 3]  529 	beq	00120$
   036C 45 80 00      [ 3]  530 	ldhx	#0x8000
   036F 35*04         [ 4]  531 	sthx	*___fsdiv_sloc1_1_0
   0371 8C            [ 1]  532 	clrh
   0372 35*06         [ 4]  533 	sthx	*(___fsdiv_sloc1_1_0 + 2)
   0374 20 06         [ 3]  534 	bra	00121$
   0376                     535 00120$:
   0376 8C            [ 1]  536 	clrh
   0377 5F            [ 1]  537 	clrx
   0378 35*04         [ 4]  538 	sthx	*___fsdiv_sloc1_1_0
   037A 35*06         [ 4]  539 	sthx	*(___fsdiv_sloc1_1_0 + 2)
   037C                     540 00121$:
   037C B6*05         [ 3]  541 	lda	*(___fsdiv_sloc1_1_0 + 1)
   037E AA 80         [ 2]  542 	ora	#0x80
   0380 B7*05         [ 3]  543 	sta	*(___fsdiv_sloc1_1_0 + 1)
   0382 B6*04         [ 3]  544 	lda	*___fsdiv_sloc1_1_0
   0384 AA 7F         [ 2]  545 	ora	#0x7F
   0386 B7*04         [ 3]  546 	sta	*___fsdiv_sloc1_1_0
   0388 B6*04         [ 3]  547 	lda	*___fsdiv_sloc1_1_0
   038A C7r00r08      [ 4]  548 	sta	___fsdiv_fl1_1_21
   038D B6*05         [ 3]  549 	lda	*(___fsdiv_sloc1_1_0 + 1)
   038F C7r00r09      [ 4]  550 	sta	(___fsdiv_fl1_1_21 + 1)
   0392 B6*06         [ 3]  551 	lda	*(___fsdiv_sloc1_1_0 + 2)
   0394 C7r00r0A      [ 4]  552 	sta	(___fsdiv_fl1_1_21 + 2)
   0397 B6*07         [ 3]  553 	lda	*(___fsdiv_sloc1_1_0 + 3)
   0399 C7r00r0B      [ 4]  554 	sta	(___fsdiv_fl1_1_21 + 3)
   039C CCr04r4D      [ 3]  555 	jmp	00117$
   039F                     556 00116$:
                            557 ;../_fsdiv.c:342: else if (exp < 0)
   039F C6r00r21      [ 4]  558 	lda	(___fsdiv_exp_1_21 + 1)
   03A2 A0 00         [ 2]  559 	sub	#0x00
   03A4 C6r00r20      [ 4]  560 	lda	___fsdiv_exp_1_21
   03A7 A2 00         [ 2]  561 	sbc	#0x00
   03A9 90 10         [ 3]  562 	bge	00113$
                            563 ;../_fsdiv.c:343: fl1.l = 0;
   03AB 4F            [ 1]  564 	clra
   03AC C7r00r08      [ 4]  565 	sta	___fsdiv_fl1_1_21
   03AF C7r00r09      [ 4]  566 	sta	(___fsdiv_fl1_1_21 + 1)
   03B2 C7r00r0A      [ 4]  567 	sta	(___fsdiv_fl1_1_21 + 2)
   03B5 C7r00r0B      [ 4]  568 	sta	(___fsdiv_fl1_1_21 + 3)
   03B8 CCr04r4D      [ 3]  569 	jmp	00117$
   03BB                     570 00113$:
                            571 ;../_fsdiv.c:345: fl1.l = PACK (sign ? SIGNBIT : 0 , exp, result);
   03BB C6r00r22      [ 4]  572 	lda	___fsdiv_sign_1_21
   03BE 27 0A         [ 3]  573 	beq	00122$
   03C0 45 80 00      [ 3]  574 	ldhx	#0x8000
   03C3 35*04         [ 4]  575 	sthx	*___fsdiv_sloc1_1_0
   03C5 8C            [ 1]  576 	clrh
   03C6 35*06         [ 4]  577 	sthx	*(___fsdiv_sloc1_1_0 + 2)
   03C8 20 06         [ 3]  578 	bra	00123$
   03CA                     579 00122$:
   03CA 8C            [ 1]  580 	clrh
   03CB 5F            [ 1]  581 	clrx
   03CC 35*04         [ 4]  582 	sthx	*___fsdiv_sloc1_1_0
   03CE 35*06         [ 4]  583 	sthx	*(___fsdiv_sloc1_1_0 + 2)
   03D0                     584 00123$:
   03D0 C6r00r21      [ 4]  585 	lda	(___fsdiv_exp_1_21 + 1)
   03D3 B7*03         [ 3]  586 	sta	*(___fsdiv_sloc0_1_0 + 3)
   03D5 C6r00r20      [ 4]  587 	lda	___fsdiv_exp_1_21
   03D8 B7*02         [ 3]  588 	sta	*(___fsdiv_sloc0_1_0 + 2)
   03DA 49            [ 1]  589 	rola	
   03DB 4F            [ 1]  590 	clra	
   03DC A2 00         [ 2]  591 	sbc	#0x00
   03DE B7*01         [ 3]  592 	sta	*(___fsdiv_sloc0_1_0 + 1)
   03E0 B7*00         [ 3]  593 	sta	*___fsdiv_sloc0_1_0
   03E2 B6*03         [ 3]  594 	lda	*(___fsdiv_sloc0_1_0 + 3)
   03E4 BE*02         [ 3]  595 	ldx	*(___fsdiv_sloc0_1_0 + 2)
   03E6 54            [ 1]  596 	lsrx
   03E7 46            [ 1]  597 	rora
   03E8 97            [ 1]  598 	tax
   03E9 4F            [ 1]  599 	clra
   03EA 46            [ 1]  600 	rora
   03EB B7*01         [ 3]  601 	sta	*(___fsdiv_sloc0_1_0 + 1)
   03ED BF*00         [ 3]  602 	stx	*___fsdiv_sloc0_1_0
   03EF 6E 00*03      [ 4]  603 	mov	#0x00,*(___fsdiv_sloc0_1_0 + 3)
   03F2 6E 00*02      [ 4]  604 	mov	#0x00,*(___fsdiv_sloc0_1_0 + 2)
   03F5 B6*07         [ 3]  605 	lda	*(___fsdiv_sloc1_1_0 + 3)
   03F7 BA*03         [ 3]  606 	ora	*(___fsdiv_sloc0_1_0 + 3)
   03F9 B7*07         [ 3]  607 	sta	*(___fsdiv_sloc1_1_0 + 3)
   03FB B6*06         [ 3]  608 	lda	*(___fsdiv_sloc1_1_0 + 2)
   03FD BA*02         [ 3]  609 	ora	*(___fsdiv_sloc0_1_0 + 2)
   03FF B7*06         [ 3]  610 	sta	*(___fsdiv_sloc1_1_0 + 2)
   0401 B6*05         [ 3]  611 	lda	*(___fsdiv_sloc1_1_0 + 1)
   0403 BA*01         [ 3]  612 	ora	*(___fsdiv_sloc0_1_0 + 1)
   0405 B7*05         [ 3]  613 	sta	*(___fsdiv_sloc1_1_0 + 1)
   0407 B6*04         [ 3]  614 	lda	*___fsdiv_sloc1_1_0
   0409 BA*00         [ 3]  615 	ora	*___fsdiv_sloc0_1_0
   040B B7*04         [ 3]  616 	sta	*___fsdiv_sloc1_1_0
   040D C6r00r13      [ 4]  617 	lda	(___fsdiv_result_1_21 + 3)
   0410 B7*03         [ 3]  618 	sta	*(___fsdiv_sloc0_1_0 + 3)
   0412 C6r00r12      [ 4]  619 	lda	(___fsdiv_result_1_21 + 2)
   0415 B7*02         [ 3]  620 	sta	*(___fsdiv_sloc0_1_0 + 2)
   0417 C6r00r11      [ 4]  621 	lda	(___fsdiv_result_1_21 + 1)
   041A B7*01         [ 3]  622 	sta	*(___fsdiv_sloc0_1_0 + 1)
   041C C6r00r10      [ 4]  623 	lda	___fsdiv_result_1_21
   041F B7*00         [ 3]  624 	sta	*___fsdiv_sloc0_1_0
   0421 B6*07         [ 3]  625 	lda	*(___fsdiv_sloc1_1_0 + 3)
   0423 BA*03         [ 3]  626 	ora	*(___fsdiv_sloc0_1_0 + 3)
   0425 B7*07         [ 3]  627 	sta	*(___fsdiv_sloc1_1_0 + 3)
   0427 B6*06         [ 3]  628 	lda	*(___fsdiv_sloc1_1_0 + 2)
   0429 BA*02         [ 3]  629 	ora	*(___fsdiv_sloc0_1_0 + 2)
   042B B7*06         [ 3]  630 	sta	*(___fsdiv_sloc1_1_0 + 2)
   042D B6*05         [ 3]  631 	lda	*(___fsdiv_sloc1_1_0 + 1)
   042F BA*01         [ 3]  632 	ora	*(___fsdiv_sloc0_1_0 + 1)
   0431 B7*05         [ 3]  633 	sta	*(___fsdiv_sloc1_1_0 + 1)
   0433 B6*04         [ 3]  634 	lda	*___fsdiv_sloc1_1_0
   0435 BA*00         [ 3]  635 	ora	*___fsdiv_sloc0_1_0
   0437 B7*04         [ 3]  636 	sta	*___fsdiv_sloc1_1_0
   0439 B6*04         [ 3]  637 	lda	*___fsdiv_sloc1_1_0
   043B C7r00r08      [ 4]  638 	sta	___fsdiv_fl1_1_21
   043E B6*05         [ 3]  639 	lda	*(___fsdiv_sloc1_1_0 + 1)
   0440 C7r00r09      [ 4]  640 	sta	(___fsdiv_fl1_1_21 + 1)
   0443 B6*06         [ 3]  641 	lda	*(___fsdiv_sloc1_1_0 + 2)
   0445 C7r00r0A      [ 4]  642 	sta	(___fsdiv_fl1_1_21 + 2)
   0448 B6*07         [ 3]  643 	lda	*(___fsdiv_sloc1_1_0 + 3)
   044A C7r00r0B      [ 4]  644 	sta	(___fsdiv_fl1_1_21 + 3)
   044D                     645 00117$:
                            646 ;../_fsdiv.c:346: return (fl1.f);
   044D C6r00r08      [ 4]  647 	lda	___fsdiv_fl1_1_21
   0450 B7*04         [ 3]  648 	sta	*___fsdiv_sloc1_1_0
   0452 C6r00r09      [ 4]  649 	lda	(___fsdiv_fl1_1_21 + 1)
   0455 B7*05         [ 3]  650 	sta	*(___fsdiv_sloc1_1_0 + 1)
   0457 C6r00r0A      [ 4]  651 	lda	(___fsdiv_fl1_1_21 + 2)
   045A B7*06         [ 3]  652 	sta	*(___fsdiv_sloc1_1_0 + 2)
   045C C6r00r0B      [ 4]  653 	lda	(___fsdiv_fl1_1_21 + 3)
   045F B7*07         [ 3]  654 	sta	*(___fsdiv_sloc1_1_0 + 3)
   0461 4E*04*00      [ 5]  655 	mov	*___fsdiv_sloc1_1_0,*___SDCC_hc08_ret3
   0464 4E*05*00      [ 5]  656 	mov	*(___fsdiv_sloc1_1_0 + 1),*___SDCC_hc08_ret2
   0467 BE*06         [ 3]  657 	ldx	*(___fsdiv_sloc1_1_0 + 2)
   0469 B6*07         [ 3]  658 	lda	*(___fsdiv_sloc1_1_0 + 3)
   046B 81            [ 4]  659 	rts
                            660 	.area CSEG    (CODE)
                            661 	.area CONST   (CODE)
                            662 	.area XINIT   (CODE)
                            663 	.area CABS    (ABS,CODE)
