                              1 ;--------------------------------------------------------
                              2 ; File Created by SDCC : free open source ANSI-C Compiler
                              3 ; Version 3.5.0 #9253 (Apr  4 2022) (Linux)
                              4 ; This file was generated Mon Apr  4 14:10:32 2022
                              5 ;--------------------------------------------------------
                              6 	.module _modulonglong
                              7 	.optsdcc -mhc08
                              8 	
                              9 	.area HOME    (CODE)
                             10 	.area GSINIT0 (CODE)
                             11 	.area GSINIT  (CODE)
                             12 	.area GSFINAL (CODE)
                             13 	.area CSEG    (CODE)
                             14 	.area XINIT   (CODE)
                             15 	.area CONST   (CODE)
                             16 	.area DSEG    (PAG)
                             17 	.area OSEG    (PAG, OVR)
                             18 	.area XSEG
                             19 	.area XISEG
                             20 ;--------------------------------------------------------
                             21 ; Public variables in this module
                             22 ;--------------------------------------------------------
                             23 	.globl __modulonglong_PARM_2
                             24 	.globl __modulonglong_PARM_1
                             25 	.globl __modulonglong
                             26 ;--------------------------------------------------------
                             27 ; ram data
                             28 ;--------------------------------------------------------
                             29 	.area DSEG    (PAG)
                             30 ;--------------------------------------------------------
                             31 ; overlayable items in ram 
                             32 ;--------------------------------------------------------
                             33 ;--------------------------------------------------------
                             34 ; absolute ram data
                             35 ;--------------------------------------------------------
                             36 	.area IABS    (ABS)
                             37 	.area IABS    (ABS)
                             38 ;--------------------------------------------------------
                             39 ; absolute external ram data
                             40 ;--------------------------------------------------------
                             41 	.area XABS    (ABS)
                             42 ;--------------------------------------------------------
                             43 ; external initialized ram data
                             44 ;--------------------------------------------------------
                             45 	.area XISEG
                             46 ;--------------------------------------------------------
                             47 ; extended address mode data
                             48 ;--------------------------------------------------------
                             49 	.area XSEG
   0000                      50 __modulonglong_PARM_1:
   0000                      51 	.ds 8
   0008                      52 __modulonglong_PARM_2:
   0008                      53 	.ds 8
                             54 ;--------------------------------------------------------
                             55 ; global & static initialisations
                             56 ;--------------------------------------------------------
                             57 	.area HOME    (CODE)
                             58 	.area GSINIT  (CODE)
                             59 	.area GSFINAL (CODE)
                             60 	.area GSINIT  (CODE)
                             61 ;--------------------------------------------------------
                             62 ; Home
                             63 ;--------------------------------------------------------
                             64 	.area HOME    (CODE)
                             65 	.area HOME    (CODE)
                             66 ;--------------------------------------------------------
                             67 ; code
                             68 ;--------------------------------------------------------
                             69 	.area CSEG    (CODE)
                             70 ;------------------------------------------------------------
                             71 ;Allocation info for local variables in function '_modulonglong'
                             72 ;------------------------------------------------------------
                             73 ;a                         Allocated with name '__modulonglong_PARM_1'
                             74 ;b                         Allocated with name '__modulonglong_PARM_2'
                             75 ;count                     Allocated to registers h 
                             76 ;------------------------------------------------------------
                             77 ;../_modulonglong.c:38: _modulonglong (unsigned long long a, unsigned long long b)
                             78 ;	-----------------------------------------
                             79 ;	 function _modulonglong
                             80 ;	-----------------------------------------
                             81 ;	Register assignment is optimal.
                             82 ;	Stack space usage: 0 bytes.
   0000                      83 __modulonglong:
                             84 ;../_modulonglong.c:40: unsigned char count = 0;
   0000 8C            [ 1]   85 	clrh
                             86 ;../_modulonglong.c:42: while (!MSB_SET(b))
   0001 5F            [ 1]   87 	clrx
   0002                      88 00103$:
   0002 C6r00r08      [ 4]   89 	lda	__modulonglong_PARM_2
   0005 49            [ 1]   90 	rola
   0006 4F            [ 1]   91 	clra
   0007 49            [ 1]   92 	rola
   0008 4D            [ 1]   93 	tsta
   0009 27 03         [ 3]   94 	beq	00138$
   000B CCr01r07      [ 3]   95 	jmp	00117$
   000E                      96 00138$:
                             97 ;../_modulonglong.c:44: b <<= 1;
   000E C6r00r08      [ 4]   98 	lda	__modulonglong_PARM_2
   0011 C7r00r00      [ 4]   99 	sta	__rlulonglong_PARM_1
   0014 C6r00r09      [ 4]  100 	lda	(__modulonglong_PARM_2 + 1)
   0017 C7r00r01      [ 4]  101 	sta	(__rlulonglong_PARM_1 + 1)
   001A C6r00r0A      [ 4]  102 	lda	(__modulonglong_PARM_2 + 2)
   001D C7r00r02      [ 4]  103 	sta	(__rlulonglong_PARM_1 + 2)
   0020 C6r00r0B      [ 4]  104 	lda	(__modulonglong_PARM_2 + 3)
   0023 C7r00r03      [ 4]  105 	sta	(__rlulonglong_PARM_1 + 3)
   0026 C6r00r0C      [ 4]  106 	lda	(__modulonglong_PARM_2 + 4)
   0029 C7r00r04      [ 4]  107 	sta	(__rlulonglong_PARM_1 + 4)
   002C C6r00r0D      [ 4]  108 	lda	(__modulonglong_PARM_2 + 5)
   002F C7r00r05      [ 4]  109 	sta	(__rlulonglong_PARM_1 + 5)
   0032 C6r00r0E      [ 4]  110 	lda	(__modulonglong_PARM_2 + 6)
   0035 C7r00r06      [ 4]  111 	sta	(__rlulonglong_PARM_1 + 6)
   0038 C6r00r0F      [ 4]  112 	lda	(__modulonglong_PARM_2 + 7)
   003B C7r00r07      [ 4]  113 	sta	(__rlulonglong_PARM_1 + 7)
   003E A6 01         [ 2]  114 	lda	#0x01
   0040 C7r00r00      [ 4]  115 	sta	__rlulonglong_PARM_2
   0043 89            [ 2]  116 	pshx
   0044 8B            [ 2]  117 	pshh
   0045 CDr00r00      [ 5]  118 	jsr	__rlulonglong
   0048 C7r00r0F      [ 4]  119 	sta	(__modulonglong_PARM_2 + 7)
   004B CFr00r0E      [ 4]  120 	stx	(__modulonglong_PARM_2 + 6)
   004E B6*00         [ 3]  121 	lda	*___SDCC_hc08_ret2
   0050 C7r00r0D      [ 4]  122 	sta	(__modulonglong_PARM_2 + 5)
   0053 B6*00         [ 3]  123 	lda	*___SDCC_hc08_ret3
   0055 C7r00r0C      [ 4]  124 	sta	(__modulonglong_PARM_2 + 4)
   0058 B6*00         [ 3]  125 	lda	*___SDCC_hc08_ret4
   005A C7r00r0B      [ 4]  126 	sta	(__modulonglong_PARM_2 + 3)
   005D B6*00         [ 3]  127 	lda	*___SDCC_hc08_ret5
   005F C7r00r0A      [ 4]  128 	sta	(__modulonglong_PARM_2 + 2)
   0062 B6*00         [ 3]  129 	lda	*___SDCC_hc08_ret6
   0064 C7r00r09      [ 4]  130 	sta	(__modulonglong_PARM_2 + 1)
   0067 B6*00         [ 3]  131 	lda	*___SDCC_hc08_ret7
   0069 C7r00r08      [ 4]  132 	sta	__modulonglong_PARM_2
   006C 8A            [ 2]  133 	pulh
   006D 88            [ 2]  134 	pulx
                            135 ;../_modulonglong.c:45: if (b > a)
   006E C6r00r07      [ 4]  136 	lda	(__modulonglong_PARM_1 + 7)
   0071 C0r00r0F      [ 4]  137 	sub	(__modulonglong_PARM_2 + 7)
   0074 C6r00r06      [ 4]  138 	lda	(__modulonglong_PARM_1 + 6)
   0077 C2r00r0E      [ 4]  139 	sbc	(__modulonglong_PARM_2 + 6)
   007A C6r00r05      [ 4]  140 	lda	(__modulonglong_PARM_1 + 5)
   007D C2r00r0D      [ 4]  141 	sbc	(__modulonglong_PARM_2 + 5)
   0080 C6r00r04      [ 4]  142 	lda	(__modulonglong_PARM_1 + 4)
   0083 C2r00r0C      [ 4]  143 	sbc	(__modulonglong_PARM_2 + 4)
   0086 C6r00r03      [ 4]  144 	lda	(__modulonglong_PARM_1 + 3)
   0089 C2r00r0B      [ 4]  145 	sbc	(__modulonglong_PARM_2 + 3)
   008C C6r00r02      [ 4]  146 	lda	(__modulonglong_PARM_1 + 2)
   008F C2r00r0A      [ 4]  147 	sbc	(__modulonglong_PARM_2 + 2)
   0092 C6r00r01      [ 4]  148 	lda	(__modulonglong_PARM_1 + 1)
   0095 C2r00r09      [ 4]  149 	sbc	(__modulonglong_PARM_2 + 1)
   0098 C6r00r00      [ 4]  150 	lda	__modulonglong_PARM_1
   009B C2r00r08      [ 4]  151 	sbc	__modulonglong_PARM_2
   009E 24 60         [ 3]  152 	bcc	00102$
                            153 ;../_modulonglong.c:47: b >>=1;
   00A0 C6r00r08      [ 4]  154 	lda	__modulonglong_PARM_2
   00A3 C7r00r00      [ 4]  155 	sta	__rrulonglong_PARM_1
   00A6 C6r00r09      [ 4]  156 	lda	(__modulonglong_PARM_2 + 1)
   00A9 C7r00r01      [ 4]  157 	sta	(__rrulonglong_PARM_1 + 1)
   00AC C6r00r0A      [ 4]  158 	lda	(__modulonglong_PARM_2 + 2)
   00AF C7r00r02      [ 4]  159 	sta	(__rrulonglong_PARM_1 + 2)
   00B2 C6r00r0B      [ 4]  160 	lda	(__modulonglong_PARM_2 + 3)
   00B5 C7r00r03      [ 4]  161 	sta	(__rrulonglong_PARM_1 + 3)
   00B8 C6r00r0C      [ 4]  162 	lda	(__modulonglong_PARM_2 + 4)
   00BB C7r00r04      [ 4]  163 	sta	(__rrulonglong_PARM_1 + 4)
   00BE C6r00r0D      [ 4]  164 	lda	(__modulonglong_PARM_2 + 5)
   00C1 C7r00r05      [ 4]  165 	sta	(__rrulonglong_PARM_1 + 5)
   00C4 C6r00r0E      [ 4]  166 	lda	(__modulonglong_PARM_2 + 6)
   00C7 C7r00r06      [ 4]  167 	sta	(__rrulonglong_PARM_1 + 6)
   00CA C6r00r0F      [ 4]  168 	lda	(__modulonglong_PARM_2 + 7)
   00CD C7r00r07      [ 4]  169 	sta	(__rrulonglong_PARM_1 + 7)
   00D0 A6 01         [ 2]  170 	lda	#0x01
   00D2 C7r00r00      [ 4]  171 	sta	__rrulonglong_PARM_2
   00D5 8B            [ 2]  172 	pshh
   00D6 CDr00r00      [ 5]  173 	jsr	__rrulonglong
   00D9 C7r00r0F      [ 4]  174 	sta	(__modulonglong_PARM_2 + 7)
   00DC CFr00r0E      [ 4]  175 	stx	(__modulonglong_PARM_2 + 6)
   00DF B6*00         [ 3]  176 	lda	*___SDCC_hc08_ret2
   00E1 C7r00r0D      [ 4]  177 	sta	(__modulonglong_PARM_2 + 5)
   00E4 B6*00         [ 3]  178 	lda	*___SDCC_hc08_ret3
   00E6 C7r00r0C      [ 4]  179 	sta	(__modulonglong_PARM_2 + 4)
   00E9 B6*00         [ 3]  180 	lda	*___SDCC_hc08_ret4
   00EB C7r00r0B      [ 4]  181 	sta	(__modulonglong_PARM_2 + 3)
   00EE B6*00         [ 3]  182 	lda	*___SDCC_hc08_ret5
   00F0 C7r00r0A      [ 4]  183 	sta	(__modulonglong_PARM_2 + 2)
   00F3 B6*00         [ 3]  184 	lda	*___SDCC_hc08_ret6
   00F5 C7r00r09      [ 4]  185 	sta	(__modulonglong_PARM_2 + 1)
   00F8 B6*00         [ 3]  186 	lda	*___SDCC_hc08_ret7
   00FA C7r00r08      [ 4]  187 	sta	__modulonglong_PARM_2
   00FD 8A            [ 2]  188 	pulh
                            189 ;../_modulonglong.c:48: break;
   00FE 20 07         [ 3]  190 	bra	00117$
   0100                     191 00102$:
                            192 ;../_modulonglong.c:50: count++;
   0100 AF 01         [ 2]  193 	aix	#1
   0102 89            [ 2]  194 	pshx
   0103 8A            [ 2]  195 	pulh
   0104 CCr00r02      [ 3]  196 	jmp	00103$
                            197 ;../_modulonglong.c:52: do
   0107                     198 00117$:
   0107 8B            [ 2]  199 	pshh
   0108 88            [ 2]  200 	pulx
   0109                     201 00108$:
                            202 ;../_modulonglong.c:54: if (a >= b)
   0109 C6r00r07      [ 4]  203 	lda	(__modulonglong_PARM_1 + 7)
   010C C0r00r0F      [ 4]  204 	sub	(__modulonglong_PARM_2 + 7)
   010F C6r00r06      [ 4]  205 	lda	(__modulonglong_PARM_1 + 6)
   0112 C2r00r0E      [ 4]  206 	sbc	(__modulonglong_PARM_2 + 6)
   0115 C6r00r05      [ 4]  207 	lda	(__modulonglong_PARM_1 + 5)
   0118 C2r00r0D      [ 4]  208 	sbc	(__modulonglong_PARM_2 + 5)
   011B C6r00r04      [ 4]  209 	lda	(__modulonglong_PARM_1 + 4)
   011E C2r00r0C      [ 4]  210 	sbc	(__modulonglong_PARM_2 + 4)
   0121 C6r00r03      [ 4]  211 	lda	(__modulonglong_PARM_1 + 3)
   0124 C2r00r0B      [ 4]  212 	sbc	(__modulonglong_PARM_2 + 3)
   0127 C6r00r02      [ 4]  213 	lda	(__modulonglong_PARM_1 + 2)
   012A C2r00r0A      [ 4]  214 	sbc	(__modulonglong_PARM_2 + 2)
   012D C6r00r01      [ 4]  215 	lda	(__modulonglong_PARM_1 + 1)
   0130 C2r00r09      [ 4]  216 	sbc	(__modulonglong_PARM_2 + 1)
   0133 C6r00r00      [ 4]  217 	lda	__modulonglong_PARM_1
   0136 C2r00r08      [ 4]  218 	sbc	__modulonglong_PARM_2
   0139 25 48         [ 3]  219 	bcs	00107$
                            220 ;../_modulonglong.c:55: a -= b;
   013B C6r00r07      [ 4]  221 	lda	(__modulonglong_PARM_1 + 7)
   013E C0r00r0F      [ 4]  222 	sub	(__modulonglong_PARM_2 + 7)
   0141 C7r00r07      [ 4]  223 	sta	(__modulonglong_PARM_1 + 7)
   0144 C6r00r06      [ 4]  224 	lda	(__modulonglong_PARM_1 + 6)
   0147 C2r00r0E      [ 4]  225 	sbc	(__modulonglong_PARM_2 + 6)
   014A C7r00r06      [ 4]  226 	sta	(__modulonglong_PARM_1 + 6)
   014D C6r00r05      [ 4]  227 	lda	(__modulonglong_PARM_1 + 5)
   0150 C2r00r0D      [ 4]  228 	sbc	(__modulonglong_PARM_2 + 5)
   0153 C7r00r05      [ 4]  229 	sta	(__modulonglong_PARM_1 + 5)
   0156 C6r00r04      [ 4]  230 	lda	(__modulonglong_PARM_1 + 4)
   0159 C2r00r0C      [ 4]  231 	sbc	(__modulonglong_PARM_2 + 4)
   015C C7r00r04      [ 4]  232 	sta	(__modulonglong_PARM_1 + 4)
   015F C6r00r03      [ 4]  233 	lda	(__modulonglong_PARM_1 + 3)
   0162 C2r00r0B      [ 4]  234 	sbc	(__modulonglong_PARM_2 + 3)
   0165 C7r00r03      [ 4]  235 	sta	(__modulonglong_PARM_1 + 3)
   0168 C6r00r02      [ 4]  236 	lda	(__modulonglong_PARM_1 + 2)
   016B C2r00r0A      [ 4]  237 	sbc	(__modulonglong_PARM_2 + 2)
   016E C7r00r02      [ 4]  238 	sta	(__modulonglong_PARM_1 + 2)
   0171 C6r00r01      [ 4]  239 	lda	(__modulonglong_PARM_1 + 1)
   0174 C2r00r09      [ 4]  240 	sbc	(__modulonglong_PARM_2 + 1)
   0177 C7r00r01      [ 4]  241 	sta	(__modulonglong_PARM_1 + 1)
   017A C6r00r00      [ 4]  242 	lda	__modulonglong_PARM_1
   017D C2r00r08      [ 4]  243 	sbc	__modulonglong_PARM_2
   0180 C7r00r00      [ 4]  244 	sta	__modulonglong_PARM_1
   0183                     245 00107$:
                            246 ;../_modulonglong.c:56: b >>= 1;
   0183 C6r00r08      [ 4]  247 	lda	__modulonglong_PARM_2
   0186 C7r00r00      [ 4]  248 	sta	__rrulonglong_PARM_1
   0189 C6r00r09      [ 4]  249 	lda	(__modulonglong_PARM_2 + 1)
   018C C7r00r01      [ 4]  250 	sta	(__rrulonglong_PARM_1 + 1)
   018F C6r00r0A      [ 4]  251 	lda	(__modulonglong_PARM_2 + 2)
   0192 C7r00r02      [ 4]  252 	sta	(__rrulonglong_PARM_1 + 2)
   0195 C6r00r0B      [ 4]  253 	lda	(__modulonglong_PARM_2 + 3)
   0198 C7r00r03      [ 4]  254 	sta	(__rrulonglong_PARM_1 + 3)
   019B C6r00r0C      [ 4]  255 	lda	(__modulonglong_PARM_2 + 4)
   019E C7r00r04      [ 4]  256 	sta	(__rrulonglong_PARM_1 + 4)
   01A1 C6r00r0D      [ 4]  257 	lda	(__modulonglong_PARM_2 + 5)
   01A4 C7r00r05      [ 4]  258 	sta	(__rrulonglong_PARM_1 + 5)
   01A7 C6r00r0E      [ 4]  259 	lda	(__modulonglong_PARM_2 + 6)
   01AA C7r00r06      [ 4]  260 	sta	(__rrulonglong_PARM_1 + 6)
   01AD C6r00r0F      [ 4]  261 	lda	(__modulonglong_PARM_2 + 7)
   01B0 C7r00r07      [ 4]  262 	sta	(__rrulonglong_PARM_1 + 7)
   01B3 A6 01         [ 2]  263 	lda	#0x01
   01B5 C7r00r00      [ 4]  264 	sta	__rrulonglong_PARM_2
   01B8 89            [ 2]  265 	pshx
   01B9 CDr00r00      [ 5]  266 	jsr	__rrulonglong
   01BC C7r00r0F      [ 4]  267 	sta	(__modulonglong_PARM_2 + 7)
   01BF CFr00r0E      [ 4]  268 	stx	(__modulonglong_PARM_2 + 6)
   01C2 B6*00         [ 3]  269 	lda	*___SDCC_hc08_ret2
   01C4 C7r00r0D      [ 4]  270 	sta	(__modulonglong_PARM_2 + 5)
   01C7 B6*00         [ 3]  271 	lda	*___SDCC_hc08_ret3
   01C9 C7r00r0C      [ 4]  272 	sta	(__modulonglong_PARM_2 + 4)
   01CC B6*00         [ 3]  273 	lda	*___SDCC_hc08_ret4
   01CE C7r00r0B      [ 4]  274 	sta	(__modulonglong_PARM_2 + 3)
   01D1 B6*00         [ 3]  275 	lda	*___SDCC_hc08_ret5
   01D3 C7r00r0A      [ 4]  276 	sta	(__modulonglong_PARM_2 + 2)
   01D6 B6*00         [ 3]  277 	lda	*___SDCC_hc08_ret6
   01D8 C7r00r09      [ 4]  278 	sta	(__modulonglong_PARM_2 + 1)
   01DB B6*00         [ 3]  279 	lda	*___SDCC_hc08_ret7
   01DD C7r00r08      [ 4]  280 	sta	__modulonglong_PARM_2
   01E0 88            [ 2]  281 	pulx
                            282 ;../_modulonglong.c:58: while (count--);
   01E1 9F            [ 1]  283 	txa
   01E2 5A            [ 1]  284 	decx
   01E3 4D            [ 1]  285 	tsta
   01E4 27 03         [ 3]  286 	beq	00141$
   01E6 CCr01r09      [ 3]  287 	jmp	00108$
   01E9                     288 00141$:
                            289 ;../_modulonglong.c:60: return a;
   01E9 C6r00r00      [ 4]  290 	lda	__modulonglong_PARM_1
   01EC B7*00         [ 3]  291 	sta	*___SDCC_hc08_ret7
   01EE C6r00r01      [ 4]  292 	lda	(__modulonglong_PARM_1 + 1)
   01F1 B7*00         [ 3]  293 	sta	*___SDCC_hc08_ret6
   01F3 C6r00r02      [ 4]  294 	lda	(__modulonglong_PARM_1 + 2)
   01F6 B7*00         [ 3]  295 	sta	*___SDCC_hc08_ret5
   01F8 C6r00r03      [ 4]  296 	lda	(__modulonglong_PARM_1 + 3)
   01FB B7*00         [ 3]  297 	sta	*___SDCC_hc08_ret4
   01FD C6r00r04      [ 4]  298 	lda	(__modulonglong_PARM_1 + 4)
   0200 B7*00         [ 3]  299 	sta	*___SDCC_hc08_ret3
   0202 C6r00r05      [ 4]  300 	lda	(__modulonglong_PARM_1 + 5)
   0205 B7*00         [ 3]  301 	sta	*___SDCC_hc08_ret2
   0207 CEr00r06      [ 4]  302 	ldx	(__modulonglong_PARM_1 + 6)
   020A C6r00r07      [ 4]  303 	lda	(__modulonglong_PARM_1 + 7)
   020D 81            [ 4]  304 	rts
                            305 	.area CSEG    (CODE)
                            306 	.area CONST   (CODE)
                            307 	.area XINIT   (CODE)
                            308 	.area CABS    (ABS,CODE)
