                              1 ;--------------------------------------------------------
                              2 ; File Created by SDCC : free open source ANSI-C Compiler
                              3 ; Version 3.5.0 #9253 (Apr  4 2022) (Linux)
                              4 ; This file was generated Mon Apr  4 14:10:33 2022
                              5 ;--------------------------------------------------------
                              6 	.module _realloc
                              7 	.optsdcc -mhc08
                              8 	
                              9 	.area HOME    (CODE)
                             10 	.area GSINIT0 (CODE)
                             11 	.area GSINIT  (CODE)
                             12 	.area GSFINAL (CODE)
                             13 	.area CSEG    (CODE)
                             14 	.area XINIT   (CODE)
                             15 	.area CONST   (CODE)
                             16 	.area DSEG    (PAG)
                             17 	.area OSEG    (PAG, OVR)
                             18 	.area XSEG
                             19 	.area XISEG
                             20 ;--------------------------------------------------------
                             21 ; Public variables in this module
                             22 ;--------------------------------------------------------
                             23 	.globl __sdcc_find_memheader
                             24 	.globl _memmove
                             25 	.globl _memcpy
                             26 	.globl _free
                             27 	.globl _malloc
                             28 	.globl _realloc_PARM_2
                             29 	.globl _realloc
                             30 ;--------------------------------------------------------
                             31 ; ram data
                             32 ;--------------------------------------------------------
                             33 	.area DSEG    (PAG)
   0000                      34 _realloc_sloc0_1_0:
   0000                      35 	.ds 2
   0002                      36 _realloc_sloc1_1_0:
   0002                      37 	.ds 2
   0004                      38 _realloc_sloc2_1_0:
   0004                      39 	.ds 2
   0006                      40 _realloc_sloc3_1_0:
   0006                      41 	.ds 2
                             42 ;--------------------------------------------------------
                             43 ; overlayable items in ram 
                             44 ;--------------------------------------------------------
                             45 ;--------------------------------------------------------
                             46 ; absolute ram data
                             47 ;--------------------------------------------------------
                             48 	.area IABS    (ABS)
                             49 	.area IABS    (ABS)
                             50 ;--------------------------------------------------------
                             51 ; absolute external ram data
                             52 ;--------------------------------------------------------
                             53 	.area XABS    (ABS)
                             54 ;--------------------------------------------------------
                             55 ; external initialized ram data
                             56 ;--------------------------------------------------------
                             57 	.area XISEG
                             58 ;--------------------------------------------------------
                             59 ; extended address mode data
                             60 ;--------------------------------------------------------
                             61 	.area XSEG
   0000                      62 _realloc_PARM_2:
   0000                      63 	.ds 2
   0002                      64 _realloc_p_1_26:
   0002                      65 	.ds 2
   0004                      66 _realloc_pthis_1_27:
   0004                      67 	.ds 2
   0006                      68 _realloc_pnew_1_27:
   0006                      69 	.ds 2
                             70 ;--------------------------------------------------------
                             71 ; global & static initialisations
                             72 ;--------------------------------------------------------
                             73 	.area HOME    (CODE)
                             74 	.area GSINIT  (CODE)
                             75 	.area GSFINAL (CODE)
                             76 	.area GSINIT  (CODE)
                             77 ;--------------------------------------------------------
                             78 ; Home
                             79 ;--------------------------------------------------------
                             80 	.area HOME    (CODE)
                             81 	.area HOME    (CODE)
                             82 ;--------------------------------------------------------
                             83 ; code
                             84 ;--------------------------------------------------------
                             85 	.area CSEG    (CODE)
                             86 ;------------------------------------------------------------
                             87 ;Allocation info for local variables in function 'realloc'
                             88 ;------------------------------------------------------------
                             89 ;sloc0                     Allocated with name '_realloc_sloc0_1_0'
                             90 ;sloc1                     Allocated with name '_realloc_sloc1_1_0'
                             91 ;sloc2                     Allocated with name '_realloc_sloc2_1_0'
                             92 ;sloc3                     Allocated with name '_realloc_sloc3_1_0'
                             93 ;size                      Allocated with name '_realloc_PARM_2'
                             94 ;p                         Allocated with name '_realloc_p_1_26'
                             95 ;pthis                     Allocated with name '_realloc_pthis_1_27'
                             96 ;pnew                      Allocated with name '_realloc_pnew_1_27'
                             97 ;ret                       Allocated to registers a x 
                             98 ;------------------------------------------------------------
                             99 ;../_realloc.c:84: void __xdata * realloc (void * p, size_t size)
                            100 ;	-----------------------------------------
                            101 ;	 function realloc
                            102 ;	-----------------------------------------
                            103 ;	Register assignment is optimal.
                            104 ;	Stack space usage: 0 bytes.
   0000                     105 _realloc:
   0000 C7r00r03      [ 4]  106 	sta	(_realloc_p_1_26 + 1)
   0003 CFr00r02      [ 4]  107 	stx	_realloc_p_1_26
                            108 ;../_realloc.c:92: pthis = _sdcc_find_memheader(p);
   0006 C6r00r03      [ 4]  109 	lda	(_realloc_p_1_26 + 1)
   0009 B7*01         [ 3]  110 	sta	*(_realloc_sloc0_1_0 + 1)
   000B C6r00r02      [ 4]  111 	lda	_realloc_p_1_26
   000E B7*00         [ 3]  112 	sta	*_realloc_sloc0_1_0
   0010 B6*01         [ 3]  113 	lda	*(_realloc_sloc0_1_0 + 1)
   0012 BE*00         [ 3]  114 	ldx	*_realloc_sloc0_1_0
   0014 CDr00r00      [ 5]  115 	jsr	__sdcc_find_memheader
   0017 C7r00r05      [ 4]  116 	sta	(_realloc_pthis_1_27 + 1)
   001A CFr00r04      [ 4]  117 	stx	_realloc_pthis_1_27
                            118 ;../_realloc.c:93: if (pthis)
   001D C6r00r04      [ 4]  119 	lda	_realloc_pthis_1_27
   0020 CAr00r05      [ 4]  120 	ora	(_realloc_pthis_1_27 + 1)
   0023 26 03         [ 3]  121 	bne	00142$
   0025 CCr01rAA      [ 3]  122 	jmp	00114$
   0028                     123 00142$:
                            124 ;../_realloc.c:95: if (size > (0xFFFF-HEADER_SIZE))
   0028 A6 FB         [ 2]  125 	lda	#0xFB
   002A C0r00r01      [ 4]  126 	sub	(_realloc_PARM_2 + 1)
   002D A6 FF         [ 2]  127 	lda	#0xFF
   002F C2r00r00      [ 4]  128 	sbc	_realloc_PARM_2
   0032 24 03         [ 3]  129 	bcc	00111$
                            130 ;../_realloc.c:97: ret = (void __xdata *) NULL; //To prevent overflow in next line
   0034 5F            [ 1]  131 	clrx
   0035 9F            [ 1]  132 	txa
   0036 81            [ 4]  133 	rts
   0037                     134 00111$:
                            135 ;../_realloc.c:101: size += HEADER_SIZE; //We need a memory for header too
   0037 45r00r00      [ 3]  136 	ldhx	#_realloc_PARM_2
   003A E6 01         [ 3]  137 	lda	1,x
   003C AB 04         [ 2]  138 	add	#0x04
   003E E7 01         [ 3]  139 	sta	1,x
   0040 24 01         [ 3]  140 	bcc	00144$
   0042 7C            [ 3]  141 	inc	,x
   0043                     142 00144$:
                            143 ;../_realloc.c:103: if ((((unsigned int)pthis->next) - ((unsigned int)pthis)) >= size)
   0043 C6r00r04      [ 4]  144 	lda	_realloc_pthis_1_27
   0046 87            [ 2]  145 	psha
   0047 8A            [ 2]  146 	pulh
   0048 CEr00r05      [ 4]  147 	ldx	(_realloc_pthis_1_27 + 1)
   004B F6            [ 2]  148 	lda	,x
   004C B7*02         [ 3]  149 	sta	*_realloc_sloc1_1_0
   004E E6 01         [ 3]  150 	lda	1,x
   0050 B7*03         [ 3]  151 	sta	*(_realloc_sloc1_1_0 + 1)
   0052 55*02         [ 4]  152 	ldhx	*_realloc_sloc1_1_0
   0054 C6r00r05      [ 4]  153 	lda	(_realloc_pthis_1_27 + 1)
   0057 B7*05         [ 3]  154 	sta	*(_realloc_sloc2_1_0 + 1)
   0059 C6r00r04      [ 4]  155 	lda	_realloc_pthis_1_27
   005C B7*04         [ 3]  156 	sta	*_realloc_sloc2_1_0
   005E 9F            [ 1]  157 	txa
   005F B0*05         [ 3]  158 	sub	*(_realloc_sloc2_1_0 + 1)
   0061 87            [ 2]  159 	psha
   0062 8B            [ 2]  160 	pshh
   0063 86            [ 2]  161 	pula
   0064 B2*04         [ 3]  162 	sbc	*_realloc_sloc2_1_0
   0066 97            [ 1]  163 	tax
                            164 ;../_realloc.c:105: pthis->len = size;
   0067 C6r00r04      [ 4]  165 	lda	_realloc_pthis_1_27
   006A B7*04         [ 3]  166 	sta	*_realloc_sloc2_1_0
   006C C6r00r05      [ 4]  167 	lda	(_realloc_pthis_1_27 + 1)
   006F B7*05         [ 3]  168 	sta	*(_realloc_sloc2_1_0 + 1)
   0071 86            [ 2]  169 	pula
                            170 ;../_realloc.c:103: if ((((unsigned int)pthis->next) - ((unsigned int)pthis)) >= size)
   0072 C0r00r01      [ 4]  171 	sub	(_realloc_PARM_2 + 1)
   0075 9F            [ 1]  172 	txa
   0076 C2r00r00      [ 4]  173 	sbc	_realloc_PARM_2
   0079 25 11         [ 3]  174 	bcs	00108$
                            175 ;../_realloc.c:105: pthis->len = size;
   007B 55*04         [ 4]  176 	ldhx	*_realloc_sloc2_1_0
   007D C6r00r00      [ 4]  177 	lda	_realloc_PARM_2
   0080 E7 02         [ 3]  178 	sta	2,x
   0082 C6r00r01      [ 4]  179 	lda	(_realloc_PARM_2 + 1)
   0085 E7 03         [ 3]  180 	sta	3,x
                            181 ;../_realloc.c:106: ret = p;
   0087 BE*00         [ 3]  182 	ldx	*_realloc_sloc0_1_0
   0089 B6*01         [ 3]  183 	lda	*(_realloc_sloc0_1_0 + 1)
   008B 81            [ 4]  184 	rts
   008C                     185 00108$:
                            186 ;../_realloc.c:110: if ((_sdcc_prev_memheader) &&
   008C C6r00r00      [ 4]  187 	lda	__sdcc_prev_memheader
   008F CAr00r01      [ 4]  188 	ora	(__sdcc_prev_memheader + 1)
   0092 26 03         [ 3]  189 	bne	00146$
   0094 CCr01r3F      [ 3]  190 	jmp	00104$
   0097                     191 00146$:
                            192 ;../_realloc.c:111: ((((unsigned int)pthis->next) -
   0097 55*02         [ 4]  193 	ldhx	*_realloc_sloc1_1_0
                            194 ;../_realloc.c:112: ((unsigned int)_sdcc_prev_memheader) -
   0099 C6r00r01      [ 4]  195 	lda	(__sdcc_prev_memheader + 1)
   009C B7*03         [ 3]  196 	sta	*(_realloc_sloc1_1_0 + 1)
   009E C6r00r00      [ 4]  197 	lda	__sdcc_prev_memheader
   00A1 B7*02         [ 3]  198 	sta	*_realloc_sloc1_1_0
   00A3 9F            [ 1]  199 	txa
   00A4 B0*03         [ 3]  200 	sub	*(_realloc_sloc1_1_0 + 1)
   00A6 B7*03         [ 3]  201 	sta	*(_realloc_sloc1_1_0 + 1)
   00A8 8B            [ 2]  202 	pshh
   00A9 86            [ 2]  203 	pula
   00AA B2*02         [ 3]  204 	sbc	*_realloc_sloc1_1_0
   00AC B7*02         [ 3]  205 	sta	*_realloc_sloc1_1_0
                            206 ;../_realloc.c:113: _sdcc_prev_memheader->len) >= size))
   00AE C6r00r00      [ 4]  207 	lda	__sdcc_prev_memheader
   00B1 B7*00         [ 3]  208 	sta	*_realloc_sloc0_1_0
   00B3 C6r00r01      [ 4]  209 	lda	(__sdcc_prev_memheader + 1)
   00B6 B7*01         [ 3]  210 	sta	*(_realloc_sloc0_1_0 + 1)
   00B8 55*00         [ 4]  211 	ldhx	*_realloc_sloc0_1_0
   00BA E6 02         [ 3]  212 	lda	2,x
   00BC B7*06         [ 3]  213 	sta	*_realloc_sloc3_1_0
   00BE E6 03         [ 3]  214 	lda	3,x
   00C0 B7*07         [ 3]  215 	sta	*(_realloc_sloc3_1_0 + 1)
   00C2 B6*03         [ 3]  216 	lda	*(_realloc_sloc1_1_0 + 1)
   00C4 B0*07         [ 3]  217 	sub	*(_realloc_sloc3_1_0 + 1)
   00C6 87            [ 2]  218 	psha
   00C7 B6*02         [ 3]  219 	lda	*_realloc_sloc1_1_0
   00C9 B2*06         [ 3]  220 	sbc	*_realloc_sloc3_1_0
   00CB 97            [ 1]  221 	tax
   00CC 86            [ 2]  222 	pula
   00CD C0r00r01      [ 4]  223 	sub	(_realloc_PARM_2 + 1)
   00D0 9F            [ 1]  224 	txa
   00D1 C2r00r00      [ 4]  225 	sbc	_realloc_PARM_2
   00D4 25 69         [ 3]  226 	bcs	00104$
                            227 ;../_realloc.c:115: pnew = (MEMHEADER __xdata * )((char __xdata *)_sdcc_prev_memheader + _sdcc_prev_memheader->len);
   00D6 C6r00r01      [ 4]  228 	lda	(__sdcc_prev_memheader + 1)
   00D9 CEr00r00      [ 4]  229 	ldx	__sdcc_prev_memheader
   00DC BB*07         [ 3]  230 	add	*(_realloc_sloc3_1_0 + 1)
   00DE 87            [ 2]  231 	psha
   00DF 9F            [ 1]  232 	txa
   00E0 B9*06         [ 3]  233 	adc	*_realloc_sloc3_1_0
   00E2 97            [ 1]  234 	tax
   00E3 86            [ 2]  235 	pula
   00E4 C7r00r07      [ 4]  236 	sta	(_realloc_pnew_1_27 + 1)
   00E7 CFr00r06      [ 4]  237 	stx	_realloc_pnew_1_27
                            238 ;../_realloc.c:116: _sdcc_prev_memheader->next = pnew;
   00EA 55*00         [ 4]  239 	ldhx	*_realloc_sloc0_1_0
   00EC C6r00r06      [ 4]  240 	lda	_realloc_pnew_1_27
   00EF F7            [ 2]  241 	sta	,x
   00F0 C6r00r07      [ 4]  242 	lda	(_realloc_pnew_1_27 + 1)
   00F3 E7 01         [ 3]  243 	sta	1,x
                            244 ;../_realloc.c:122: memmove(pnew, pthis, pthis->len);
   00F5 C6r00r06      [ 4]  245 	lda	_realloc_pnew_1_27
   00F8 87            [ 2]  246 	psha
   00F9 8A            [ 2]  247 	pulh
   00FA CEr00r07      [ 4]  248 	ldx	(_realloc_pnew_1_27 + 1)
   00FD C6r00r05      [ 4]  249 	lda	(_realloc_pthis_1_27 + 1)
   0100 C7r00r01      [ 4]  250 	sta	(_memmove_PARM_2 + 1)
   0103 C6r00r04      [ 4]  251 	lda	_realloc_pthis_1_27
   0106 C7r00r00      [ 4]  252 	sta	_memmove_PARM_2
   0109 89            [ 2]  253 	pshx
   010A 8B            [ 2]  254 	pshh
   010B 55*04         [ 4]  255 	ldhx	*_realloc_sloc2_1_0
   010D E6 02         [ 3]  256 	lda	2,x
   010F C7r00r00      [ 4]  257 	sta	_memmove_PARM_3
   0112 E6 03         [ 3]  258 	lda	3,x
   0114 C7r00r01      [ 4]  259 	sta	(_memmove_PARM_3 + 1)
   0117 8A            [ 2]  260 	pulh
   0118 88            [ 2]  261 	pulx
   0119 9F            [ 1]  262 	txa
   011A 8B            [ 2]  263 	pshh
   011B 88            [ 2]  264 	pulx
   011C CDr00r00      [ 5]  265 	jsr	_memmove
                            266 ;../_realloc.c:123: pnew->len = size;
   011F C6r00r06      [ 4]  267 	lda	_realloc_pnew_1_27
   0122 87            [ 2]  268 	psha
   0123 8A            [ 2]  269 	pulh
   0124 CEr00r07      [ 4]  270 	ldx	(_realloc_pnew_1_27 + 1)
   0127 C6r00r00      [ 4]  271 	lda	_realloc_PARM_2
   012A E7 02         [ 3]  272 	sta	2,x
   012C C6r00r01      [ 4]  273 	lda	(_realloc_PARM_2 + 1)
   012F E7 03         [ 3]  274 	sta	3,x
                            275 ;../_realloc.c:124: ret = MEM(pnew);
   0131 C6r00r06      [ 4]  276 	lda	_realloc_pnew_1_27
   0134 87            [ 2]  277 	psha
   0135 8A            [ 2]  278 	pulh
   0136 CEr00r07      [ 4]  279 	ldx	(_realloc_pnew_1_27 + 1)
   0139 AF 04         [ 2]  280 	aix	#4
   013B 9F            [ 1]  281 	txa
   013C 8B            [ 2]  282 	pshh
   013D 88            [ 2]  283 	pulx
   013E 81            [ 4]  284 	rts
   013F                     285 00104$:
                            286 ;../_realloc.c:128: ret = malloc(size - HEADER_SIZE);
   013F C6r00r00      [ 4]  287 	lda	_realloc_PARM_2
   0142 87            [ 2]  288 	psha
   0143 8A            [ 2]  289 	pulh
   0144 CEr00r01      [ 4]  290 	ldx	(_realloc_PARM_2 + 1)
   0147 AF FC         [ 2]  291 	aix	#-4
   0149 9F            [ 1]  292 	txa
   014A 8B            [ 2]  293 	pshh
   014B 88            [ 2]  294 	pulx
   014C CDr00r00      [ 5]  295 	jsr	_malloc
                            296 ;../_realloc.c:129: if (ret)
   014F 4D            [ 1]  297 	tsta
   0150 26 01         [ 3]  298 	bne	00148$
   0152 5D            [ 1]  299 	tstx
   0153                     300 00148$:
   0153 27 5E         [ 3]  301 	beq	00115$
                            302 ;../_realloc.c:131: memcpy(ret, MEM(pthis), pthis->len - HEADER_SIZE);
   0155 B7*07         [ 3]  303 	sta	*(_realloc_sloc3_1_0 + 1)
   0157 BF*06         [ 3]  304 	stx	*_realloc_sloc3_1_0
   0159 87            [ 2]  305 	psha
   015A C6r00r05      [ 4]  306 	lda	(_realloc_pthis_1_27 + 1)
   015D AB 04         [ 2]  307 	add	#0x04
   015F B7*03         [ 3]  308 	sta	*(_realloc_sloc1_1_0 + 1)
   0161 C6r00r04      [ 4]  309 	lda	_realloc_pthis_1_27
   0164 A9 00         [ 2]  310 	adc	#0
   0166 B7*02         [ 3]  311 	sta	*_realloc_sloc1_1_0
   0168 B6*03         [ 3]  312 	lda	*(_realloc_sloc1_1_0 + 1)
   016A C7r00r01      [ 4]  313 	sta	(_memcpy_PARM_2 + 1)
   016D B6*02         [ 3]  314 	lda	*_realloc_sloc1_1_0
   016F C7r00r00      [ 4]  315 	sta	_memcpy_PARM_2
   0172 86            [ 2]  316 	pula
   0173 89            [ 2]  317 	pshx
   0174 55*04         [ 4]  318 	ldhx	*_realloc_sloc2_1_0
   0176 87            [ 2]  319 	psha
   0177 E6 02         [ 3]  320 	lda	2,x
   0179 B7*04         [ 3]  321 	sta	*_realloc_sloc2_1_0
   017B E6 03         [ 3]  322 	lda	3,x
   017D B7*05         [ 3]  323 	sta	*(_realloc_sloc2_1_0 + 1)
   017F 86            [ 2]  324 	pula
   0180 88            [ 2]  325 	pulx
   0181 87            [ 2]  326 	psha
   0182 B6*05         [ 3]  327 	lda	*(_realloc_sloc2_1_0 + 1)
   0184 A0 04         [ 2]  328 	sub	#0x04
   0186 C7r00r01      [ 4]  329 	sta	(_memcpy_PARM_3 + 1)
   0189 B6*04         [ 3]  330 	lda	*_realloc_sloc2_1_0
   018B A2 00         [ 2]  331 	sbc	#0x00
   018D C7r00r00      [ 4]  332 	sta	_memcpy_PARM_3
   0190 86            [ 2]  333 	pula
   0191 87            [ 2]  334 	psha
   0192 89            [ 2]  335 	pshx
   0193 B6*07         [ 3]  336 	lda	*(_realloc_sloc3_1_0 + 1)
   0195 BE*06         [ 3]  337 	ldx	*_realloc_sloc3_1_0
   0197 CDr00r00      [ 5]  338 	jsr	_memcpy
   019A 88            [ 2]  339 	pulx
   019B 86            [ 2]  340 	pula
                            341 ;../_realloc.c:132: free(p);
   019C 87            [ 2]  342 	psha
   019D 89            [ 2]  343 	pshx
   019E C6r00r03      [ 4]  344 	lda	(_realloc_p_1_26 + 1)
   01A1 CEr00r02      [ 4]  345 	ldx	_realloc_p_1_26
   01A4 CDr00r00      [ 5]  346 	jsr	_free
   01A7 88            [ 2]  347 	pulx
   01A8 86            [ 2]  348 	pula
   01A9 81            [ 4]  349 	rts
   01AA                     350 00114$:
                            351 ;../_realloc.c:140: ret = malloc(size);
   01AA C6r00r01      [ 4]  352 	lda	(_realloc_PARM_2 + 1)
   01AD CEr00r00      [ 4]  353 	ldx	_realloc_PARM_2
   01B0 CDr00r00      [ 5]  354 	jsr	_malloc
   01B3                     355 00115$:
                            356 ;../_realloc.c:143: return ret;
   01B3 81            [ 4]  357 	rts
                            358 	.area CSEG    (CODE)
                            359 	.area CONST   (CODE)
                            360 	.area XINIT   (CODE)
                            361 	.area CABS    (ABS,CODE)
