                              1 ;--------------------------------------------------------
                              2 ; File Created by SDCC : free open source ANSI-C Compiler
                              3 ; Version 3.5.0 #9253 (Apr  4 2022) (Linux)
                              4 ; This file was generated Mon Apr  4 14:10:32 2022
                              5 ;--------------------------------------------------------
                              6 	.module asincosf
                              7 	.optsdcc -mhc08
                              8 	
                              9 	.area HOME    (CODE)
                             10 	.area GSINIT0 (CODE)
                             11 	.area GSINIT  (CODE)
                             12 	.area GSFINAL (CODE)
                             13 	.area CSEG    (CODE)
                             14 	.area XINIT   (CODE)
                             15 	.area CONST   (CODE)
                             16 	.area DSEG    (PAG)
                             17 	.area OSEG    (PAG, OVR)
                             18 	.area XSEG
                             19 	.area XISEG
                             20 ;--------------------------------------------------------
                             21 ; Public variables in this module
                             22 ;--------------------------------------------------------
                             23 	.globl _asincosf
                             24 	.globl _ldexpf
                             25 	.globl _fabsf
                             26 	.globl _sqrtf
                             27 	.globl _asincosf_PARM_2
                             28 	.globl _asincosf_PARM_1
                             29 ;--------------------------------------------------------
                             30 ; ram data
                             31 ;--------------------------------------------------------
                             32 	.area DSEG    (PAG)
   0000                      33 _asincosf_sloc0_1_0:
   0000                      34 	.ds 4
   0004                      35 _asincosf_sloc1_1_0:
   0004                      36 	.ds 4
                             37 ;--------------------------------------------------------
                             38 ; overlayable items in ram 
                             39 ;--------------------------------------------------------
                             40 ;--------------------------------------------------------
                             41 ; absolute ram data
                             42 ;--------------------------------------------------------
                             43 	.area IABS    (ABS)
                             44 	.area IABS    (ABS)
                             45 ;--------------------------------------------------------
                             46 ; absolute external ram data
                             47 ;--------------------------------------------------------
                             48 	.area XABS    (ABS)
                             49 ;--------------------------------------------------------
                             50 ; external initialized ram data
                             51 ;--------------------------------------------------------
                             52 	.area XISEG
                             53 ;--------------------------------------------------------
                             54 ; extended address mode data
                             55 ;--------------------------------------------------------
                             56 	.area XSEG
   0000                      57 _asincosf_PARM_1:
   0000                      58 	.ds 4
   0004                      59 _asincosf_PARM_2:
   0004                      60 	.ds 1
   0005                      61 _asincosf_y_1_24:
   0005                      62 	.ds 4
   0009                      63 _asincosf_g_1_24:
   0009                      64 	.ds 4
   000D                      65 _asincosf_r_1_24:
   000D                      66 	.ds 4
   0011                      67 _asincosf_quartPI_1_24:
   0011                      68 	.ds 1
                             69 ;--------------------------------------------------------
                             70 ; global & static initialisations
                             71 ;--------------------------------------------------------
                             72 	.area HOME    (CODE)
                             73 	.area GSINIT  (CODE)
                             74 	.area GSFINAL (CODE)
                             75 	.area GSINIT  (CODE)
                             76 ;--------------------------------------------------------
                             77 ; Home
                             78 ;--------------------------------------------------------
                             79 	.area HOME    (CODE)
                             80 	.area HOME    (CODE)
                             81 ;--------------------------------------------------------
                             82 ; code
                             83 ;--------------------------------------------------------
                             84 	.area CSEG    (CODE)
                             85 ;------------------------------------------------------------
                             86 ;Allocation info for local variables in function 'asincosf'
                             87 ;------------------------------------------------------------
                             88 ;sloc0                     Allocated with name '_asincosf_sloc0_1_0'
                             89 ;sloc1                     Allocated with name '_asincosf_sloc1_1_0'
                             90 ;x                         Allocated with name '_asincosf_PARM_1'
                             91 ;isacos                    Allocated with name '_asincosf_PARM_2'
                             92 ;y                         Allocated with name '_asincosf_y_1_24'
                             93 ;g                         Allocated with name '_asincosf_g_1_24'
                             94 ;r                         Allocated with name '_asincosf_r_1_24'
                             95 ;i                         Allocated to registers x 
                             96 ;quartPI                   Allocated with name '_asincosf_quartPI_1_24'
                             97 ;------------------------------------------------------------
                             98 ;../asincosf.c:47: float asincosf(float x, bool isacos)
                             99 ;	-----------------------------------------
                            100 ;	 function asincosf
                            101 ;	-----------------------------------------
                            102 ;	Register assignment might be sub-optimal.
                            103 ;	Stack space usage: 0 bytes.
   0000                     104 _asincosf:
                            105 ;../asincosf.c:51: bool quartPI = isacos;
   0000 C6r00r04      [ 4]  106 	lda	_asincosf_PARM_2
   0003 C7r00r11      [ 4]  107 	sta	_asincosf_quartPI_1_24
                            108 ;../asincosf.c:56: y = fabsf(x);
   0006 C6r00r03      [ 4]  109 	lda	(_asincosf_PARM_1 + 3)
   0009 87            [ 2]  110 	psha
   000A C6r00r02      [ 4]  111 	lda	(_asincosf_PARM_1 + 2)
   000D 87            [ 2]  112 	psha
   000E C6r00r01      [ 4]  113 	lda	(_asincosf_PARM_1 + 1)
   0011 87            [ 2]  114 	psha
   0012 C6r00r00      [ 4]  115 	lda	_asincosf_PARM_1
   0015 87            [ 2]  116 	psha
   0016 CDr00r00      [ 5]  117 	jsr	_fabsf
   0019 B7*03         [ 3]  118 	sta	*(_asincosf_sloc0_1_0 + 3)
   001B BF*02         [ 3]  119 	stx	*(_asincosf_sloc0_1_0 + 2)
   001D 4E*00*01      [ 5]  120 	mov	*___SDCC_hc08_ret2,*(_asincosf_sloc0_1_0 + 1)
   0020 4E*00*00      [ 5]  121 	mov	*___SDCC_hc08_ret3,*_asincosf_sloc0_1_0
   0023 A7 04         [ 2]  122 	ais	#4
   0025 45r00r05      [ 3]  123 	ldhx	#_asincosf_y_1_24
   0028 5E*00         [ 4]  124 	mov	*_asincosf_sloc0_1_0,x+
   002A 5E*01         [ 4]  125 	mov	*(_asincosf_sloc0_1_0 + 1),x+
   002C 5E*02         [ 4]  126 	mov	*(_asincosf_sloc0_1_0 + 2),x+
   002E 5E*03         [ 4]  127 	mov	*(_asincosf_sloc0_1_0 + 3),x+
                            128 ;../asincosf.c:57: if (y < EPS)
   0030 45r00r00      [ 3]  129 	ldhx	#___fslt_PARM_1
   0033 5E*00         [ 4]  130 	mov	*_asincosf_sloc0_1_0,x+
   0035 5E*01         [ 4]  131 	mov	*(_asincosf_sloc0_1_0 + 1),x+
   0037 5E*02         [ 4]  132 	mov	*(_asincosf_sloc0_1_0 + 2),x+
   0039 5E*03         [ 4]  133 	mov	*(_asincosf_sloc0_1_0 + 3),x+
   003B 45r00r00      [ 3]  134 	ldhx	#___fslt_PARM_2
   003E A6 39         [ 2]  135 	lda	#0x39
   0040 F7            [ 2]  136 	sta	,x
   0041 A6 80         [ 2]  137 	lda	#0x80
   0043 E7 01         [ 3]  138 	sta	1,x
   0045 4F            [ 1]  139 	clra
   0046 E7 02         [ 3]  140 	sta	2,x
   0048 E7 03         [ 3]  141 	sta	3,x
   004A CDr00r00      [ 5]  142 	jsr	___fslt
   004D 4D            [ 1]  143 	tsta
   004E 27 0E         [ 3]  144 	beq	00107$
                            145 ;../asincosf.c:59: r = y;
   0050 45r00r0D      [ 3]  146 	ldhx	#_asincosf_r_1_24
   0053 5E*00         [ 4]  147 	mov	*_asincosf_sloc0_1_0,x+
   0055 5E*01         [ 4]  148 	mov	*(_asincosf_sloc0_1_0 + 1),x+
   0057 5E*02         [ 4]  149 	mov	*(_asincosf_sloc0_1_0 + 2),x+
   0059 5E*03         [ 4]  150 	mov	*(_asincosf_sloc0_1_0 + 3),x+
   005B CCr02rF4      [ 3]  151 	jmp	00108$
   005E                     152 00107$:
                            153 ;../asincosf.c:63: if (y > 0.5)
   005E 45r00r00      [ 3]  154 	ldhx	#___fsgt_PARM_1
   0061 5E*00         [ 4]  155 	mov	*_asincosf_sloc0_1_0,x+
   0063 5E*01         [ 4]  156 	mov	*(_asincosf_sloc0_1_0 + 1),x+
   0065 5E*02         [ 4]  157 	mov	*(_asincosf_sloc0_1_0 + 2),x+
   0067 5E*03         [ 4]  158 	mov	*(_asincosf_sloc0_1_0 + 3),x+
   0069 45r00r00      [ 3]  159 	ldhx	#___fsgt_PARM_2
   006C A6 3F         [ 2]  160 	lda	#0x3F
   006E F7            [ 2]  161 	sta	,x
   006F 4F            [ 1]  162 	clra
   0070 E7 01         [ 3]  163 	sta	1,x
   0072 E7 02         [ 3]  164 	sta	2,x
   0074 E7 03         [ 3]  165 	sta	3,x
   0076 CDr00r00      [ 5]  166 	jsr	___fsgt
   0079 4D            [ 1]  167 	tsta
   007A 26 03         [ 3]  168 	bne	00144$
   007C CCr01r5A      [ 3]  169 	jmp	00104$
   007F                     170 00144$:
                            171 ;../asincosf.c:65: quartPI = !isacos;
   007F C6r00r11      [ 4]  172 	lda	_asincosf_quartPI_1_24
   0082 A8 01         [ 2]  173 	eor	#0x01
   0084 C7r00r11      [ 4]  174 	sta	_asincosf_quartPI_1_24
                            175 ;../asincosf.c:66: if (y > 1.0)
   0087 45r00r00      [ 3]  176 	ldhx	#___fsgt_PARM_1
   008A 5E*00         [ 4]  177 	mov	*_asincosf_sloc0_1_0,x+
   008C 5E*01         [ 4]  178 	mov	*(_asincosf_sloc0_1_0 + 1),x+
   008E 5E*02         [ 4]  179 	mov	*(_asincosf_sloc0_1_0 + 2),x+
   0090 5E*03         [ 4]  180 	mov	*(_asincosf_sloc0_1_0 + 3),x+
   0092 45r00r00      [ 3]  181 	ldhx	#___fsgt_PARM_2
   0095 A6 3F         [ 2]  182 	lda	#0x3F
   0097 F7            [ 2]  183 	sta	,x
   0098 A6 80         [ 2]  184 	lda	#0x80
   009A E7 01         [ 3]  185 	sta	1,x
   009C 4F            [ 1]  186 	clra
   009D E7 02         [ 3]  187 	sta	2,x
   009F E7 03         [ 3]  188 	sta	3,x
   00A1 CDr00r00      [ 5]  189 	jsr	___fsgt
   00A4 4D            [ 1]  190 	tsta
   00A5 27 10         [ 3]  191 	beq	00102$
                            192 ;../asincosf.c:68: errno = EDOM;
   00A7 4F            [ 1]  193 	clra
   00A8 C7r00r00      [ 4]  194 	sta	_errno
   00AB A6 21         [ 2]  195 	lda	#0x21
   00AD C7r00r01      [ 4]  196 	sta	(_errno + 1)
                            197 ;../asincosf.c:69: return 0.0;
   00B0 4F            [ 1]  198 	clra
   00B1 97            [ 1]  199 	tax
   00B2 B7*00         [ 3]  200 	sta	*___SDCC_hc08_ret2
   00B4 B7*00         [ 3]  201 	sta	*___SDCC_hc08_ret3
   00B6 81            [ 4]  202 	rts
   00B7                     203 00102$:
                            204 ;../asincosf.c:71: g = (0.5 - y) + 0.5;
   00B7 45r00r00      [ 3]  205 	ldhx	#___fssub_PARM_1
   00BA A6 3F         [ 2]  206 	lda	#0x3F
   00BC F7            [ 2]  207 	sta	,x
   00BD A6 80         [ 2]  208 	lda	#0x80
   00BF E7 01         [ 3]  209 	sta	1,x
   00C1 4F            [ 1]  210 	clra
   00C2 E7 02         [ 3]  211 	sta	2,x
   00C4 E7 03         [ 3]  212 	sta	3,x
   00C6 45r00r00      [ 3]  213 	ldhx	#___fssub_PARM_2
   00C9 5E*00         [ 4]  214 	mov	*_asincosf_sloc0_1_0,x+
   00CB 5E*01         [ 4]  215 	mov	*(_asincosf_sloc0_1_0 + 1),x+
   00CD 5E*02         [ 4]  216 	mov	*(_asincosf_sloc0_1_0 + 2),x+
   00CF 5E*03         [ 4]  217 	mov	*(_asincosf_sloc0_1_0 + 3),x+
                            218 ;../asincosf.c:72: g = ldexpf(g, -1);
   00D1 CDr00r00      [ 5]  219 	jsr	___fssub
   00D4 C7r00r03      [ 4]  220 	sta	(_ldexpf_PARM_1 + 3)
   00D7 CFr00r02      [ 4]  221 	stx	(_ldexpf_PARM_1 + 2)
   00DA B6*00         [ 3]  222 	lda	*___SDCC_hc08_ret2
   00DC C7r00r01      [ 4]  223 	sta	(_ldexpf_PARM_1 + 1)
   00DF B6*00         [ 3]  224 	lda	*___SDCC_hc08_ret3
   00E1 C7r00r00      [ 4]  225 	sta	_ldexpf_PARM_1
   00E4 A6 FF         [ 2]  226 	lda	#0xFF
   00E6 C7r00r00      [ 4]  227 	sta	_ldexpf_PARM_2
   00E9 C7r00r01      [ 4]  228 	sta	(_ldexpf_PARM_2 + 1)
   00EC CDr00r00      [ 5]  229 	jsr	_ldexpf
   00EF B7*07         [ 3]  230 	sta	*(_asincosf_sloc1_1_0 + 3)
   00F1 BF*06         [ 3]  231 	stx	*(_asincosf_sloc1_1_0 + 2)
   00F3 4E*00*05      [ 5]  232 	mov	*___SDCC_hc08_ret2,*(_asincosf_sloc1_1_0 + 1)
   00F6 4E*00*04      [ 5]  233 	mov	*___SDCC_hc08_ret3,*_asincosf_sloc1_1_0
   00F9 45r00r09      [ 3]  234 	ldhx	#_asincosf_g_1_24
   00FC 5E*04         [ 4]  235 	mov	*_asincosf_sloc1_1_0,x+
   00FE 5E*05         [ 4]  236 	mov	*(_asincosf_sloc1_1_0 + 1),x+
   0100 5E*06         [ 4]  237 	mov	*(_asincosf_sloc1_1_0 + 2),x+
   0102 5E*07         [ 4]  238 	mov	*(_asincosf_sloc1_1_0 + 3),x+
                            239 ;../asincosf.c:73: y = sqrtf(g);
   0104 B6*07         [ 3]  240 	lda	*(_asincosf_sloc1_1_0 + 3)
   0106 87            [ 2]  241 	psha
   0107 B6*06         [ 3]  242 	lda	*(_asincosf_sloc1_1_0 + 2)
   0109 87            [ 2]  243 	psha
   010A B6*05         [ 3]  244 	lda	*(_asincosf_sloc1_1_0 + 1)
   010C 87            [ 2]  245 	psha
   010D B6*04         [ 3]  246 	lda	*_asincosf_sloc1_1_0
   010F 87            [ 2]  247 	psha
   0110 CDr00r00      [ 5]  248 	jsr	_sqrtf
   0113 B7*07         [ 3]  249 	sta	*(_asincosf_sloc1_1_0 + 3)
   0115 BF*06         [ 3]  250 	stx	*(_asincosf_sloc1_1_0 + 2)
   0117 4E*00*05      [ 5]  251 	mov	*___SDCC_hc08_ret2,*(_asincosf_sloc1_1_0 + 1)
   011A 4E*00*04      [ 5]  252 	mov	*___SDCC_hc08_ret3,*_asincosf_sloc1_1_0
   011D A7 04         [ 2]  253 	ais	#4
                            254 ;../asincosf.c:74: y = -(y + y);
   011F 45r00r00      [ 3]  255 	ldhx	#___fsadd_PARM_1
   0122 5E*04         [ 4]  256 	mov	*_asincosf_sloc1_1_0,x+
   0124 5E*05         [ 4]  257 	mov	*(_asincosf_sloc1_1_0 + 1),x+
   0126 5E*06         [ 4]  258 	mov	*(_asincosf_sloc1_1_0 + 2),x+
   0128 5E*07         [ 4]  259 	mov	*(_asincosf_sloc1_1_0 + 3),x+
   012A 45r00r00      [ 3]  260 	ldhx	#___fsadd_PARM_2
   012D 5E*04         [ 4]  261 	mov	*_asincosf_sloc1_1_0,x+
   012F 5E*05         [ 4]  262 	mov	*(_asincosf_sloc1_1_0 + 1),x+
   0131 5E*06         [ 4]  263 	mov	*(_asincosf_sloc1_1_0 + 2),x+
   0133 5E*07         [ 4]  264 	mov	*(_asincosf_sloc1_1_0 + 3),x+
   0135 CDr00r00      [ 5]  265 	jsr	___fsadd
   0138 B7*07         [ 3]  266 	sta	*(_asincosf_sloc1_1_0 + 3)
   013A BF*06         [ 3]  267 	stx	*(_asincosf_sloc1_1_0 + 2)
   013C 4E*00*05      [ 5]  268 	mov	*___SDCC_hc08_ret2,*(_asincosf_sloc1_1_0 + 1)
   013F 4E*00*04      [ 5]  269 	mov	*___SDCC_hc08_ret3,*_asincosf_sloc1_1_0
   0142 B6*07         [ 3]  270 	lda	*(_asincosf_sloc1_1_0 + 3)
   0144 C7r00r08      [ 4]  271 	sta	(_asincosf_y_1_24 + 3)
   0147 B6*06         [ 3]  272 	lda	*(_asincosf_sloc1_1_0 + 2)
   0149 C7r00r07      [ 4]  273 	sta	(_asincosf_y_1_24 + 2)
   014C B6*05         [ 3]  274 	lda	*(_asincosf_sloc1_1_0 + 1)
   014E C7r00r06      [ 4]  275 	sta	(_asincosf_y_1_24 + 1)
   0151 B6*04         [ 3]  276 	lda	*_asincosf_sloc1_1_0
   0153 A8 80         [ 2]  277 	eor	#0x80
   0155 C7r00r05      [ 4]  278 	sta	_asincosf_y_1_24
   0158 20 29         [ 3]  279 	bra	00105$
   015A                     280 00104$:
                            281 ;../asincosf.c:78: g = y * y;
   015A 45r00r00      [ 3]  282 	ldhx	#___fsmul_PARM_1
   015D 5E*00         [ 4]  283 	mov	*_asincosf_sloc0_1_0,x+
   015F 5E*01         [ 4]  284 	mov	*(_asincosf_sloc0_1_0 + 1),x+
   0161 5E*02         [ 4]  285 	mov	*(_asincosf_sloc0_1_0 + 2),x+
   0163 5E*03         [ 4]  286 	mov	*(_asincosf_sloc0_1_0 + 3),x+
   0165 45r00r00      [ 3]  287 	ldhx	#___fsmul_PARM_2
   0168 5E*00         [ 4]  288 	mov	*_asincosf_sloc0_1_0,x+
   016A 5E*01         [ 4]  289 	mov	*(_asincosf_sloc0_1_0 + 1),x+
   016C 5E*02         [ 4]  290 	mov	*(_asincosf_sloc0_1_0 + 2),x+
   016E 5E*03         [ 4]  291 	mov	*(_asincosf_sloc0_1_0 + 3),x+
   0170 CDr00r00      [ 5]  292 	jsr	___fsmul
   0173 C7r00r0C      [ 4]  293 	sta	(_asincosf_g_1_24 + 3)
   0176 CFr00r0B      [ 4]  294 	stx	(_asincosf_g_1_24 + 2)
   0179 B6*00         [ 3]  295 	lda	*___SDCC_hc08_ret2
   017B C7r00r0A      [ 4]  296 	sta	(_asincosf_g_1_24 + 1)
   017E B6*00         [ 3]  297 	lda	*___SDCC_hc08_ret3
   0180 C7r00r09      [ 4]  298 	sta	_asincosf_g_1_24
   0183                     299 00105$:
                            300 ;../asincosf.c:80: r = y + y * ((P(g) * g) / Q(g));
   0183 45r00r00      [ 3]  301 	ldhx	#___fsmul_PARM_1
   0186 A6 BF         [ 2]  302 	lda	#0xBF
   0188 F7            [ 2]  303 	sta	,x
   0189 A6 01         [ 2]  304 	lda	#0x01
   018B E7 01         [ 3]  305 	sta	1,x
   018D A6 20         [ 2]  306 	lda	#0x20
   018F E7 02         [ 3]  307 	sta	2,x
   0191 A6 65         [ 2]  308 	lda	#0x65
   0193 E7 03         [ 3]  309 	sta	3,x
   0195 45r00r00      [ 3]  310 	ldhx	#___fsmul_PARM_2
   0198 C6r00r09      [ 4]  311 	lda	_asincosf_g_1_24
   019B F7            [ 2]  312 	sta	,x
   019C C6r00r0A      [ 4]  313 	lda	(_asincosf_g_1_24 + 1)
   019F E7 01         [ 3]  314 	sta	1,x
   01A1 C6r00r0B      [ 4]  315 	lda	(_asincosf_g_1_24 + 2)
   01A4 E7 02         [ 3]  316 	sta	2,x
   01A6 C6r00r0C      [ 4]  317 	lda	(_asincosf_g_1_24 + 3)
   01A9 E7 03         [ 3]  318 	sta	3,x
   01AB CDr00r00      [ 5]  319 	jsr	___fsmul
   01AE C7r00r03      [ 4]  320 	sta	(___fsadd_PARM_1 + 3)
   01B1 CFr00r02      [ 4]  321 	stx	(___fsadd_PARM_1 + 2)
   01B4 B6*00         [ 3]  322 	lda	*___SDCC_hc08_ret2
   01B6 C7r00r01      [ 4]  323 	sta	(___fsadd_PARM_1 + 1)
   01B9 B6*00         [ 3]  324 	lda	*___SDCC_hc08_ret3
   01BB C7r00r00      [ 4]  325 	sta	___fsadd_PARM_1
   01BE 45r00r00      [ 3]  326 	ldhx	#___fsadd_PARM_2
   01C1 A6 3F         [ 2]  327 	lda	#0x3F
   01C3 F7            [ 2]  328 	sta	,x
   01C4 A6 6F         [ 2]  329 	lda	#0x6F
   01C6 E7 01         [ 3]  330 	sta	1,x
   01C8 A6 16         [ 2]  331 	lda	#0x16
   01CA E7 02         [ 3]  332 	sta	2,x
   01CC A6 6B         [ 2]  333 	lda	#0x6B
   01CE E7 03         [ 3]  334 	sta	3,x
   01D0 CDr00r00      [ 5]  335 	jsr	___fsadd
   01D3 C7r00r03      [ 4]  336 	sta	(___fsmul_PARM_1 + 3)
   01D6 CFr00r02      [ 4]  337 	stx	(___fsmul_PARM_1 + 2)
   01D9 B6*00         [ 3]  338 	lda	*___SDCC_hc08_ret2
   01DB C7r00r01      [ 4]  339 	sta	(___fsmul_PARM_1 + 1)
   01DE B6*00         [ 3]  340 	lda	*___SDCC_hc08_ret3
   01E0 C7r00r00      [ 4]  341 	sta	___fsmul_PARM_1
   01E3 45r00r00      [ 3]  342 	ldhx	#___fsmul_PARM_2
   01E6 C6r00r09      [ 4]  343 	lda	_asincosf_g_1_24
   01E9 F7            [ 2]  344 	sta	,x
   01EA C6r00r0A      [ 4]  345 	lda	(_asincosf_g_1_24 + 1)
   01ED E7 01         [ 3]  346 	sta	1,x
   01EF C6r00r0B      [ 4]  347 	lda	(_asincosf_g_1_24 + 2)
   01F2 E7 02         [ 3]  348 	sta	2,x
   01F4 C6r00r0C      [ 4]  349 	lda	(_asincosf_g_1_24 + 3)
   01F7 E7 03         [ 3]  350 	sta	3,x
   01F9 CDr00r00      [ 5]  351 	jsr	___fsmul
   01FC B7*07         [ 3]  352 	sta	*(_asincosf_sloc1_1_0 + 3)
   01FE BF*06         [ 3]  353 	stx	*(_asincosf_sloc1_1_0 + 2)
   0200 4E*00*05      [ 5]  354 	mov	*___SDCC_hc08_ret2,*(_asincosf_sloc1_1_0 + 1)
   0203 4E*00*04      [ 5]  355 	mov	*___SDCC_hc08_ret3,*_asincosf_sloc1_1_0
   0206 45r00r09      [ 3]  356 	ldhx	#_asincosf_g_1_24
   0209 7E*00         [ 4]  357 	mov	,x+,*_asincosf_sloc0_1_0
   020B 7E*01         [ 4]  358 	mov	,x+,*(_asincosf_sloc0_1_0 + 1)
   020D 7E*02         [ 4]  359 	mov	,x+,*(_asincosf_sloc0_1_0 + 2)
   020F 7E*03         [ 4]  360 	mov	,x+,*(_asincosf_sloc0_1_0 + 3)
   0211 45r00r00      [ 3]  361 	ldhx	#___fsadd_PARM_1
   0214 5E*00         [ 4]  362 	mov	*_asincosf_sloc0_1_0,x+
   0216 5E*01         [ 4]  363 	mov	*(_asincosf_sloc0_1_0 + 1),x+
   0218 5E*02         [ 4]  364 	mov	*(_asincosf_sloc0_1_0 + 2),x+
   021A 5E*03         [ 4]  365 	mov	*(_asincosf_sloc0_1_0 + 3),x+
   021C 45r00r00      [ 3]  366 	ldhx	#___fsadd_PARM_2
   021F A6 C0         [ 2]  367 	lda	#0xC0
   0221 F7            [ 2]  368 	sta	,x
   0222 A6 B1         [ 2]  369 	lda	#0xB1
   0224 E7 01         [ 3]  370 	sta	1,x
   0226 A6 8D         [ 2]  371 	lda	#0x8D
   0228 E7 02         [ 3]  372 	sta	2,x
   022A A6 0B         [ 2]  373 	lda	#0x0B
   022C E7 03         [ 3]  374 	sta	3,x
   022E CDr00r00      [ 5]  375 	jsr	___fsadd
   0231 C7r00r03      [ 4]  376 	sta	(___fsmul_PARM_1 + 3)
   0234 CFr00r02      [ 4]  377 	stx	(___fsmul_PARM_1 + 2)
   0237 B6*00         [ 3]  378 	lda	*___SDCC_hc08_ret2
   0239 C7r00r01      [ 4]  379 	sta	(___fsmul_PARM_1 + 1)
   023C B6*00         [ 3]  380 	lda	*___SDCC_hc08_ret3
   023E C7r00r00      [ 4]  381 	sta	___fsmul_PARM_1
   0241 45r00r00      [ 3]  382 	ldhx	#___fsmul_PARM_2
   0244 5E*00         [ 4]  383 	mov	*_asincosf_sloc0_1_0,x+
   0246 5E*01         [ 4]  384 	mov	*(_asincosf_sloc0_1_0 + 1),x+
   0248 5E*02         [ 4]  385 	mov	*(_asincosf_sloc0_1_0 + 2),x+
   024A 5E*03         [ 4]  386 	mov	*(_asincosf_sloc0_1_0 + 3),x+
   024C CDr00r00      [ 5]  387 	jsr	___fsmul
   024F C7r00r03      [ 4]  388 	sta	(___fsadd_PARM_1 + 3)
   0252 CFr00r02      [ 4]  389 	stx	(___fsadd_PARM_1 + 2)
   0255 B6*00         [ 3]  390 	lda	*___SDCC_hc08_ret2
   0257 C7r00r01      [ 4]  391 	sta	(___fsadd_PARM_1 + 1)
   025A B6*00         [ 3]  392 	lda	*___SDCC_hc08_ret3
   025C C7r00r00      [ 4]  393 	sta	___fsadd_PARM_1
   025F 45r00r00      [ 3]  394 	ldhx	#___fsadd_PARM_2
   0262 A6 40         [ 2]  395 	lda	#0x40
   0264 F7            [ 2]  396 	sta	,x
   0265 A6 B3         [ 2]  397 	lda	#0xB3
   0267 E7 01         [ 3]  398 	sta	1,x
   0269 A6 50         [ 2]  399 	lda	#0x50
   026B E7 02         [ 3]  400 	sta	2,x
   026D A6 F0         [ 2]  401 	lda	#0xF0
   026F E7 03         [ 3]  402 	sta	3,x
   0271 CDr00r00      [ 5]  403 	jsr	___fsadd
   0274 C7r00r03      [ 4]  404 	sta	(___fsdiv_PARM_2 + 3)
   0277 CFr00r02      [ 4]  405 	stx	(___fsdiv_PARM_2 + 2)
   027A B6*00         [ 3]  406 	lda	*___SDCC_hc08_ret2
   027C C7r00r01      [ 4]  407 	sta	(___fsdiv_PARM_2 + 1)
   027F B6*00         [ 3]  408 	lda	*___SDCC_hc08_ret3
   0281 C7r00r00      [ 4]  409 	sta	___fsdiv_PARM_2
   0284 45r00r00      [ 3]  410 	ldhx	#___fsdiv_PARM_1
   0287 5E*04         [ 4]  411 	mov	*_asincosf_sloc1_1_0,x+
   0289 5E*05         [ 4]  412 	mov	*(_asincosf_sloc1_1_0 + 1),x+
   028B 5E*06         [ 4]  413 	mov	*(_asincosf_sloc1_1_0 + 2),x+
   028D 5E*07         [ 4]  414 	mov	*(_asincosf_sloc1_1_0 + 3),x+
   028F CDr00r00      [ 5]  415 	jsr	___fsdiv
   0292 C7r00r03      [ 4]  416 	sta	(___fsmul_PARM_2 + 3)
   0295 CFr00r02      [ 4]  417 	stx	(___fsmul_PARM_2 + 2)
   0298 B6*00         [ 3]  418 	lda	*___SDCC_hc08_ret2
   029A C7r00r01      [ 4]  419 	sta	(___fsmul_PARM_2 + 1)
   029D B6*00         [ 3]  420 	lda	*___SDCC_hc08_ret3
   029F C7r00r00      [ 4]  421 	sta	___fsmul_PARM_2
   02A2 45r00r00      [ 3]  422 	ldhx	#___fsmul_PARM_1
   02A5 C6r00r05      [ 4]  423 	lda	_asincosf_y_1_24
   02A8 F7            [ 2]  424 	sta	,x
   02A9 C6r00r06      [ 4]  425 	lda	(_asincosf_y_1_24 + 1)
   02AC E7 01         [ 3]  426 	sta	1,x
   02AE C6r00r07      [ 4]  427 	lda	(_asincosf_y_1_24 + 2)
   02B1 E7 02         [ 3]  428 	sta	2,x
   02B3 C6r00r08      [ 4]  429 	lda	(_asincosf_y_1_24 + 3)
   02B6 E7 03         [ 3]  430 	sta	3,x
   02B8 CDr00r00      [ 5]  431 	jsr	___fsmul
   02BB C7r00r03      [ 4]  432 	sta	(___fsadd_PARM_2 + 3)
   02BE CFr00r02      [ 4]  433 	stx	(___fsadd_PARM_2 + 2)
   02C1 B6*00         [ 3]  434 	lda	*___SDCC_hc08_ret2
   02C3 C7r00r01      [ 4]  435 	sta	(___fsadd_PARM_2 + 1)
   02C6 B6*00         [ 3]  436 	lda	*___SDCC_hc08_ret3
   02C8 C7r00r00      [ 4]  437 	sta	___fsadd_PARM_2
   02CB 45r00r00      [ 3]  438 	ldhx	#___fsadd_PARM_1
   02CE C6r00r05      [ 4]  439 	lda	_asincosf_y_1_24
   02D1 F7            [ 2]  440 	sta	,x
   02D2 C6r00r06      [ 4]  441 	lda	(_asincosf_y_1_24 + 1)
   02D5 E7 01         [ 3]  442 	sta	1,x
   02D7 C6r00r07      [ 4]  443 	lda	(_asincosf_y_1_24 + 2)
   02DA E7 02         [ 3]  444 	sta	2,x
   02DC C6r00r08      [ 4]  445 	lda	(_asincosf_y_1_24 + 3)
   02DF E7 03         [ 3]  446 	sta	3,x
   02E1 CDr00r00      [ 5]  447 	jsr	___fsadd
   02E4 C7r00r10      [ 4]  448 	sta	(_asincosf_r_1_24 + 3)
   02E7 CFr00r0F      [ 4]  449 	stx	(_asincosf_r_1_24 + 2)
   02EA B6*00         [ 3]  450 	lda	*___SDCC_hc08_ret2
   02EC C7r00r0E      [ 4]  451 	sta	(_asincosf_r_1_24 + 1)
   02EF B6*00         [ 3]  452 	lda	*___SDCC_hc08_ret3
   02F1 C7r00r0D      [ 4]  453 	sta	_asincosf_r_1_24
   02F4                     454 00108$:
                            455 ;../asincosf.c:82: i = quartPI;
   02F4 CEr00r11      [ 4]  456 	ldx	_asincosf_quartPI_1_24
                            457 ;../asincosf.c:85: if (x < 0.0)
   02F7 C6r00r00      [ 4]  458 	lda	_asincosf_PARM_1
   02FA C7r00r00      [ 4]  459 	sta	___fslt_PARM_1
   02FD C6r00r01      [ 4]  460 	lda	(_asincosf_PARM_1 + 1)
   0300 C7r00r01      [ 4]  461 	sta	(___fslt_PARM_1 + 1)
   0303 C6r00r02      [ 4]  462 	lda	(_asincosf_PARM_1 + 2)
   0306 C7r00r02      [ 4]  463 	sta	(___fslt_PARM_1 + 2)
   0309 C6r00r03      [ 4]  464 	lda	(_asincosf_PARM_1 + 3)
   030C C7r00r03      [ 4]  465 	sta	(___fslt_PARM_1 + 3)
   030F 4F            [ 1]  466 	clra
   0310 C7r00r00      [ 4]  467 	sta	___fslt_PARM_2
   0313 C7r00r01      [ 4]  468 	sta	(___fslt_PARM_2 + 1)
   0316 C7r00r02      [ 4]  469 	sta	(___fslt_PARM_2 + 2)
   0319 C7r00r03      [ 4]  470 	sta	(___fslt_PARM_2 + 3)
                            471 ;../asincosf.c:86: r = (b[i] + r) + b[i];
   031C 89            [ 2]  472 	pshx
   031D CDr00r00      [ 5]  473 	jsr	___fslt
   0320 B7*04         [ 3]  474 	sta	*_asincosf_sloc1_1_0
   0322 88            [ 2]  475 	pulx
   0323 9F            [ 1]  476 	txa
   0324 AE 04         [ 2]  477 	ldx	#0x04
   0326 42            [ 5]  478 	mul
   0327 89            [ 2]  479 	pshx
   0328 8A            [ 2]  480 	pulh
   0329 97            [ 1]  481 	tax
                            482 ;../asincosf.c:83: if (isacos)
   032A C6r00r04      [ 4]  483 	lda	_asincosf_PARM_2
   032D 26 03         [ 3]  484 	bne	00146$
   032F CCr04r07      [ 3]  485 	jmp	00115$
   0332                     486 00146$:
                            487 ;../asincosf.c:85: if (x < 0.0)
   0332 3D*04         [ 3]  488 	tst	*_asincosf_sloc1_1_0
   0334 27 69         [ 3]  489 	beq	00110$
                            490 ;../asincosf.c:86: r = (b[i] + r) + b[i];
   0336 D6r00r08      [ 4]  491 	lda	(_asincosf_b_1_24),x
   0339 B7*00         [ 3]  492 	sta	*_asincosf_sloc0_1_0
   033B D6r00r09      [ 4]  493 	lda	(_asincosf_b_1_24+1),x
   033E B7*01         [ 3]  494 	sta	*(_asincosf_sloc0_1_0 + 1)
   0340 D6r00r0A      [ 4]  495 	lda	(_asincosf_b_1_24+2),x
   0343 B7*02         [ 3]  496 	sta	*(_asincosf_sloc0_1_0 + 2)
   0345 D6r00r0B      [ 4]  497 	lda	(_asincosf_b_1_24+3),x
   0348 B7*03         [ 3]  498 	sta	*(_asincosf_sloc0_1_0 + 3)
   034A 45r00r00      [ 3]  499 	ldhx	#___fsadd_PARM_1
   034D 5E*00         [ 4]  500 	mov	*_asincosf_sloc0_1_0,x+
   034F 5E*01         [ 4]  501 	mov	*(_asincosf_sloc0_1_0 + 1),x+
   0351 5E*02         [ 4]  502 	mov	*(_asincosf_sloc0_1_0 + 2),x+
   0353 5E*03         [ 4]  503 	mov	*(_asincosf_sloc0_1_0 + 3),x+
   0355 45r00r00      [ 3]  504 	ldhx	#___fsadd_PARM_2
   0358 C6r00r0D      [ 4]  505 	lda	_asincosf_r_1_24
   035B F7            [ 2]  506 	sta	,x
   035C C6r00r0E      [ 4]  507 	lda	(_asincosf_r_1_24 + 1)
   035F E7 01         [ 3]  508 	sta	1,x
   0361 C6r00r0F      [ 4]  509 	lda	(_asincosf_r_1_24 + 2)
   0364 E7 02         [ 3]  510 	sta	2,x
   0366 C6r00r10      [ 4]  511 	lda	(_asincosf_r_1_24 + 3)
   0369 E7 03         [ 3]  512 	sta	3,x
   036B CDr00r00      [ 5]  513 	jsr	___fsadd
   036E C7r00r03      [ 4]  514 	sta	(___fsadd_PARM_1 + 3)
   0371 CFr00r02      [ 4]  515 	stx	(___fsadd_PARM_1 + 2)
   0374 B6*00         [ 3]  516 	lda	*___SDCC_hc08_ret2
   0376 C7r00r01      [ 4]  517 	sta	(___fsadd_PARM_1 + 1)
   0379 B6*00         [ 3]  518 	lda	*___SDCC_hc08_ret3
   037B C7r00r00      [ 4]  519 	sta	___fsadd_PARM_1
   037E 45r00r00      [ 3]  520 	ldhx	#___fsadd_PARM_2
   0381 5E*00         [ 4]  521 	mov	*_asincosf_sloc0_1_0,x+
   0383 5E*01         [ 4]  522 	mov	*(_asincosf_sloc0_1_0 + 1),x+
   0385 5E*02         [ 4]  523 	mov	*(_asincosf_sloc0_1_0 + 2),x+
   0387 5E*03         [ 4]  524 	mov	*(_asincosf_sloc0_1_0 + 3),x+
   0389 CDr00r00      [ 5]  525 	jsr	___fsadd
   038C C7r00r10      [ 4]  526 	sta	(_asincosf_r_1_24 + 3)
   038F CFr00r0F      [ 4]  527 	stx	(_asincosf_r_1_24 + 2)
   0392 B6*00         [ 3]  528 	lda	*___SDCC_hc08_ret2
   0394 C7r00r0E      [ 4]  529 	sta	(_asincosf_r_1_24 + 1)
   0397 B6*00         [ 3]  530 	lda	*___SDCC_hc08_ret3
   0399 C7r00r0D      [ 4]  531 	sta	_asincosf_r_1_24
   039C CCr04r79      [ 3]  532 	jmp	00116$
   039F                     533 00110$:
                            534 ;../asincosf.c:88: r = (a[i] - r) + a[i];
   039F D6r00r00      [ 4]  535 	lda	(_asincosf_a_1_24),x
   03A2 B7*00         [ 3]  536 	sta	*_asincosf_sloc0_1_0
   03A4 D6r00r01      [ 4]  537 	lda	(_asincosf_a_1_24+1),x
   03A7 B7*01         [ 3]  538 	sta	*(_asincosf_sloc0_1_0 + 1)
   03A9 D6r00r02      [ 4]  539 	lda	(_asincosf_a_1_24+2),x
   03AC B7*02         [ 3]  540 	sta	*(_asincosf_sloc0_1_0 + 2)
   03AE D6r00r03      [ 4]  541 	lda	(_asincosf_a_1_24+3),x
   03B1 B7*03         [ 3]  542 	sta	*(_asincosf_sloc0_1_0 + 3)
   03B3 45r00r00      [ 3]  543 	ldhx	#___fssub_PARM_1
   03B6 5E*00         [ 4]  544 	mov	*_asincosf_sloc0_1_0,x+
   03B8 5E*01         [ 4]  545 	mov	*(_asincosf_sloc0_1_0 + 1),x+
   03BA 5E*02         [ 4]  546 	mov	*(_asincosf_sloc0_1_0 + 2),x+
   03BC 5E*03         [ 4]  547 	mov	*(_asincosf_sloc0_1_0 + 3),x+
   03BE 45r00r00      [ 3]  548 	ldhx	#___fssub_PARM_2
   03C1 C6r00r0D      [ 4]  549 	lda	_asincosf_r_1_24
   03C4 F7            [ 2]  550 	sta	,x
   03C5 C6r00r0E      [ 4]  551 	lda	(_asincosf_r_1_24 + 1)
   03C8 E7 01         [ 3]  552 	sta	1,x
   03CA C6r00r0F      [ 4]  553 	lda	(_asincosf_r_1_24 + 2)
   03CD E7 02         [ 3]  554 	sta	2,x
   03CF C6r00r10      [ 4]  555 	lda	(_asincosf_r_1_24 + 3)
   03D2 E7 03         [ 3]  556 	sta	3,x
   03D4 CDr00r00      [ 5]  557 	jsr	___fssub
   03D7 C7r00r03      [ 4]  558 	sta	(___fsadd_PARM_1 + 3)
   03DA CFr00r02      [ 4]  559 	stx	(___fsadd_PARM_1 + 2)
   03DD B6*00         [ 3]  560 	lda	*___SDCC_hc08_ret2
   03DF C7r00r01      [ 4]  561 	sta	(___fsadd_PARM_1 + 1)
   03E2 B6*00         [ 3]  562 	lda	*___SDCC_hc08_ret3
   03E4 C7r00r00      [ 4]  563 	sta	___fsadd_PARM_1
   03E7 45r00r00      [ 3]  564 	ldhx	#___fsadd_PARM_2
   03EA 5E*00         [ 4]  565 	mov	*_asincosf_sloc0_1_0,x+
   03EC 5E*01         [ 4]  566 	mov	*(_asincosf_sloc0_1_0 + 1),x+
   03EE 5E*02         [ 4]  567 	mov	*(_asincosf_sloc0_1_0 + 2),x+
   03F0 5E*03         [ 4]  568 	mov	*(_asincosf_sloc0_1_0 + 3),x+
   03F2 CDr00r00      [ 5]  569 	jsr	___fsadd
   03F5 C7r00r10      [ 4]  570 	sta	(_asincosf_r_1_24 + 3)
   03F8 CFr00r0F      [ 4]  571 	stx	(_asincosf_r_1_24 + 2)
   03FB B6*00         [ 3]  572 	lda	*___SDCC_hc08_ret2
   03FD C7r00r0E      [ 4]  573 	sta	(_asincosf_r_1_24 + 1)
   0400 B6*00         [ 3]  574 	lda	*___SDCC_hc08_ret3
   0402 C7r00r0D      [ 4]  575 	sta	_asincosf_r_1_24
   0405 20 72         [ 3]  576 	bra	00116$
   0407                     577 00115$:
                            578 ;../asincosf.c:92: r = (a[i] + r) + a[i];
   0407 D6r00r00      [ 4]  579 	lda	(_asincosf_a_1_24),x
   040A B7*00         [ 3]  580 	sta	*_asincosf_sloc0_1_0
   040C D6r00r01      [ 4]  581 	lda	(_asincosf_a_1_24+1),x
   040F B7*01         [ 3]  582 	sta	*(_asincosf_sloc0_1_0 + 1)
   0411 D6r00r02      [ 4]  583 	lda	(_asincosf_a_1_24+2),x
   0414 B7*02         [ 3]  584 	sta	*(_asincosf_sloc0_1_0 + 2)
   0416 D6r00r03      [ 4]  585 	lda	(_asincosf_a_1_24+3),x
   0419 B7*03         [ 3]  586 	sta	*(_asincosf_sloc0_1_0 + 3)
   041B 45r00r00      [ 3]  587 	ldhx	#___fsadd_PARM_1
   041E 5E*00         [ 4]  588 	mov	*_asincosf_sloc0_1_0,x+
   0420 5E*01         [ 4]  589 	mov	*(_asincosf_sloc0_1_0 + 1),x+
   0422 5E*02         [ 4]  590 	mov	*(_asincosf_sloc0_1_0 + 2),x+
   0424 5E*03         [ 4]  591 	mov	*(_asincosf_sloc0_1_0 + 3),x+
   0426 45r00r00      [ 3]  592 	ldhx	#___fsadd_PARM_2
   0429 C6r00r0D      [ 4]  593 	lda	_asincosf_r_1_24
   042C F7            [ 2]  594 	sta	,x
   042D C6r00r0E      [ 4]  595 	lda	(_asincosf_r_1_24 + 1)
   0430 E7 01         [ 3]  596 	sta	1,x
   0432 C6r00r0F      [ 4]  597 	lda	(_asincosf_r_1_24 + 2)
   0435 E7 02         [ 3]  598 	sta	2,x
   0437 C6r00r10      [ 4]  599 	lda	(_asincosf_r_1_24 + 3)
   043A E7 03         [ 3]  600 	sta	3,x
   043C CDr00r00      [ 5]  601 	jsr	___fsadd
   043F C7r00r03      [ 4]  602 	sta	(___fsadd_PARM_1 + 3)
   0442 CFr00r02      [ 4]  603 	stx	(___fsadd_PARM_1 + 2)
   0445 B6*00         [ 3]  604 	lda	*___SDCC_hc08_ret2
   0447 C7r00r01      [ 4]  605 	sta	(___fsadd_PARM_1 + 1)
   044A B6*00         [ 3]  606 	lda	*___SDCC_hc08_ret3
   044C C7r00r00      [ 4]  607 	sta	___fsadd_PARM_1
   044F 45r00r00      [ 3]  608 	ldhx	#___fsadd_PARM_2
   0452 5E*00         [ 4]  609 	mov	*_asincosf_sloc0_1_0,x+
   0454 5E*01         [ 4]  610 	mov	*(_asincosf_sloc0_1_0 + 1),x+
   0456 5E*02         [ 4]  611 	mov	*(_asincosf_sloc0_1_0 + 2),x+
   0458 5E*03         [ 4]  612 	mov	*(_asincosf_sloc0_1_0 + 3),x+
   045A CDr00r00      [ 5]  613 	jsr	___fsadd
   045D C7r00r10      [ 4]  614 	sta	(_asincosf_r_1_24 + 3)
   0460 CFr00r0F      [ 4]  615 	stx	(_asincosf_r_1_24 + 2)
   0463 B6*00         [ 3]  616 	lda	*___SDCC_hc08_ret2
   0465 C7r00r0E      [ 4]  617 	sta	(_asincosf_r_1_24 + 1)
   0468 B6*00         [ 3]  618 	lda	*___SDCC_hc08_ret3
   046A C7r00r0D      [ 4]  619 	sta	_asincosf_r_1_24
                            620 ;../asincosf.c:93: if (x < 0.0)
   046D 3D*04         [ 3]  621 	tst	*_asincosf_sloc1_1_0
   046F 27 08         [ 3]  622 	beq	00116$
                            623 ;../asincosf.c:94: r = -r;
   0471 C6r00r0D      [ 4]  624 	lda	_asincosf_r_1_24
   0474 A8 80         [ 2]  625 	eor	#0x80
   0476 C7r00r0D      [ 4]  626 	sta	_asincosf_r_1_24
   0479                     627 00116$:
                            628 ;../asincosf.c:96: return r;
   0479 C6r00r0D      [ 4]  629 	lda	_asincosf_r_1_24
   047C B7*00         [ 3]  630 	sta	*___SDCC_hc08_ret3
   047E C6r00r0E      [ 4]  631 	lda	(_asincosf_r_1_24 + 1)
   0481 B7*00         [ 3]  632 	sta	*___SDCC_hc08_ret2
   0483 CEr00r0F      [ 4]  633 	ldx	(_asincosf_r_1_24 + 2)
   0486 C6r00r10      [ 4]  634 	lda	(_asincosf_r_1_24 + 3)
   0489 81            [ 4]  635 	rts
                            636 	.area CSEG    (CODE)
                            637 	.area CONST   (CODE)
   0000                     638 _asincosf_a_1_24:
   0000 00 00 00 00         639 	.byte #0x00,#0x00,#0x00,#0x00	;  0.000000e+00
   0004 3F 49 0F DB         640 	.byte #0x3F,#0x49,#0x0F,#0xDB	;  7.853982e-01
   0008                     641 _asincosf_b_1_24:
   0008 3F C9 0F DB         642 	.byte #0x3F,#0xC9,#0x0F,#0xDB	;  1.570796e+00
   000C 3F 49 0F DB         643 	.byte #0x3F,#0x49,#0x0F,#0xDB	;  7.853982e-01
                            644 	.area XINIT   (CODE)
                            645 	.area CABS    (ABS,CODE)
