                              1 ;--------------------------------------------------------
                              2 ; File Created by SDCC : free open source ANSI-C Compiler
                              3 ; Version 3.5.0 #9253 (Apr  4 2022) (Linux)
                              4 ; This file was generated Mon Apr  4 14:10:32 2022
                              5 ;--------------------------------------------------------
                              6 	.module atanf
                              7 	.optsdcc -mhc08
                              8 	
                              9 	.area HOME    (CODE)
                             10 	.area GSINIT0 (CODE)
                             11 	.area GSINIT  (CODE)
                             12 	.area GSFINAL (CODE)
                             13 	.area CSEG    (CODE)
                             14 	.area XINIT   (CODE)
                             15 	.area CONST   (CODE)
                             16 	.area DSEG    (PAG)
                             17 	.area OSEG    (PAG, OVR)
                             18 	.area XSEG
                             19 	.area XISEG
                             20 ;--------------------------------------------------------
                             21 ; Public variables in this module
                             22 ;--------------------------------------------------------
                             23 	.globl _fabsf
                             24 	.globl _atanf
                             25 ;--------------------------------------------------------
                             26 ; ram data
                             27 ;--------------------------------------------------------
                             28 	.area DSEG    (PAG)
                             29 ;--------------------------------------------------------
                             30 ; overlayable items in ram 
                             31 ;--------------------------------------------------------
                             32 ;--------------------------------------------------------
                             33 ; absolute ram data
                             34 ;--------------------------------------------------------
                             35 	.area IABS    (ABS)
                             36 	.area IABS    (ABS)
                             37 ;--------------------------------------------------------
                             38 ; absolute external ram data
                             39 ;--------------------------------------------------------
                             40 	.area XABS    (ABS)
                             41 ;--------------------------------------------------------
                             42 ; external initialized ram data
                             43 ;--------------------------------------------------------
                             44 	.area XISEG
                             45 ;--------------------------------------------------------
                             46 ; extended address mode data
                             47 ;--------------------------------------------------------
                             48 	.area XSEG
                             49 ;--------------------------------------------------------
                             50 ; global & static initialisations
                             51 ;--------------------------------------------------------
                             52 	.area HOME    (CODE)
                             53 	.area GSINIT  (CODE)
                             54 	.area GSFINAL (CODE)
                             55 	.area GSINIT  (CODE)
                             56 ;--------------------------------------------------------
                             57 ; Home
                             58 ;--------------------------------------------------------
                             59 	.area HOME    (CODE)
                             60 	.area HOME    (CODE)
                             61 ;--------------------------------------------------------
                             62 ; code
                             63 ;--------------------------------------------------------
                             64 	.area CSEG    (CODE)
                             65 ;------------------------------------------------------------
                             66 ;Allocation info for local variables in function 'atanf'
                             67 ;------------------------------------------------------------
                             68 ;x                         Allocated to stack - sp -14
                             69 ;f                         Allocated to stack - sp -28
                             70 ;r                         Allocated to stack - sp -32
                             71 ;g                         Allocated to stack - sp -28
                             72 ;n                         Allocated to registers x h 
                             73 ;sloc0                     Allocated to stack - sp -20
                             74 ;sloc1                     Allocated to stack - sp -24
                             75 ;------------------------------------------------------------
                             76 ;../atanf.c:55: float atanf(float x) _FLOAT_FUNC_REENTRANT
                             77 ;	-----------------------------------------
                             78 ;	 function atanf
                             79 ;	-----------------------------------------
                             80 ;	Register assignment is optimal.
                             81 ;	Stack space usage: 16 bytes.
   0000                      82 _atanf:
   0000 A7 F0         [ 2]   83 	ais	#-16
                             84 ;../atanf.c:58: int n=0;
   0002 8C            [ 1]   85 	clrh
   0003 5F            [ 1]   86 	clrx
                             87 ;../atanf.c:61: f=fabsf(x);
   0004 89            [ 2]   88 	pshx
   0005 8B            [ 2]   89 	pshh
   0006 9E E6 18      [ 4]   90 	lda	24,s
   0009 87            [ 2]   91 	psha
   000A 9E E6 18      [ 4]   92 	lda	24,s
   000D 87            [ 2]   93 	psha
   000E 9E E6 18      [ 4]   94 	lda	24,s
   0011 87            [ 2]   95 	psha
   0012 9E E6 18      [ 4]   96 	lda	24,s
   0015 87            [ 2]   97 	psha
   0016 CDr00r00      [ 5]   98 	jsr	_fabsf
   0019 9E E7 16      [ 4]   99 	sta	22,s
   001C 9E EF 15      [ 4]  100 	stx	21,s
   001F B6*00         [ 3]  101 	lda	*___SDCC_hc08_ret2
   0021 9E E7 14      [ 4]  102 	sta	20,s
   0024 B6*00         [ 3]  103 	lda	*___SDCC_hc08_ret3
   0026 9E E7 13      [ 4]  104 	sta	19,s
   0029 A7 04         [ 2]  105 	ais	#4
   002B 8A            [ 2]  106 	pulh
   002C 88            [ 2]  107 	pulx
   002D 9E E6 0D      [ 4]  108 	lda	13,s
   0030 9E E7 05      [ 4]  109 	sta	5,s
   0033 9E E6 0E      [ 4]  110 	lda	14,s
   0036 9E E7 06      [ 4]  111 	sta	6,s
   0039 9E E6 0F      [ 4]  112 	lda	15,s
   003C 9E E7 07      [ 4]  113 	sta	7,s
   003F 9E E6 10      [ 4]  114 	lda	16,s
   0042 9E E7 08      [ 4]  115 	sta	8,s
                            116 ;../atanf.c:62: if(f>1.0)
   0045 9E E6 0D      [ 4]  117 	lda	13,s
   0048 C7r00r00      [ 4]  118 	sta	___fsgt_PARM_1
   004B 9E E6 0E      [ 4]  119 	lda	14,s
   004E C7r00r01      [ 4]  120 	sta	(___fsgt_PARM_1 + 1)
   0051 9E E6 0F      [ 4]  121 	lda	15,s
   0054 C7r00r02      [ 4]  122 	sta	(___fsgt_PARM_1 + 2)
   0057 9E E6 10      [ 4]  123 	lda	16,s
   005A C7r00r03      [ 4]  124 	sta	(___fsgt_PARM_1 + 3)
   005D A6 3F         [ 2]  125 	lda	#0x3F
   005F C7r00r00      [ 4]  126 	sta	___fsgt_PARM_2
   0062 A6 80         [ 2]  127 	lda	#0x80
   0064 C7r00r01      [ 4]  128 	sta	(___fsgt_PARM_2 + 1)
   0067 4F            [ 1]  129 	clra
   0068 C7r00r02      [ 4]  130 	sta	(___fsgt_PARM_2 + 2)
   006B C7r00r03      [ 4]  131 	sta	(___fsgt_PARM_2 + 3)
   006E 89            [ 2]  132 	pshx
   006F 8B            [ 2]  133 	pshh
   0070 CDr00r00      [ 5]  134 	jsr	___fsgt
   0073 8A            [ 2]  135 	pulh
   0074 88            [ 2]  136 	pulx
   0075 4D            [ 1]  137 	tsta
   0076 27 3C         [ 3]  138 	beq	00102$
                            139 ;../atanf.c:64: f=1.0/f;
   0078 45r00r00      [ 3]  140 	ldhx	#___fsdiv_PARM_1
   007B A6 3F         [ 2]  141 	lda	#0x3F
   007D F7            [ 2]  142 	sta	,x
   007E A6 80         [ 2]  143 	lda	#0x80
   0080 E7 01         [ 3]  144 	sta	1,x
   0082 4F            [ 1]  145 	clra
   0083 E7 02         [ 3]  146 	sta	2,x
   0085 E7 03         [ 3]  147 	sta	3,x
   0087 95            [ 2]  148 	tsx
   0088 45r00r00      [ 3]  149 	ldhx	#___fsdiv_PARM_2
   008B 9E E6 0D      [ 4]  150 	lda	13,s
   008E F7            [ 2]  151 	sta	,x
   008F 9E E6 0E      [ 4]  152 	lda	14,s
   0092 E7 01         [ 3]  153 	sta	1,x
   0094 9E E6 0F      [ 4]  154 	lda	15,s
   0097 E7 02         [ 3]  155 	sta	2,x
   0099 9E E6 10      [ 4]  156 	lda	16,s
   009C E7 03         [ 3]  157 	sta	3,x
   009E CDr00r00      [ 5]  158 	jsr	___fsdiv
   00A1 9E E7 08      [ 4]  159 	sta	8,s
   00A4 9E EF 07      [ 4]  160 	stx	7,s
   00A7 B6*00         [ 3]  161 	lda	*___SDCC_hc08_ret2
   00A9 9E E7 06      [ 4]  162 	sta	6,s
   00AC B6*00         [ 3]  163 	lda	*___SDCC_hc08_ret3
   00AE 9E E7 05      [ 4]  164 	sta	5,s
                            165 ;../atanf.c:65: n=2;
   00B1 45 00 02      [ 3]  166 	ldhx	#0x0002
   00B4                     167 00102$:
                            168 ;../atanf.c:67: if(f>K1)
   00B4 9E E6 05      [ 4]  169 	lda	5,s
   00B7 C7r00r00      [ 4]  170 	sta	___fsgt_PARM_1
   00BA 9E E6 06      [ 4]  171 	lda	6,s
   00BD C7r00r01      [ 4]  172 	sta	(___fsgt_PARM_1 + 1)
   00C0 9E E6 07      [ 4]  173 	lda	7,s
   00C3 C7r00r02      [ 4]  174 	sta	(___fsgt_PARM_1 + 2)
   00C6 9E E6 08      [ 4]  175 	lda	8,s
   00C9 C7r00r03      [ 4]  176 	sta	(___fsgt_PARM_1 + 3)
   00CC A6 3E         [ 2]  177 	lda	#0x3E
   00CE C7r00r00      [ 4]  178 	sta	___fsgt_PARM_2
   00D1 A6 89         [ 2]  179 	lda	#0x89
   00D3 C7r00r01      [ 4]  180 	sta	(___fsgt_PARM_2 + 1)
   00D6 A6 30         [ 2]  181 	lda	#0x30
   00D8 C7r00r02      [ 4]  182 	sta	(___fsgt_PARM_2 + 2)
   00DB A6 A3         [ 2]  183 	lda	#0xA3
   00DD C7r00r03      [ 4]  184 	sta	(___fsgt_PARM_2 + 3)
   00E0 89            [ 2]  185 	pshx
   00E1 8B            [ 2]  186 	pshh
   00E2 CDr00r00      [ 5]  187 	jsr	___fsgt
   00E5 8A            [ 2]  188 	pulh
   00E6 88            [ 2]  189 	pulx
   00E7 4D            [ 1]  190 	tsta
   00E8 26 03         [ 3]  191 	bne	00135$
   00EA CCr01rFB      [ 3]  192 	jmp	00104$
   00ED                     193 00135$:
                            194 ;../atanf.c:69: f=((K2*f-1.0)+f)/(K3+f);
   00ED A6 3F         [ 2]  195 	lda	#0x3F
   00EF C7r00r00      [ 4]  196 	sta	___fsmul_PARM_1
   00F2 A6 3B         [ 2]  197 	lda	#0x3B
   00F4 C7r00r01      [ 4]  198 	sta	(___fsmul_PARM_1 + 1)
   00F7 A6 67         [ 2]  199 	lda	#0x67
   00F9 C7r00r02      [ 4]  200 	sta	(___fsmul_PARM_1 + 2)
   00FC A6 AF         [ 2]  201 	lda	#0xAF
   00FE C7r00r03      [ 4]  202 	sta	(___fsmul_PARM_1 + 3)
   0101 9E E6 05      [ 4]  203 	lda	5,s
   0104 C7r00r00      [ 4]  204 	sta	___fsmul_PARM_2
   0107 9E E6 06      [ 4]  205 	lda	6,s
   010A C7r00r01      [ 4]  206 	sta	(___fsmul_PARM_2 + 1)
   010D 9E E6 07      [ 4]  207 	lda	7,s
   0110 C7r00r02      [ 4]  208 	sta	(___fsmul_PARM_2 + 2)
   0113 9E E6 08      [ 4]  209 	lda	8,s
   0116 C7r00r03      [ 4]  210 	sta	(___fsmul_PARM_2 + 3)
   0119 89            [ 2]  211 	pshx
   011A 8B            [ 2]  212 	pshh
   011B CDr00r00      [ 5]  213 	jsr	___fsmul
   011E C7r00r03      [ 4]  214 	sta	(___fssub_PARM_1 + 3)
   0121 CFr00r02      [ 4]  215 	stx	(___fssub_PARM_1 + 2)
   0124 B6*00         [ 3]  216 	lda	*___SDCC_hc08_ret2
   0126 C7r00r01      [ 4]  217 	sta	(___fssub_PARM_1 + 1)
   0129 B6*00         [ 3]  218 	lda	*___SDCC_hc08_ret3
   012B C7r00r00      [ 4]  219 	sta	___fssub_PARM_1
   012E 8A            [ 2]  220 	pulh
   012F 88            [ 2]  221 	pulx
   0130 A6 3F         [ 2]  222 	lda	#0x3F
   0132 C7r00r00      [ 4]  223 	sta	___fssub_PARM_2
   0135 A6 80         [ 2]  224 	lda	#0x80
   0137 C7r00r01      [ 4]  225 	sta	(___fssub_PARM_2 + 1)
   013A 4F            [ 1]  226 	clra
   013B C7r00r02      [ 4]  227 	sta	(___fssub_PARM_2 + 2)
   013E C7r00r03      [ 4]  228 	sta	(___fssub_PARM_2 + 3)
   0141 89            [ 2]  229 	pshx
   0142 8B            [ 2]  230 	pshh
   0143 CDr00r00      [ 5]  231 	jsr	___fssub
   0146 C7r00r03      [ 4]  232 	sta	(___fsadd_PARM_1 + 3)
   0149 CFr00r02      [ 4]  233 	stx	(___fsadd_PARM_1 + 2)
   014C B6*00         [ 3]  234 	lda	*___SDCC_hc08_ret2
   014E C7r00r01      [ 4]  235 	sta	(___fsadd_PARM_1 + 1)
   0151 B6*00         [ 3]  236 	lda	*___SDCC_hc08_ret3
   0153 C7r00r00      [ 4]  237 	sta	___fsadd_PARM_1
   0156 8A            [ 2]  238 	pulh
   0157 88            [ 2]  239 	pulx
   0158 9E E6 05      [ 4]  240 	lda	5,s
   015B C7r00r00      [ 4]  241 	sta	___fsadd_PARM_2
   015E 9E E6 06      [ 4]  242 	lda	6,s
   0161 C7r00r01      [ 4]  243 	sta	(___fsadd_PARM_2 + 1)
   0164 9E E6 07      [ 4]  244 	lda	7,s
   0167 C7r00r02      [ 4]  245 	sta	(___fsadd_PARM_2 + 2)
   016A 9E E6 08      [ 4]  246 	lda	8,s
   016D C7r00r03      [ 4]  247 	sta	(___fsadd_PARM_2 + 3)
   0170 89            [ 2]  248 	pshx
   0171 8B            [ 2]  249 	pshh
   0172 CDr00r00      [ 5]  250 	jsr	___fsadd
   0175 9E E7 12      [ 4]  251 	sta	18,s
   0178 9E EF 11      [ 4]  252 	stx	17,s
   017B B6*00         [ 3]  253 	lda	*___SDCC_hc08_ret2
   017D 9E E7 10      [ 4]  254 	sta	16,s
   0180 B6*00         [ 3]  255 	lda	*___SDCC_hc08_ret3
   0182 9E E7 0F      [ 4]  256 	sta	15,s
   0185 8A            [ 2]  257 	pulh
   0186 88            [ 2]  258 	pulx
   0187 9E E6 05      [ 4]  259 	lda	5,s
   018A C7r00r00      [ 4]  260 	sta	___fsadd_PARM_1
   018D 9E E6 06      [ 4]  261 	lda	6,s
   0190 C7r00r01      [ 4]  262 	sta	(___fsadd_PARM_1 + 1)
   0193 9E E6 07      [ 4]  263 	lda	7,s
   0196 C7r00r02      [ 4]  264 	sta	(___fsadd_PARM_1 + 2)
   0199 9E E6 08      [ 4]  265 	lda	8,s
   019C C7r00r03      [ 4]  266 	sta	(___fsadd_PARM_1 + 3)
   019F A6 3F         [ 2]  267 	lda	#0x3F
   01A1 C7r00r00      [ 4]  268 	sta	___fsadd_PARM_2
   01A4 A6 DD         [ 2]  269 	lda	#0xDD
   01A6 C7r00r01      [ 4]  270 	sta	(___fsadd_PARM_2 + 1)
   01A9 A6 B3         [ 2]  271 	lda	#0xB3
   01AB C7r00r02      [ 4]  272 	sta	(___fsadd_PARM_2 + 2)
   01AE A6 D7         [ 2]  273 	lda	#0xD7
   01B0 C7r00r03      [ 4]  274 	sta	(___fsadd_PARM_2 + 3)
   01B3 89            [ 2]  275 	pshx
   01B4 8B            [ 2]  276 	pshh
   01B5 CDr00r00      [ 5]  277 	jsr	___fsadd
   01B8 C7r00r03      [ 4]  278 	sta	(___fsdiv_PARM_2 + 3)
   01BB CFr00r02      [ 4]  279 	stx	(___fsdiv_PARM_2 + 2)
   01BE B6*00         [ 3]  280 	lda	*___SDCC_hc08_ret2
   01C0 C7r00r01      [ 4]  281 	sta	(___fsdiv_PARM_2 + 1)
   01C3 B6*00         [ 3]  282 	lda	*___SDCC_hc08_ret3
   01C5 C7r00r00      [ 4]  283 	sta	___fsdiv_PARM_2
   01C8 8A            [ 2]  284 	pulh
   01C9 88            [ 2]  285 	pulx
   01CA 9E E6 0D      [ 4]  286 	lda	13,s
   01CD C7r00r00      [ 4]  287 	sta	___fsdiv_PARM_1
   01D0 9E E6 0E      [ 4]  288 	lda	14,s
   01D3 C7r00r01      [ 4]  289 	sta	(___fsdiv_PARM_1 + 1)
   01D6 9E E6 0F      [ 4]  290 	lda	15,s
   01D9 C7r00r02      [ 4]  291 	sta	(___fsdiv_PARM_1 + 2)
   01DC 9E E6 10      [ 4]  292 	lda	16,s
   01DF C7r00r03      [ 4]  293 	sta	(___fsdiv_PARM_1 + 3)
   01E2 89            [ 2]  294 	pshx
   01E3 8B            [ 2]  295 	pshh
   01E4 CDr00r00      [ 5]  296 	jsr	___fsdiv
   01E7 9E E7 0A      [ 4]  297 	sta	10,s
   01EA 9E EF 09      [ 4]  298 	stx	9,s
   01ED B6*00         [ 3]  299 	lda	*___SDCC_hc08_ret2
   01EF 9E E7 08      [ 4]  300 	sta	8,s
   01F2 B6*00         [ 3]  301 	lda	*___SDCC_hc08_ret3
   01F4 9E E7 07      [ 4]  302 	sta	7,s
   01F7 8A            [ 2]  303 	pulh
   01F8 88            [ 2]  304 	pulx
                            305 ;../atanf.c:73: n++;
   01F9 AF 01         [ 2]  306 	aix	#1
   01FB                     307 00104$:
                            308 ;../atanf.c:75: if(fabsf(f)<EPS) r=f;
   01FB 89            [ 2]  309 	pshx
   01FC 8B            [ 2]  310 	pshh
   01FD 9E E6 0A      [ 4]  311 	lda	10,s
   0200 87            [ 2]  312 	psha
   0201 9E E6 0A      [ 4]  313 	lda	10,s
   0204 87            [ 2]  314 	psha
   0205 9E E6 0A      [ 4]  315 	lda	10,s
   0208 87            [ 2]  316 	psha
   0209 9E E6 0A      [ 4]  317 	lda	10,s
   020C 87            [ 2]  318 	psha
   020D CDr00r00      [ 5]  319 	jsr	_fabsf
   0210 C7r00r03      [ 4]  320 	sta	(___fslt_PARM_1 + 3)
   0213 CFr00r02      [ 4]  321 	stx	(___fslt_PARM_1 + 2)
   0216 B6*00         [ 3]  322 	lda	*___SDCC_hc08_ret2
   0218 C7r00r01      [ 4]  323 	sta	(___fslt_PARM_1 + 1)
   021B B6*00         [ 3]  324 	lda	*___SDCC_hc08_ret3
   021D C7r00r00      [ 4]  325 	sta	___fslt_PARM_1
   0220 A7 04         [ 2]  326 	ais	#4
   0222 8A            [ 2]  327 	pulh
   0223 88            [ 2]  328 	pulx
   0224 A6 39         [ 2]  329 	lda	#0x39
   0226 C7r00r00      [ 4]  330 	sta	___fslt_PARM_2
   0229 A6 80         [ 2]  331 	lda	#0x80
   022B C7r00r01      [ 4]  332 	sta	(___fslt_PARM_2 + 1)
   022E 4F            [ 1]  333 	clra
   022F C7r00r02      [ 4]  334 	sta	(___fslt_PARM_2 + 2)
   0232 C7r00r03      [ 4]  335 	sta	(___fslt_PARM_2 + 3)
   0235 89            [ 2]  336 	pshx
   0236 8B            [ 2]  337 	pshh
   0237 CDr00r00      [ 5]  338 	jsr	___fslt
   023A 8A            [ 2]  339 	pulh
   023B 88            [ 2]  340 	pulx
   023C 4D            [ 1]  341 	tsta
   023D 27 1B         [ 3]  342 	beq	00106$
   023F 9E E6 05      [ 4]  343 	lda	5,s
   0242 9E E7 01      [ 4]  344 	sta	1,s
   0245 9E E6 06      [ 4]  345 	lda	6,s
   0248 9E E7 02      [ 4]  346 	sta	2,s
   024B 9E E6 07      [ 4]  347 	lda	7,s
   024E 9E E7 03      [ 4]  348 	sta	3,s
   0251 9E E6 08      [ 4]  349 	lda	8,s
   0254 9E E7 04      [ 4]  350 	sta	4,s
   0257 CCr04r0E      [ 3]  351 	jmp	00107$
   025A                     352 00106$:
                            353 ;../atanf.c:78: g=f*f;
   025A 9E E6 05      [ 4]  354 	lda	5,s
   025D C7r00r00      [ 4]  355 	sta	___fsmul_PARM_1
   0260 9E E6 06      [ 4]  356 	lda	6,s
   0263 C7r00r01      [ 4]  357 	sta	(___fsmul_PARM_1 + 1)
   0266 9E E6 07      [ 4]  358 	lda	7,s
   0269 C7r00r02      [ 4]  359 	sta	(___fsmul_PARM_1 + 2)
   026C 9E E6 08      [ 4]  360 	lda	8,s
   026F C7r00r03      [ 4]  361 	sta	(___fsmul_PARM_1 + 3)
   0272 9E E6 05      [ 4]  362 	lda	5,s
   0275 C7r00r00      [ 4]  363 	sta	___fsmul_PARM_2
   0278 9E E6 06      [ 4]  364 	lda	6,s
   027B C7r00r01      [ 4]  365 	sta	(___fsmul_PARM_2 + 1)
   027E 9E E6 07      [ 4]  366 	lda	7,s
   0281 C7r00r02      [ 4]  367 	sta	(___fsmul_PARM_2 + 2)
   0284 9E E6 08      [ 4]  368 	lda	8,s
   0287 C7r00r03      [ 4]  369 	sta	(___fsmul_PARM_2 + 3)
                            370 ;../atanf.c:79: r=f+P(g,f)/Q(g);
   028A 89            [ 2]  371 	pshx
   028B 8B            [ 2]  372 	pshh
   028C CDr00r00      [ 5]  373 	jsr	___fsmul
   028F 9E E7 12      [ 4]  374 	sta	18,s
   0292 9E EF 11      [ 4]  375 	stx	17,s
   0295 B6*00         [ 3]  376 	lda	*___SDCC_hc08_ret2
   0297 9E E7 10      [ 4]  377 	sta	16,s
   029A B6*00         [ 3]  378 	lda	*___SDCC_hc08_ret3
   029C 9E E7 0F      [ 4]  379 	sta	15,s
   029F 8A            [ 2]  380 	pulh
   02A0 88            [ 2]  381 	pulx
   02A1 A6 BD         [ 2]  382 	lda	#0xBD
   02A3 C7r00r00      [ 4]  383 	sta	___fsmul_PARM_1
   02A6 A6 50         [ 2]  384 	lda	#0x50
   02A8 C7r00r01      [ 4]  385 	sta	(___fsmul_PARM_1 + 1)
   02AB A6 86         [ 2]  386 	lda	#0x86
   02AD C7r00r02      [ 4]  387 	sta	(___fsmul_PARM_1 + 2)
   02B0 A6 91         [ 2]  388 	lda	#0x91
   02B2 C7r00r03      [ 4]  389 	sta	(___fsmul_PARM_1 + 3)
   02B5 9E E6 0D      [ 4]  390 	lda	13,s
   02B8 C7r00r00      [ 4]  391 	sta	___fsmul_PARM_2
   02BB 9E E6 0E      [ 4]  392 	lda	14,s
   02BE C7r00r01      [ 4]  393 	sta	(___fsmul_PARM_2 + 1)
   02C1 9E E6 0F      [ 4]  394 	lda	15,s
   02C4 C7r00r02      [ 4]  395 	sta	(___fsmul_PARM_2 + 2)
   02C7 9E E6 10      [ 4]  396 	lda	16,s
   02CA C7r00r03      [ 4]  397 	sta	(___fsmul_PARM_2 + 3)
   02CD 89            [ 2]  398 	pshx
   02CE 8B            [ 2]  399 	pshh
   02CF CDr00r00      [ 5]  400 	jsr	___fsmul
   02D2 C7r00r03      [ 4]  401 	sta	(___fsadd_PARM_1 + 3)
   02D5 CFr00r02      [ 4]  402 	stx	(___fsadd_PARM_1 + 2)
   02D8 B6*00         [ 3]  403 	lda	*___SDCC_hc08_ret2
   02DA C7r00r01      [ 4]  404 	sta	(___fsadd_PARM_1 + 1)
   02DD B6*00         [ 3]  405 	lda	*___SDCC_hc08_ret3
   02DF C7r00r00      [ 4]  406 	sta	___fsadd_PARM_1
   02E2 8A            [ 2]  407 	pulh
   02E3 88            [ 2]  408 	pulx
   02E4 A6 BE         [ 2]  409 	lda	#0xBE
   02E6 C7r00r00      [ 4]  410 	sta	___fsadd_PARM_2
   02E9 A6 F1         [ 2]  411 	lda	#0xF1
   02EB C7r00r01      [ 4]  412 	sta	(___fsadd_PARM_2 + 1)
   02EE A6 10         [ 2]  413 	lda	#0x10
   02F0 C7r00r02      [ 4]  414 	sta	(___fsadd_PARM_2 + 2)
   02F3 A6 F6         [ 2]  415 	lda	#0xF6
   02F5 C7r00r03      [ 4]  416 	sta	(___fsadd_PARM_2 + 3)
   02F8 89            [ 2]  417 	pshx
   02F9 8B            [ 2]  418 	pshh
   02FA CDr00r00      [ 5]  419 	jsr	___fsadd
   02FD C7r00r03      [ 4]  420 	sta	(___fsmul_PARM_1 + 3)
   0300 CFr00r02      [ 4]  421 	stx	(___fsmul_PARM_1 + 2)
   0303 B6*00         [ 3]  422 	lda	*___SDCC_hc08_ret2
   0305 C7r00r01      [ 4]  423 	sta	(___fsmul_PARM_1 + 1)
   0308 B6*00         [ 3]  424 	lda	*___SDCC_hc08_ret3
   030A C7r00r00      [ 4]  425 	sta	___fsmul_PARM_1
   030D 8A            [ 2]  426 	pulh
   030E 88            [ 2]  427 	pulx
   030F 9E E6 0D      [ 4]  428 	lda	13,s
   0312 C7r00r00      [ 4]  429 	sta	___fsmul_PARM_2
   0315 9E E6 0E      [ 4]  430 	lda	14,s
   0318 C7r00r01      [ 4]  431 	sta	(___fsmul_PARM_2 + 1)
   031B 9E E6 0F      [ 4]  432 	lda	15,s
   031E C7r00r02      [ 4]  433 	sta	(___fsmul_PARM_2 + 2)
   0321 9E E6 10      [ 4]  434 	lda	16,s
   0324 C7r00r03      [ 4]  435 	sta	(___fsmul_PARM_2 + 3)
   0327 89            [ 2]  436 	pshx
   0328 8B            [ 2]  437 	pshh
   0329 CDr00r00      [ 5]  438 	jsr	___fsmul
   032C C7r00r03      [ 4]  439 	sta	(___fsmul_PARM_1 + 3)
   032F CFr00r02      [ 4]  440 	stx	(___fsmul_PARM_1 + 2)
   0332 B6*00         [ 3]  441 	lda	*___SDCC_hc08_ret2
   0334 C7r00r01      [ 4]  442 	sta	(___fsmul_PARM_1 + 1)
   0337 B6*00         [ 3]  443 	lda	*___SDCC_hc08_ret3
   0339 C7r00r00      [ 4]  444 	sta	___fsmul_PARM_1
   033C 8A            [ 2]  445 	pulh
   033D 88            [ 2]  446 	pulx
   033E 9E E6 05      [ 4]  447 	lda	5,s
   0341 C7r00r00      [ 4]  448 	sta	___fsmul_PARM_2
   0344 9E E6 06      [ 4]  449 	lda	6,s
   0347 C7r00r01      [ 4]  450 	sta	(___fsmul_PARM_2 + 1)
   034A 9E E6 07      [ 4]  451 	lda	7,s
   034D C7r00r02      [ 4]  452 	sta	(___fsmul_PARM_2 + 2)
   0350 9E E6 08      [ 4]  453 	lda	8,s
   0353 C7r00r03      [ 4]  454 	sta	(___fsmul_PARM_2 + 3)
   0356 89            [ 2]  455 	pshx
   0357 8B            [ 2]  456 	pshh
   0358 CDr00r00      [ 5]  457 	jsr	___fsmul
   035B 9E E7 0E      [ 4]  458 	sta	14,s
   035E 9E EF 0D      [ 4]  459 	stx	13,s
   0361 B6*00         [ 3]  460 	lda	*___SDCC_hc08_ret2
   0363 9E E7 0C      [ 4]  461 	sta	12,s
   0366 B6*00         [ 3]  462 	lda	*___SDCC_hc08_ret3
   0368 9E E7 0B      [ 4]  463 	sta	11,s
   036B 8A            [ 2]  464 	pulh
   036C 88            [ 2]  465 	pulx
   036D 9E E6 0D      [ 4]  466 	lda	13,s
   0370 C7r00r00      [ 4]  467 	sta	___fsadd_PARM_1
   0373 9E E6 0E      [ 4]  468 	lda	14,s
   0376 C7r00r01      [ 4]  469 	sta	(___fsadd_PARM_1 + 1)
   0379 9E E6 0F      [ 4]  470 	lda	15,s
   037C C7r00r02      [ 4]  471 	sta	(___fsadd_PARM_1 + 2)
   037F 9E E6 10      [ 4]  472 	lda	16,s
   0382 C7r00r03      [ 4]  473 	sta	(___fsadd_PARM_1 + 3)
   0385 A6 3F         [ 2]  474 	lda	#0x3F
   0387 C7r00r00      [ 4]  475 	sta	___fsadd_PARM_2
   038A A6 B4         [ 2]  476 	lda	#0xB4
   038C C7r00r01      [ 4]  477 	sta	(___fsadd_PARM_2 + 1)
   038F A6 CC         [ 2]  478 	lda	#0xCC
   0391 C7r00r02      [ 4]  479 	sta	(___fsadd_PARM_2 + 2)
   0394 A6 D3         [ 2]  480 	lda	#0xD3
   0396 C7r00r03      [ 4]  481 	sta	(___fsadd_PARM_2 + 3)
   0399 89            [ 2]  482 	pshx
   039A 8B            [ 2]  483 	pshh
   039B CDr00r00      [ 5]  484 	jsr	___fsadd
   039E C7r00r03      [ 4]  485 	sta	(___fsdiv_PARM_2 + 3)
   03A1 CFr00r02      [ 4]  486 	stx	(___fsdiv_PARM_2 + 2)
   03A4 B6*00         [ 3]  487 	lda	*___SDCC_hc08_ret2
   03A6 C7r00r01      [ 4]  488 	sta	(___fsdiv_PARM_2 + 1)
   03A9 B6*00         [ 3]  489 	lda	*___SDCC_hc08_ret3
   03AB C7r00r00      [ 4]  490 	sta	___fsdiv_PARM_2
   03AE 8A            [ 2]  491 	pulh
   03AF 88            [ 2]  492 	pulx
   03B0 9E E6 09      [ 4]  493 	lda	9,s
   03B3 C7r00r00      [ 4]  494 	sta	___fsdiv_PARM_1
   03B6 9E E6 0A      [ 4]  495 	lda	10,s
   03B9 C7r00r01      [ 4]  496 	sta	(___fsdiv_PARM_1 + 1)
   03BC 9E E6 0B      [ 4]  497 	lda	11,s
   03BF C7r00r02      [ 4]  498 	sta	(___fsdiv_PARM_1 + 2)
   03C2 9E E6 0C      [ 4]  499 	lda	12,s
   03C5 C7r00r03      [ 4]  500 	sta	(___fsdiv_PARM_1 + 3)
   03C8 89            [ 2]  501 	pshx
   03C9 8B            [ 2]  502 	pshh
   03CA CDr00r00      [ 5]  503 	jsr	___fsdiv
   03CD C7r00r03      [ 4]  504 	sta	(___fsadd_PARM_2 + 3)
   03D0 CFr00r02      [ 4]  505 	stx	(___fsadd_PARM_2 + 2)
   03D3 B6*00         [ 3]  506 	lda	*___SDCC_hc08_ret2
   03D5 C7r00r01      [ 4]  507 	sta	(___fsadd_PARM_2 + 1)
   03D8 B6*00         [ 3]  508 	lda	*___SDCC_hc08_ret3
   03DA C7r00r00      [ 4]  509 	sta	___fsadd_PARM_2
   03DD 8A            [ 2]  510 	pulh
   03DE 88            [ 2]  511 	pulx
   03DF 9E E6 05      [ 4]  512 	lda	5,s
   03E2 C7r00r00      [ 4]  513 	sta	___fsadd_PARM_1
   03E5 9E E6 06      [ 4]  514 	lda	6,s
   03E8 C7r00r01      [ 4]  515 	sta	(___fsadd_PARM_1 + 1)
   03EB 9E E6 07      [ 4]  516 	lda	7,s
   03EE C7r00r02      [ 4]  517 	sta	(___fsadd_PARM_1 + 2)
   03F1 9E E6 08      [ 4]  518 	lda	8,s
   03F4 C7r00r03      [ 4]  519 	sta	(___fsadd_PARM_1 + 3)
   03F7 89            [ 2]  520 	pshx
   03F8 8B            [ 2]  521 	pshh
   03F9 CDr00r00      [ 5]  522 	jsr	___fsadd
   03FC 9E E7 06      [ 4]  523 	sta	6,s
   03FF 9E EF 05      [ 4]  524 	stx	5,s
   0402 B6*00         [ 3]  525 	lda	*___SDCC_hc08_ret2
   0404 9E E7 04      [ 4]  526 	sta	4,s
   0407 B6*00         [ 3]  527 	lda	*___SDCC_hc08_ret3
   0409 9E E7 03      [ 4]  528 	sta	3,s
   040C 8A            [ 2]  529 	pulh
   040D 88            [ 2]  530 	pulx
   040E                     531 00107$:
                            532 ;../atanf.c:81: if(n>1) r=-r;
   040E 65 00 01      [ 3]  533 	cphx	#0x0001
   0411 93 08         [ 3]  534 	ble	00109$
   0413 9E E6 01      [ 4]  535 	lda	1,s
   0416 A8 80         [ 2]  536 	eor	#0x80
   0418 9E E7 01      [ 4]  537 	sta	1,s
   041B                     538 00109$:
                            539 ;../atanf.c:82: r+=a[n];
   041B 9F            [ 1]  540 	txa
   041C 8B            [ 2]  541 	pshh
   041D 88            [ 2]  542 	pulx
   041E 48            [ 1]  543 	lsla
   041F 59            [ 1]  544 	rolx
   0420 48            [ 1]  545 	lsla
   0421 59            [ 1]  546 	rolx
   0422 89            [ 2]  547 	pshx
   0423 8A            [ 2]  548 	pulh
   0424 97            [ 1]  549 	tax
   0425 D6r00r00      [ 4]  550 	lda	(_atanf_a_1_24),x
   0428 C7r00r00      [ 4]  551 	sta	___fsadd_PARM_2
   042B D6r00r01      [ 4]  552 	lda	(_atanf_a_1_24+1),x
   042E C7r00r01      [ 4]  553 	sta	(___fsadd_PARM_2 + 1)
   0431 D6r00r02      [ 4]  554 	lda	(_atanf_a_1_24+2),x
   0434 C7r00r02      [ 4]  555 	sta	(___fsadd_PARM_2 + 2)
   0437 D6r00r03      [ 4]  556 	lda	(_atanf_a_1_24+3),x
   043A C7r00r03      [ 4]  557 	sta	(___fsadd_PARM_2 + 3)
   043D 95            [ 2]  558 	tsx
   043E 45r00r00      [ 3]  559 	ldhx	#___fsadd_PARM_1
   0441 9E E6 01      [ 4]  560 	lda	1,s
   0444 F7            [ 2]  561 	sta	,x
   0445 9E E6 02      [ 4]  562 	lda	2,s
   0448 E7 01         [ 3]  563 	sta	1,x
   044A 9E E6 03      [ 4]  564 	lda	3,s
   044D E7 02         [ 3]  565 	sta	2,x
   044F 9E E6 04      [ 4]  566 	lda	4,s
   0452 E7 03         [ 3]  567 	sta	3,x
   0454 CDr00r00      [ 5]  568 	jsr	___fsadd
   0457 9E E7 04      [ 4]  569 	sta	4,s
   045A 9E EF 03      [ 4]  570 	stx	3,s
   045D B6*00         [ 3]  571 	lda	*___SDCC_hc08_ret2
   045F 9E E7 02      [ 4]  572 	sta	2,s
   0462 B6*00         [ 3]  573 	lda	*___SDCC_hc08_ret3
   0464 9E E7 01      [ 4]  574 	sta	1,s
                            575 ;../atanf.c:83: if(x<0.0) r=-r;
   0467 95            [ 2]  576 	tsx
   0468 45r00r00      [ 3]  577 	ldhx	#___fslt_PARM_1
   046B 9E E6 13      [ 4]  578 	lda	19,s
   046E F7            [ 2]  579 	sta	,x
   046F 9E E6 14      [ 4]  580 	lda	20,s
   0472 E7 01         [ 3]  581 	sta	1,x
   0474 9E E6 15      [ 4]  582 	lda	21,s
   0477 E7 02         [ 3]  583 	sta	2,x
   0479 9E E6 16      [ 4]  584 	lda	22,s
   047C E7 03         [ 3]  585 	sta	3,x
   047E 45r00r00      [ 3]  586 	ldhx	#___fslt_PARM_2
   0481 4F            [ 1]  587 	clra
   0482 F7            [ 2]  588 	sta	,x
   0483 E7 01         [ 3]  589 	sta	1,x
   0485 E7 02         [ 3]  590 	sta	2,x
   0487 E7 03         [ 3]  591 	sta	3,x
   0489 CDr00r00      [ 5]  592 	jsr	___fslt
   048C 4D            [ 1]  593 	tsta
   048D 27 05         [ 3]  594 	beq	00111$
   048F 95            [ 2]  595 	tsx
   0490 F6            [ 2]  596 	lda	,x
   0491 A8 80         [ 2]  597 	eor	#0x80
   0493 F7            [ 2]  598 	sta	,x
   0494                     599 00111$:
                            600 ;../atanf.c:84: return r;
   0494 95            [ 2]  601 	tsx
   0495 F6            [ 2]  602 	lda	,x
   0496 B7*00         [ 3]  603 	sta	*___SDCC_hc08_ret3
   0498 E6 01         [ 3]  604 	lda	1,x
   049A B7*00         [ 3]  605 	sta	*___SDCC_hc08_ret2
   049C EE 02         [ 3]  606 	ldx	2,x
   049E 9E E6 04      [ 4]  607 	lda	4,s
   04A1 A7 10         [ 2]  608 	ais	#16
   04A3 81            [ 4]  609 	rts
                            610 	.area CSEG    (CODE)
                            611 	.area CONST   (CODE)
   0000                     612 _atanf_a_1_24:
   0000 00 00 00 00         613 	.byte #0x00,#0x00,#0x00,#0x00	;  0.000000e+00
   0004 3F 06 0A 92         614 	.byte #0x3F,#0x06,#0x0A,#0x92	;  5.235988e-01
   0008 3F C9 0F DB         615 	.byte #0x3F,#0xC9,#0x0F,#0xDB	;  1.570796e+00
   000C 3F 86 0A 92         616 	.byte #0x3F,#0x86,#0x0A,#0x92	;  1.047198e+00
                            617 	.area XINIT   (CODE)
                            618 	.area CABS    (ABS,CODE)
