                              1 ;--------------------------------------------------------
                              2 ; File Created by SDCC : free open source ANSI-C Compiler
                              3 ; Version 3.5.0 #9253 (Apr  4 2022) (Linux)
                              4 ; This file was generated Mon Apr  4 14:10:32 2022
                              5 ;--------------------------------------------------------
                              6 	.module tancotf
                              7 	.optsdcc -mhc08
                              8 	
                              9 	.area HOME    (CODE)
                             10 	.area GSINIT0 (CODE)
                             11 	.area GSINIT  (CODE)
                             12 	.area GSFINAL (CODE)
                             13 	.area CSEG    (CODE)
                             14 	.area XINIT   (CODE)
                             15 	.area CONST   (CODE)
                             16 	.area DSEG    (PAG)
                             17 	.area OSEG    (PAG, OVR)
                             18 	.area XSEG
                             19 	.area XISEG
                             20 ;--------------------------------------------------------
                             21 ; Public variables in this module
                             22 ;--------------------------------------------------------
                             23 	.globl _tancotf
                             24 	.globl _fabsf
                             25 	.globl _tancotf_PARM_2
                             26 	.globl _tancotf_PARM_1
                             27 ;--------------------------------------------------------
                             28 ; ram data
                             29 ;--------------------------------------------------------
                             30 	.area DSEG    (PAG)
   0000                      31 _tancotf_sloc0_1_0:
   0000                      32 	.ds 4
   0004                      33 _tancotf_sloc1_1_0:
   0004                      34 	.ds 4
   0008                      35 _tancotf_sloc2_1_0:
   0008                      36 	.ds 4
                             37 ;--------------------------------------------------------
                             38 ; overlayable items in ram 
                             39 ;--------------------------------------------------------
                             40 ;--------------------------------------------------------
                             41 ; absolute ram data
                             42 ;--------------------------------------------------------
                             43 	.area IABS    (ABS)
                             44 	.area IABS    (ABS)
                             45 ;--------------------------------------------------------
                             46 ; absolute external ram data
                             47 ;--------------------------------------------------------
                             48 	.area XABS    (ABS)
                             49 ;--------------------------------------------------------
                             50 ; external initialized ram data
                             51 ;--------------------------------------------------------
                             52 	.area XISEG
                             53 ;--------------------------------------------------------
                             54 ; extended address mode data
                             55 ;--------------------------------------------------------
                             56 	.area XSEG
   0000                      57 _tancotf_PARM_1:
   0000                      58 	.ds 4
   0004                      59 _tancotf_PARM_2:
   0004                      60 	.ds 1
   0005                      61 _tancotf_xnum_1_24:
   0005                      62 	.ds 4
   0009                      63 _tancotf_xden_1_24:
   0009                      64 	.ds 4
   000D                      65 _tancotf_n_1_24:
   000D                      66 	.ds 2
                             67 ;--------------------------------------------------------
                             68 ; global & static initialisations
                             69 ;--------------------------------------------------------
                             70 	.area HOME    (CODE)
                             71 	.area GSINIT  (CODE)
                             72 	.area GSFINAL (CODE)
                             73 	.area GSINIT  (CODE)
                             74 ;--------------------------------------------------------
                             75 ; Home
                             76 ;--------------------------------------------------------
                             77 	.area HOME    (CODE)
                             78 	.area HOME    (CODE)
                             79 ;--------------------------------------------------------
                             80 ; code
                             81 ;--------------------------------------------------------
                             82 	.area CSEG    (CODE)
                             83 ;------------------------------------------------------------
                             84 ;Allocation info for local variables in function 'tancotf'
                             85 ;------------------------------------------------------------
                             86 ;sloc0                     Allocated with name '_tancotf_sloc0_1_0'
                             87 ;sloc1                     Allocated with name '_tancotf_sloc1_1_0'
                             88 ;sloc2                     Allocated with name '_tancotf_sloc2_1_0'
                             89 ;x                         Allocated with name '_tancotf_PARM_1'
                             90 ;iscotan                   Allocated with name '_tancotf_PARM_2'
                             91 ;f                         Allocated with name '_tancotf_f_1_24'
                             92 ;g                         Allocated with name '_tancotf_g_1_24'
                             93 ;xn                        Allocated with name '_tancotf_xn_1_24'
                             94 ;xnum                      Allocated with name '_tancotf_xnum_1_24'
                             95 ;xden                      Allocated with name '_tancotf_xden_1_24'
                             96 ;n                         Allocated with name '_tancotf_n_1_24'
                             97 ;------------------------------------------------------------
                             98 ;../tancotf.c:53: float tancotf(float x, bool iscotan)
                             99 ;	-----------------------------------------
                            100 ;	 function tancotf
                            101 ;	-----------------------------------------
                            102 ;	Register assignment is optimal.
                            103 ;	Stack space usage: 0 bytes.
   0000                     104 _tancotf:
                            105 ;../tancotf.c:58: if (fabsf(x) > YMAX)
   0000 C6r00r03      [ 4]  106 	lda	(_tancotf_PARM_1 + 3)
   0003 87            [ 2]  107 	psha
   0004 C6r00r02      [ 4]  108 	lda	(_tancotf_PARM_1 + 2)
   0007 87            [ 2]  109 	psha
   0008 C6r00r01      [ 4]  110 	lda	(_tancotf_PARM_1 + 1)
   000B 87            [ 2]  111 	psha
   000C C6r00r00      [ 4]  112 	lda	_tancotf_PARM_1
   000F 87            [ 2]  113 	psha
   0010 CDr00r00      [ 5]  114 	jsr	_fabsf
   0013 C7r00r03      [ 4]  115 	sta	(___fsgt_PARM_1 + 3)
   0016 CFr00r02      [ 4]  116 	stx	(___fsgt_PARM_1 + 2)
   0019 B6*00         [ 3]  117 	lda	*___SDCC_hc08_ret2
   001B C7r00r01      [ 4]  118 	sta	(___fsgt_PARM_1 + 1)
   001E B6*00         [ 3]  119 	lda	*___SDCC_hc08_ret3
   0020 C7r00r00      [ 4]  120 	sta	___fsgt_PARM_1
   0023 A7 04         [ 2]  121 	ais	#4
   0025 45r00r00      [ 3]  122 	ldhx	#___fsgt_PARM_2
   0028 A6 45         [ 2]  123 	lda	#0x45
   002A F7            [ 2]  124 	sta	,x
   002B A6 C9         [ 2]  125 	lda	#0xC9
   002D E7 01         [ 3]  126 	sta	1,x
   002F A6 08         [ 2]  127 	lda	#0x08
   0031 E7 02         [ 3]  128 	sta	2,x
   0033 4F            [ 1]  129 	clra
   0034 E7 03         [ 3]  130 	sta	3,x
   0036 CDr00r00      [ 5]  131 	jsr	___fsgt
   0039 4D            [ 1]  132 	tsta
   003A 27 10         [ 3]  133 	beq	00102$
                            134 ;../tancotf.c:60: errno = ERANGE;
   003C 4F            [ 1]  135 	clra
   003D C7r00r00      [ 4]  136 	sta	_errno
   0040 A6 22         [ 2]  137 	lda	#0x22
   0042 C7r00r01      [ 4]  138 	sta	(_errno + 1)
                            139 ;../tancotf.c:61: return 0.0;
   0045 4F            [ 1]  140 	clra
   0046 97            [ 1]  141 	tax
   0047 B7*00         [ 3]  142 	sta	*___SDCC_hc08_ret2
   0049 B7*00         [ 3]  143 	sta	*___SDCC_hc08_ret3
   004B 81            [ 4]  144 	rts
   004C                     145 00102$:
                            146 ;../tancotf.c:65: n=(x*TWO_O_PI+(x>0.0?0.5:-0.5)); /*works for +-x*/
   004C 45r00r00      [ 3]  147 	ldhx	#___fsmul_PARM_1
   004F A6 3F         [ 2]  148 	lda	#0x3F
   0051 F7            [ 2]  149 	sta	,x
   0052 A6 22         [ 2]  150 	lda	#0x22
   0054 E7 01         [ 3]  151 	sta	1,x
   0056 A6 F9         [ 2]  152 	lda	#0xF9
   0058 E7 02         [ 3]  153 	sta	2,x
   005A A6 83         [ 2]  154 	lda	#0x83
   005C E7 03         [ 3]  155 	sta	3,x
   005E 45r00r00      [ 3]  156 	ldhx	#___fsmul_PARM_2
   0061 C6r00r00      [ 4]  157 	lda	_tancotf_PARM_1
   0064 F7            [ 2]  158 	sta	,x
   0065 C6r00r01      [ 4]  159 	lda	(_tancotf_PARM_1 + 1)
   0068 E7 01         [ 3]  160 	sta	1,x
   006A C6r00r02      [ 4]  161 	lda	(_tancotf_PARM_1 + 2)
   006D E7 02         [ 3]  162 	sta	2,x
   006F C6r00r03      [ 4]  163 	lda	(_tancotf_PARM_1 + 3)
   0072 E7 03         [ 3]  164 	sta	3,x
   0074 CDr00r00      [ 5]  165 	jsr	___fsmul
   0077 B7*03         [ 3]  166 	sta	*(_tancotf_sloc0_1_0 + 3)
   0079 BF*02         [ 3]  167 	stx	*(_tancotf_sloc0_1_0 + 2)
   007B 4E*00*01      [ 5]  168 	mov	*___SDCC_hc08_ret2,*(_tancotf_sloc0_1_0 + 1)
   007E 4E*00*00      [ 5]  169 	mov	*___SDCC_hc08_ret3,*_tancotf_sloc0_1_0
   0081 45r00r00      [ 3]  170 	ldhx	#___fsgt_PARM_1
   0084 C6r00r00      [ 4]  171 	lda	_tancotf_PARM_1
   0087 F7            [ 2]  172 	sta	,x
   0088 C6r00r01      [ 4]  173 	lda	(_tancotf_PARM_1 + 1)
   008B E7 01         [ 3]  174 	sta	1,x
   008D C6r00r02      [ 4]  175 	lda	(_tancotf_PARM_1 + 2)
   0090 E7 02         [ 3]  176 	sta	2,x
   0092 C6r00r03      [ 4]  177 	lda	(_tancotf_PARM_1 + 3)
   0095 E7 03         [ 3]  178 	sta	3,x
   0097 45r00r00      [ 3]  179 	ldhx	#___fsgt_PARM_2
   009A 4F            [ 1]  180 	clra
   009B F7            [ 2]  181 	sta	,x
   009C E7 01         [ 3]  182 	sta	1,x
   009E E7 02         [ 3]  183 	sta	2,x
   00A0 E7 03         [ 3]  184 	sta	3,x
   00A2 CDr00r00      [ 5]  185 	jsr	___fsgt
   00A5 4D            [ 1]  186 	tsta
   00A6 27 0A         [ 3]  187 	beq	00117$
   00A8 45 3F 00      [ 3]  188 	ldhx	#0x3F00
   00AB 35*04         [ 4]  189 	sthx	*_tancotf_sloc1_1_0
   00AD 8C            [ 1]  190 	clrh
   00AE 35*06         [ 4]  191 	sthx	*(_tancotf_sloc1_1_0 + 2)
   00B0 20 08         [ 3]  192 	bra	00118$
   00B2                     193 00117$:
   00B2 45 BF 00      [ 3]  194 	ldhx	#0xBF00
   00B5 35*04         [ 4]  195 	sthx	*_tancotf_sloc1_1_0
   00B7 8C            [ 1]  196 	clrh
   00B8 35*06         [ 4]  197 	sthx	*(_tancotf_sloc1_1_0 + 2)
   00BA                     198 00118$:
   00BA 45r00r00      [ 3]  199 	ldhx	#___fsadd_PARM_1
   00BD 5E*00         [ 4]  200 	mov	*_tancotf_sloc0_1_0,x+
   00BF 5E*01         [ 4]  201 	mov	*(_tancotf_sloc0_1_0 + 1),x+
   00C1 5E*02         [ 4]  202 	mov	*(_tancotf_sloc0_1_0 + 2),x+
   00C3 5E*03         [ 4]  203 	mov	*(_tancotf_sloc0_1_0 + 3),x+
   00C5 45r00r00      [ 3]  204 	ldhx	#___fsadd_PARM_2
   00C8 5E*04         [ 4]  205 	mov	*_tancotf_sloc1_1_0,x+
   00CA 5E*05         [ 4]  206 	mov	*(_tancotf_sloc1_1_0 + 1),x+
   00CC 5E*06         [ 4]  207 	mov	*(_tancotf_sloc1_1_0 + 2),x+
   00CE 5E*07         [ 4]  208 	mov	*(_tancotf_sloc1_1_0 + 3),x+
   00D0 CDr00r00      [ 5]  209 	jsr	___fsadd
   00D3 C7r00r03      [ 4]  210 	sta	(___fs2sint_PARM_1 + 3)
   00D6 CFr00r02      [ 4]  211 	stx	(___fs2sint_PARM_1 + 2)
   00D9 B6*00         [ 3]  212 	lda	*___SDCC_hc08_ret2
   00DB C7r00r01      [ 4]  213 	sta	(___fs2sint_PARM_1 + 1)
   00DE B6*00         [ 3]  214 	lda	*___SDCC_hc08_ret3
   00E0 C7r00r00      [ 4]  215 	sta	___fs2sint_PARM_1
   00E3 CDr00r00      [ 5]  216 	jsr	___fs2sint
   00E6 C7r00r0E      [ 4]  217 	sta	(_tancotf_n_1_24 + 1)
   00E9 CFr00r0D      [ 4]  218 	stx	_tancotf_n_1_24
                            219 ;../tancotf.c:66: xn=n;
   00EC C6r00r0E      [ 4]  220 	lda	(_tancotf_n_1_24 + 1)
   00EF CEr00r0D      [ 4]  221 	ldx	_tancotf_n_1_24
   00F2 CDr00r00      [ 5]  222 	jsr	___sint2fs
   00F5 B7*07         [ 3]  223 	sta	*(_tancotf_sloc1_1_0 + 3)
   00F7 BF*06         [ 3]  224 	stx	*(_tancotf_sloc1_1_0 + 2)
   00F9 4E*00*05      [ 5]  225 	mov	*___SDCC_hc08_ret2,*(_tancotf_sloc1_1_0 + 1)
   00FC 4E*00*04      [ 5]  226 	mov	*___SDCC_hc08_ret3,*_tancotf_sloc1_1_0
                            227 ;../tancotf.c:68: xnum=(int)x;
   00FF 45r00r00      [ 3]  228 	ldhx	#___fs2sint_PARM_1
   0102 C6r00r00      [ 4]  229 	lda	_tancotf_PARM_1
   0105 F7            [ 2]  230 	sta	,x
   0106 C6r00r01      [ 4]  231 	lda	(_tancotf_PARM_1 + 1)
   0109 E7 01         [ 3]  232 	sta	1,x
   010B C6r00r02      [ 4]  233 	lda	(_tancotf_PARM_1 + 2)
   010E E7 02         [ 3]  234 	sta	2,x
   0110 C6r00r03      [ 4]  235 	lda	(_tancotf_PARM_1 + 3)
   0113 E7 03         [ 3]  236 	sta	3,x
   0115 CDr00r00      [ 5]  237 	jsr	___fs2sint
   0118 CDr00r00      [ 5]  238 	jsr	___sint2fs
   011B B7*03         [ 3]  239 	sta	*(_tancotf_sloc0_1_0 + 3)
   011D BF*02         [ 3]  240 	stx	*(_tancotf_sloc0_1_0 + 2)
   011F 4E*00*01      [ 5]  241 	mov	*___SDCC_hc08_ret2,*(_tancotf_sloc0_1_0 + 1)
   0122 4E*00*00      [ 5]  242 	mov	*___SDCC_hc08_ret3,*_tancotf_sloc0_1_0
                            243 ;../tancotf.c:69: xden=x-xnum;
   0125 45r00r00      [ 3]  244 	ldhx	#___fssub_PARM_1
   0128 C6r00r00      [ 4]  245 	lda	_tancotf_PARM_1
   012B F7            [ 2]  246 	sta	,x
   012C C6r00r01      [ 4]  247 	lda	(_tancotf_PARM_1 + 1)
   012F E7 01         [ 3]  248 	sta	1,x
   0131 C6r00r02      [ 4]  249 	lda	(_tancotf_PARM_1 + 2)
   0134 E7 02         [ 3]  250 	sta	2,x
   0136 C6r00r03      [ 4]  251 	lda	(_tancotf_PARM_1 + 3)
   0139 E7 03         [ 3]  252 	sta	3,x
   013B 45r00r00      [ 3]  253 	ldhx	#___fssub_PARM_2
   013E 5E*00         [ 4]  254 	mov	*_tancotf_sloc0_1_0,x+
   0140 5E*01         [ 4]  255 	mov	*(_tancotf_sloc0_1_0 + 1),x+
   0142 5E*02         [ 4]  256 	mov	*(_tancotf_sloc0_1_0 + 2),x+
   0144 5E*03         [ 4]  257 	mov	*(_tancotf_sloc0_1_0 + 3),x+
                            258 ;../tancotf.c:70: f=((xnum-xn*C1)+xden)-xn*C2;
   0146 CDr00r00      [ 5]  259 	jsr	___fssub
   0149 B7*0B         [ 3]  260 	sta	*(_tancotf_sloc2_1_0 + 3)
   014B BF*0A         [ 3]  261 	stx	*(_tancotf_sloc2_1_0 + 2)
   014D 4E*00*09      [ 5]  262 	mov	*___SDCC_hc08_ret2,*(_tancotf_sloc2_1_0 + 1)
   0150 4E*00*08      [ 5]  263 	mov	*___SDCC_hc08_ret3,*_tancotf_sloc2_1_0
   0153 45r00r00      [ 3]  264 	ldhx	#___fsmul_PARM_1
   0156 A6 3F         [ 2]  265 	lda	#0x3F
   0158 F7            [ 2]  266 	sta	,x
   0159 A6 C9         [ 2]  267 	lda	#0xC9
   015B E7 01         [ 3]  268 	sta	1,x
   015D 4F            [ 1]  269 	clra
   015E E7 02         [ 3]  270 	sta	2,x
   0160 E7 03         [ 3]  271 	sta	3,x
   0162 45r00r00      [ 3]  272 	ldhx	#___fsmul_PARM_2
   0165 5E*04         [ 4]  273 	mov	*_tancotf_sloc1_1_0,x+
   0167 5E*05         [ 4]  274 	mov	*(_tancotf_sloc1_1_0 + 1),x+
   0169 5E*06         [ 4]  275 	mov	*(_tancotf_sloc1_1_0 + 2),x+
   016B 5E*07         [ 4]  276 	mov	*(_tancotf_sloc1_1_0 + 3),x+
   016D CDr00r00      [ 5]  277 	jsr	___fsmul
   0170 C7r00r03      [ 4]  278 	sta	(___fssub_PARM_2 + 3)
   0173 CFr00r02      [ 4]  279 	stx	(___fssub_PARM_2 + 2)
   0176 B6*00         [ 3]  280 	lda	*___SDCC_hc08_ret2
   0178 C7r00r01      [ 4]  281 	sta	(___fssub_PARM_2 + 1)
   017B B6*00         [ 3]  282 	lda	*___SDCC_hc08_ret3
   017D C7r00r00      [ 4]  283 	sta	___fssub_PARM_2
   0180 45r00r00      [ 3]  284 	ldhx	#___fssub_PARM_1
   0183 5E*00         [ 4]  285 	mov	*_tancotf_sloc0_1_0,x+
   0185 5E*01         [ 4]  286 	mov	*(_tancotf_sloc0_1_0 + 1),x+
   0187 5E*02         [ 4]  287 	mov	*(_tancotf_sloc0_1_0 + 2),x+
   0189 5E*03         [ 4]  288 	mov	*(_tancotf_sloc0_1_0 + 3),x+
   018B CDr00r00      [ 5]  289 	jsr	___fssub
   018E C7r00r03      [ 4]  290 	sta	(___fsadd_PARM_1 + 3)
   0191 CFr00r02      [ 4]  291 	stx	(___fsadd_PARM_1 + 2)
   0194 B6*00         [ 3]  292 	lda	*___SDCC_hc08_ret2
   0196 C7r00r01      [ 4]  293 	sta	(___fsadd_PARM_1 + 1)
   0199 B6*00         [ 3]  294 	lda	*___SDCC_hc08_ret3
   019B C7r00r00      [ 4]  295 	sta	___fsadd_PARM_1
   019E 45r00r00      [ 3]  296 	ldhx	#___fsadd_PARM_2
   01A1 5E*08         [ 4]  297 	mov	*_tancotf_sloc2_1_0,x+
   01A3 5E*09         [ 4]  298 	mov	*(_tancotf_sloc2_1_0 + 1),x+
   01A5 5E*0A         [ 4]  299 	mov	*(_tancotf_sloc2_1_0 + 2),x+
   01A7 5E*0B         [ 4]  300 	mov	*(_tancotf_sloc2_1_0 + 3),x+
   01A9 CDr00r00      [ 5]  301 	jsr	___fsadd
   01AC B7*0B         [ 3]  302 	sta	*(_tancotf_sloc2_1_0 + 3)
   01AE BF*0A         [ 3]  303 	stx	*(_tancotf_sloc2_1_0 + 2)
   01B0 4E*00*09      [ 5]  304 	mov	*___SDCC_hc08_ret2,*(_tancotf_sloc2_1_0 + 1)
   01B3 4E*00*08      [ 5]  305 	mov	*___SDCC_hc08_ret3,*_tancotf_sloc2_1_0
   01B6 45r00r00      [ 3]  306 	ldhx	#___fsmul_PARM_1
   01B9 A6 39         [ 2]  307 	lda	#0x39
   01BB F7            [ 2]  308 	sta	,x
   01BC A6 FD         [ 2]  309 	lda	#0xFD
   01BE E7 01         [ 3]  310 	sta	1,x
   01C0 A6 AA         [ 2]  311 	lda	#0xAA
   01C2 E7 02         [ 3]  312 	sta	2,x
   01C4 A6 22         [ 2]  313 	lda	#0x22
   01C6 E7 03         [ 3]  314 	sta	3,x
   01C8 45r00r00      [ 3]  315 	ldhx	#___fsmul_PARM_2
   01CB 5E*04         [ 4]  316 	mov	*_tancotf_sloc1_1_0,x+
   01CD 5E*05         [ 4]  317 	mov	*(_tancotf_sloc1_1_0 + 1),x+
   01CF 5E*06         [ 4]  318 	mov	*(_tancotf_sloc1_1_0 + 2),x+
   01D1 5E*07         [ 4]  319 	mov	*(_tancotf_sloc1_1_0 + 3),x+
   01D3 CDr00r00      [ 5]  320 	jsr	___fsmul
   01D6 C7r00r03      [ 4]  321 	sta	(___fssub_PARM_2 + 3)
   01D9 CFr00r02      [ 4]  322 	stx	(___fssub_PARM_2 + 2)
   01DC B6*00         [ 3]  323 	lda	*___SDCC_hc08_ret2
   01DE C7r00r01      [ 4]  324 	sta	(___fssub_PARM_2 + 1)
   01E1 B6*00         [ 3]  325 	lda	*___SDCC_hc08_ret3
   01E3 C7r00r00      [ 4]  326 	sta	___fssub_PARM_2
   01E6 45r00r00      [ 3]  327 	ldhx	#___fssub_PARM_1
   01E9 5E*08         [ 4]  328 	mov	*_tancotf_sloc2_1_0,x+
   01EB 5E*09         [ 4]  329 	mov	*(_tancotf_sloc2_1_0 + 1),x+
   01ED 5E*0A         [ 4]  330 	mov	*(_tancotf_sloc2_1_0 + 2),x+
   01EF 5E*0B         [ 4]  331 	mov	*(_tancotf_sloc2_1_0 + 3),x+
                            332 ;../tancotf.c:72: if (fabsf(f) < EPS)
   01F1 CDr00r00      [ 5]  333 	jsr	___fssub
   01F4 B7*0B         [ 3]  334 	sta	*(_tancotf_sloc2_1_0 + 3)
   01F6 BF*0A         [ 3]  335 	stx	*(_tancotf_sloc2_1_0 + 2)
   01F8 4E*00*09      [ 5]  336 	mov	*___SDCC_hc08_ret2,*(_tancotf_sloc2_1_0 + 1)
   01FB 4E*00*08      [ 5]  337 	mov	*___SDCC_hc08_ret3,*_tancotf_sloc2_1_0
   01FE B6*0B         [ 3]  338 	lda	*(_tancotf_sloc2_1_0 + 3)
   0200 87            [ 2]  339 	psha
   0201 B6*0A         [ 3]  340 	lda	*(_tancotf_sloc2_1_0 + 2)
   0203 87            [ 2]  341 	psha
   0204 B6*09         [ 3]  342 	lda	*(_tancotf_sloc2_1_0 + 1)
   0206 87            [ 2]  343 	psha
   0207 B6*08         [ 3]  344 	lda	*_tancotf_sloc2_1_0
   0209 87            [ 2]  345 	psha
   020A CDr00r00      [ 5]  346 	jsr	_fabsf
   020D C7r00r03      [ 4]  347 	sta	(___fslt_PARM_1 + 3)
   0210 CFr00r02      [ 4]  348 	stx	(___fslt_PARM_1 + 2)
   0213 B6*00         [ 3]  349 	lda	*___SDCC_hc08_ret2
   0215 C7r00r01      [ 4]  350 	sta	(___fslt_PARM_1 + 1)
   0218 B6*00         [ 3]  351 	lda	*___SDCC_hc08_ret3
   021A C7r00r00      [ 4]  352 	sta	___fslt_PARM_1
   021D A7 04         [ 2]  353 	ais	#4
   021F 45r00r00      [ 3]  354 	ldhx	#___fslt_PARM_2
   0222 A6 39         [ 2]  355 	lda	#0x39
   0224 F7            [ 2]  356 	sta	,x
   0225 A6 80         [ 2]  357 	lda	#0x80
   0227 E7 01         [ 3]  358 	sta	1,x
   0229 4F            [ 1]  359 	clra
   022A E7 02         [ 3]  360 	sta	2,x
   022C E7 03         [ 3]  361 	sta	3,x
   022E CDr00r00      [ 5]  362 	jsr	___fslt
   0231 B7*04         [ 3]  363 	sta	*_tancotf_sloc1_1_0
   0233 3D*04         [ 3]  364 	tst	*_tancotf_sloc1_1_0
   0235 27 1D         [ 3]  365 	beq	00104$
                            366 ;../tancotf.c:74: xnum = f;
   0237 45r00r05      [ 3]  367 	ldhx	#_tancotf_xnum_1_24
   023A 5E*08         [ 4]  368 	mov	*_tancotf_sloc2_1_0,x+
   023C 5E*09         [ 4]  369 	mov	*(_tancotf_sloc2_1_0 + 1),x+
   023E 5E*0A         [ 4]  370 	mov	*(_tancotf_sloc2_1_0 + 2),x+
   0240 5E*0B         [ 4]  371 	mov	*(_tancotf_sloc2_1_0 + 3),x+
                            372 ;../tancotf.c:75: xden = 1.0;
   0242 45r00r09      [ 3]  373 	ldhx	#_tancotf_xden_1_24
   0245 A6 3F         [ 2]  374 	lda	#0x3F
   0247 F7            [ 2]  375 	sta	,x
   0248 A6 80         [ 2]  376 	lda	#0x80
   024A E7 01         [ 3]  377 	sta	1,x
   024C 4F            [ 1]  378 	clra
   024D E7 02         [ 3]  379 	sta	2,x
   024F E7 03         [ 3]  380 	sta	3,x
   0251 CCr03r78      [ 3]  381 	jmp	00105$
   0254                     382 00104$:
                            383 ;../tancotf.c:79: g = f*f;
   0254 45r00r00      [ 3]  384 	ldhx	#___fsmul_PARM_1
   0257 5E*08         [ 4]  385 	mov	*_tancotf_sloc2_1_0,x+
   0259 5E*09         [ 4]  386 	mov	*(_tancotf_sloc2_1_0 + 1),x+
   025B 5E*0A         [ 4]  387 	mov	*(_tancotf_sloc2_1_0 + 2),x+
   025D 5E*0B         [ 4]  388 	mov	*(_tancotf_sloc2_1_0 + 3),x+
   025F 45r00r00      [ 3]  389 	ldhx	#___fsmul_PARM_2
   0262 5E*08         [ 4]  390 	mov	*_tancotf_sloc2_1_0,x+
   0264 5E*09         [ 4]  391 	mov	*(_tancotf_sloc2_1_0 + 1),x+
   0266 5E*0A         [ 4]  392 	mov	*(_tancotf_sloc2_1_0 + 2),x+
   0268 5E*0B         [ 4]  393 	mov	*(_tancotf_sloc2_1_0 + 3),x+
                            394 ;../tancotf.c:80: xnum = P(f,g);
   026A CDr00r00      [ 5]  395 	jsr	___fsmul
   026D B7*07         [ 3]  396 	sta	*(_tancotf_sloc1_1_0 + 3)
   026F BF*06         [ 3]  397 	stx	*(_tancotf_sloc1_1_0 + 2)
   0271 4E*00*05      [ 5]  398 	mov	*___SDCC_hc08_ret2,*(_tancotf_sloc1_1_0 + 1)
   0274 4E*00*04      [ 5]  399 	mov	*___SDCC_hc08_ret3,*_tancotf_sloc1_1_0
   0277 45r00r00      [ 3]  400 	ldhx	#___fsmul_PARM_1
   027A A6 BD         [ 2]  401 	lda	#0xBD
   027C F7            [ 2]  402 	sta	,x
   027D A6 C4         [ 2]  403 	lda	#0xC4
   027F E7 01         [ 3]  404 	sta	1,x
   0281 A6 33         [ 2]  405 	lda	#0x33
   0283 E7 02         [ 3]  406 	sta	2,x
   0285 A6 B8         [ 2]  407 	lda	#0xB8
   0287 E7 03         [ 3]  408 	sta	3,x
   0289 45r00r00      [ 3]  409 	ldhx	#___fsmul_PARM_2
   028C 5E*04         [ 4]  410 	mov	*_tancotf_sloc1_1_0,x+
   028E 5E*05         [ 4]  411 	mov	*(_tancotf_sloc1_1_0 + 1),x+
   0290 5E*06         [ 4]  412 	mov	*(_tancotf_sloc1_1_0 + 2),x+
   0292 5E*07         [ 4]  413 	mov	*(_tancotf_sloc1_1_0 + 3),x+
   0294 CDr00r00      [ 5]  414 	jsr	___fsmul
   0297 C7r00r03      [ 4]  415 	sta	(___fsmul_PARM_1 + 3)
   029A CFr00r02      [ 4]  416 	stx	(___fsmul_PARM_1 + 2)
   029D B6*00         [ 3]  417 	lda	*___SDCC_hc08_ret2
   029F C7r00r01      [ 4]  418 	sta	(___fsmul_PARM_1 + 1)
   02A2 B6*00         [ 3]  419 	lda	*___SDCC_hc08_ret3
   02A4 C7r00r00      [ 4]  420 	sta	___fsmul_PARM_1
   02A7 45r00r00      [ 3]  421 	ldhx	#___fsmul_PARM_2
   02AA 5E*08         [ 4]  422 	mov	*_tancotf_sloc2_1_0,x+
   02AC 5E*09         [ 4]  423 	mov	*(_tancotf_sloc2_1_0 + 1),x+
   02AE 5E*0A         [ 4]  424 	mov	*(_tancotf_sloc2_1_0 + 2),x+
   02B0 5E*0B         [ 4]  425 	mov	*(_tancotf_sloc2_1_0 + 3),x+
   02B2 CDr00r00      [ 5]  426 	jsr	___fsmul
   02B5 C7r00r03      [ 4]  427 	sta	(___fsadd_PARM_1 + 3)
   02B8 CFr00r02      [ 4]  428 	stx	(___fsadd_PARM_1 + 2)
   02BB B6*00         [ 3]  429 	lda	*___SDCC_hc08_ret2
   02BD C7r00r01      [ 4]  430 	sta	(___fsadd_PARM_1 + 1)
   02C0 B6*00         [ 3]  431 	lda	*___SDCC_hc08_ret3
   02C2 C7r00r00      [ 4]  432 	sta	___fsadd_PARM_1
   02C5 45r00r00      [ 3]  433 	ldhx	#___fsadd_PARM_2
   02C8 5E*08         [ 4]  434 	mov	*_tancotf_sloc2_1_0,x+
   02CA 5E*09         [ 4]  435 	mov	*(_tancotf_sloc2_1_0 + 1),x+
   02CC 5E*0A         [ 4]  436 	mov	*(_tancotf_sloc2_1_0 + 2),x+
   02CE 5E*0B         [ 4]  437 	mov	*(_tancotf_sloc2_1_0 + 3),x+
   02D0 CDr00r00      [ 5]  438 	jsr	___fsadd
   02D3 C7r00r08      [ 4]  439 	sta	(_tancotf_xnum_1_24 + 3)
   02D6 CFr00r07      [ 4]  440 	stx	(_tancotf_xnum_1_24 + 2)
   02D9 B6*00         [ 3]  441 	lda	*___SDCC_hc08_ret2
   02DB C7r00r06      [ 4]  442 	sta	(_tancotf_xnum_1_24 + 1)
   02DE B6*00         [ 3]  443 	lda	*___SDCC_hc08_ret3
   02E0 C7r00r05      [ 4]  444 	sta	_tancotf_xnum_1_24
                            445 ;../tancotf.c:81: xden = Q(g);
   02E3 45r00r00      [ 3]  446 	ldhx	#___fsmul_PARM_1
   02E6 A6 3C         [ 2]  447 	lda	#0x3C
   02E8 F7            [ 2]  448 	sta	,x
   02E9 A6 1F         [ 2]  449 	lda	#0x1F
   02EB E7 01         [ 3]  450 	sta	1,x
   02ED A6 33         [ 2]  451 	lda	#0x33
   02EF E7 02         [ 3]  452 	sta	2,x
   02F1 A6 75         [ 2]  453 	lda	#0x75
   02F3 E7 03         [ 3]  454 	sta	3,x
   02F5 45r00r00      [ 3]  455 	ldhx	#___fsmul_PARM_2
   02F8 5E*04         [ 4]  456 	mov	*_tancotf_sloc1_1_0,x+
   02FA 5E*05         [ 4]  457 	mov	*(_tancotf_sloc1_1_0 + 1),x+
   02FC 5E*06         [ 4]  458 	mov	*(_tancotf_sloc1_1_0 + 2),x+
   02FE 5E*07         [ 4]  459 	mov	*(_tancotf_sloc1_1_0 + 3),x+
   0300 CDr00r00      [ 5]  460 	jsr	___fsmul
   0303 C7r00r03      [ 4]  461 	sta	(___fsadd_PARM_1 + 3)
   0306 CFr00r02      [ 4]  462 	stx	(___fsadd_PARM_1 + 2)
   0309 B6*00         [ 3]  463 	lda	*___SDCC_hc08_ret2
   030B C7r00r01      [ 4]  464 	sta	(___fsadd_PARM_1 + 1)
   030E B6*00         [ 3]  465 	lda	*___SDCC_hc08_ret3
   0310 C7r00r00      [ 4]  466 	sta	___fsadd_PARM_1
   0313 45r00r00      [ 3]  467 	ldhx	#___fsadd_PARM_2
   0316 A6 BE         [ 2]  468 	lda	#0xBE
   0318 F7            [ 2]  469 	sta	,x
   0319 A6 DB         [ 2]  470 	lda	#0xDB
   031B E7 01         [ 3]  471 	sta	1,x
   031D A6 B7         [ 2]  472 	lda	#0xB7
   031F E7 02         [ 3]  473 	sta	2,x
   0321 A6 AF         [ 2]  474 	lda	#0xAF
   0323 E7 03         [ 3]  475 	sta	3,x
   0325 CDr00r00      [ 5]  476 	jsr	___fsadd
   0328 C7r00r03      [ 4]  477 	sta	(___fsmul_PARM_1 + 3)
   032B CFr00r02      [ 4]  478 	stx	(___fsmul_PARM_1 + 2)
   032E B6*00         [ 3]  479 	lda	*___SDCC_hc08_ret2
   0330 C7r00r01      [ 4]  480 	sta	(___fsmul_PARM_1 + 1)
   0333 B6*00         [ 3]  481 	lda	*___SDCC_hc08_ret3
   0335 C7r00r00      [ 4]  482 	sta	___fsmul_PARM_1
   0338 45r00r00      [ 3]  483 	ldhx	#___fsmul_PARM_2
   033B 5E*04         [ 4]  484 	mov	*_tancotf_sloc1_1_0,x+
   033D 5E*05         [ 4]  485 	mov	*(_tancotf_sloc1_1_0 + 1),x+
   033F 5E*06         [ 4]  486 	mov	*(_tancotf_sloc1_1_0 + 2),x+
   0341 5E*07         [ 4]  487 	mov	*(_tancotf_sloc1_1_0 + 3),x+
   0343 CDr00r00      [ 5]  488 	jsr	___fsmul
   0346 C7r00r03      [ 4]  489 	sta	(___fsadd_PARM_1 + 3)
   0349 CFr00r02      [ 4]  490 	stx	(___fsadd_PARM_1 + 2)
   034C B6*00         [ 3]  491 	lda	*___SDCC_hc08_ret2
   034E C7r00r01      [ 4]  492 	sta	(___fsadd_PARM_1 + 1)
   0351 B6*00         [ 3]  493 	lda	*___SDCC_hc08_ret3
   0353 C7r00r00      [ 4]  494 	sta	___fsadd_PARM_1
   0356 45r00r00      [ 3]  495 	ldhx	#___fsadd_PARM_2
   0359 A6 3F         [ 2]  496 	lda	#0x3F
   035B F7            [ 2]  497 	sta	,x
   035C A6 80         [ 2]  498 	lda	#0x80
   035E E7 01         [ 3]  499 	sta	1,x
   0360 4F            [ 1]  500 	clra
   0361 E7 02         [ 3]  501 	sta	2,x
   0363 E7 03         [ 3]  502 	sta	3,x
   0365 CDr00r00      [ 5]  503 	jsr	___fsadd
   0368 C7r00r0C      [ 4]  504 	sta	(_tancotf_xden_1_24 + 3)
   036B CFr00r0B      [ 4]  505 	stx	(_tancotf_xden_1_24 + 2)
   036E B6*00         [ 3]  506 	lda	*___SDCC_hc08_ret2
   0370 C7r00r0A      [ 4]  507 	sta	(_tancotf_xden_1_24 + 1)
   0373 B6*00         [ 3]  508 	lda	*___SDCC_hc08_ret3
   0375 C7r00r09      [ 4]  509 	sta	_tancotf_xden_1_24
   0378                     510 00105$:
                            511 ;../tancotf.c:84: if(n&1)
   0378 C6r00r0E      [ 4]  512 	lda	(_tancotf_n_1_24 + 1)
   037B A5 01         [ 2]  513 	bit	#0x01
   037D 26 03         [ 3]  514 	bne	00147$
   037F CCr04r17      [ 3]  515 	jmp	00113$
   0382                     516 00147$:
                            517 ;../tancotf.c:87: if(iscotan) return (-xnum/xden);
   0382 C6r00r04      [ 4]  518 	lda	_tancotf_PARM_2
   0385 27 48         [ 3]  519 	beq	00107$
   0387 C6r00r08      [ 4]  520 	lda	(_tancotf_xnum_1_24 + 3)
   038A C7r00r03      [ 4]  521 	sta	(___fsdiv_PARM_1 + 3)
   038D C6r00r07      [ 4]  522 	lda	(_tancotf_xnum_1_24 + 2)
   0390 C7r00r02      [ 4]  523 	sta	(___fsdiv_PARM_1 + 2)
   0393 C6r00r06      [ 4]  524 	lda	(_tancotf_xnum_1_24 + 1)
   0396 C7r00r01      [ 4]  525 	sta	(___fsdiv_PARM_1 + 1)
   0399 C6r00r05      [ 4]  526 	lda	_tancotf_xnum_1_24
   039C A8 80         [ 2]  527 	eor	#0x80
   039E C7r00r00      [ 4]  528 	sta	___fsdiv_PARM_1
   03A1 45r00r00      [ 3]  529 	ldhx	#___fsdiv_PARM_2
   03A4 C6r00r09      [ 4]  530 	lda	_tancotf_xden_1_24
   03A7 F7            [ 2]  531 	sta	,x
   03A8 C6r00r0A      [ 4]  532 	lda	(_tancotf_xden_1_24 + 1)
   03AB E7 01         [ 3]  533 	sta	1,x
   03AD C6r00r0B      [ 4]  534 	lda	(_tancotf_xden_1_24 + 2)
   03B0 E7 02         [ 3]  535 	sta	2,x
   03B2 C6r00r0C      [ 4]  536 	lda	(_tancotf_xden_1_24 + 3)
   03B5 E7 03         [ 3]  537 	sta	3,x
   03B7 CDr00r00      [ 5]  538 	jsr	___fsdiv
   03BA B7*0B         [ 3]  539 	sta	*(_tancotf_sloc2_1_0 + 3)
   03BC BF*0A         [ 3]  540 	stx	*(_tancotf_sloc2_1_0 + 2)
   03BE 4E*00*09      [ 5]  541 	mov	*___SDCC_hc08_ret2,*(_tancotf_sloc2_1_0 + 1)
   03C1 4E*00*08      [ 5]  542 	mov	*___SDCC_hc08_ret3,*_tancotf_sloc2_1_0
   03C4 4E*08*00      [ 5]  543 	mov	*_tancotf_sloc2_1_0,*___SDCC_hc08_ret3
   03C7 4E*09*00      [ 5]  544 	mov	*(_tancotf_sloc2_1_0 + 1),*___SDCC_hc08_ret2
   03CA BE*0A         [ 3]  545 	ldx	*(_tancotf_sloc2_1_0 + 2)
   03CC B6*0B         [ 3]  546 	lda	*(_tancotf_sloc2_1_0 + 3)
   03CE 81            [ 4]  547 	rts
   03CF                     548 00107$:
                            549 ;../tancotf.c:88: else return (-xden/xnum);
   03CF C6r00r0C      [ 4]  550 	lda	(_tancotf_xden_1_24 + 3)
   03D2 C7r00r03      [ 4]  551 	sta	(___fsdiv_PARM_1 + 3)
   03D5 C6r00r0B      [ 4]  552 	lda	(_tancotf_xden_1_24 + 2)
   03D8 C7r00r02      [ 4]  553 	sta	(___fsdiv_PARM_1 + 2)
   03DB C6r00r0A      [ 4]  554 	lda	(_tancotf_xden_1_24 + 1)
   03DE C7r00r01      [ 4]  555 	sta	(___fsdiv_PARM_1 + 1)
   03E1 C6r00r09      [ 4]  556 	lda	_tancotf_xden_1_24
   03E4 A8 80         [ 2]  557 	eor	#0x80
   03E6 C7r00r00      [ 4]  558 	sta	___fsdiv_PARM_1
   03E9 45r00r00      [ 3]  559 	ldhx	#___fsdiv_PARM_2
   03EC C6r00r05      [ 4]  560 	lda	_tancotf_xnum_1_24
   03EF F7            [ 2]  561 	sta	,x
   03F0 C6r00r06      [ 4]  562 	lda	(_tancotf_xnum_1_24 + 1)
   03F3 E7 01         [ 3]  563 	sta	1,x
   03F5 C6r00r07      [ 4]  564 	lda	(_tancotf_xnum_1_24 + 2)
   03F8 E7 02         [ 3]  565 	sta	2,x
   03FA C6r00r08      [ 4]  566 	lda	(_tancotf_xnum_1_24 + 3)
   03FD E7 03         [ 3]  567 	sta	3,x
   03FF CDr00r00      [ 5]  568 	jsr	___fsdiv
   0402 B7*0B         [ 3]  569 	sta	*(_tancotf_sloc2_1_0 + 3)
   0404 BF*0A         [ 3]  570 	stx	*(_tancotf_sloc2_1_0 + 2)
   0406 4E*00*09      [ 5]  571 	mov	*___SDCC_hc08_ret2,*(_tancotf_sloc2_1_0 + 1)
   0409 4E*00*08      [ 5]  572 	mov	*___SDCC_hc08_ret3,*_tancotf_sloc2_1_0
   040C 4E*08*00      [ 5]  573 	mov	*_tancotf_sloc2_1_0,*___SDCC_hc08_ret3
   040F 4E*09*00      [ 5]  574 	mov	*(_tancotf_sloc2_1_0 + 1),*___SDCC_hc08_ret2
   0412 BE*0A         [ 3]  575 	ldx	*(_tancotf_sloc2_1_0 + 2)
   0414 B6*0B         [ 3]  576 	lda	*(_tancotf_sloc2_1_0 + 3)
   0416 81            [ 4]  577 	rts
   0417                     578 00113$:
                            579 ;../tancotf.c:92: if(iscotan) return (xden/xnum);
   0417 C6r00r04      [ 4]  580 	lda	_tancotf_PARM_2
   041A 27 44         [ 3]  581 	beq	00110$
   041C 45r00r00      [ 3]  582 	ldhx	#___fsdiv_PARM_1
   041F C6r00r09      [ 4]  583 	lda	_tancotf_xden_1_24
   0422 F7            [ 2]  584 	sta	,x
   0423 C6r00r0A      [ 4]  585 	lda	(_tancotf_xden_1_24 + 1)
   0426 E7 01         [ 3]  586 	sta	1,x
   0428 C6r00r0B      [ 4]  587 	lda	(_tancotf_xden_1_24 + 2)
   042B E7 02         [ 3]  588 	sta	2,x
   042D C6r00r0C      [ 4]  589 	lda	(_tancotf_xden_1_24 + 3)
   0430 E7 03         [ 3]  590 	sta	3,x
   0432 45r00r00      [ 3]  591 	ldhx	#___fsdiv_PARM_2
   0435 C6r00r05      [ 4]  592 	lda	_tancotf_xnum_1_24
   0438 F7            [ 2]  593 	sta	,x
   0439 C6r00r06      [ 4]  594 	lda	(_tancotf_xnum_1_24 + 1)
   043C E7 01         [ 3]  595 	sta	1,x
   043E C6r00r07      [ 4]  596 	lda	(_tancotf_xnum_1_24 + 2)
   0441 E7 02         [ 3]  597 	sta	2,x
   0443 C6r00r08      [ 4]  598 	lda	(_tancotf_xnum_1_24 + 3)
   0446 E7 03         [ 3]  599 	sta	3,x
   0448 CDr00r00      [ 5]  600 	jsr	___fsdiv
   044B B7*0B         [ 3]  601 	sta	*(_tancotf_sloc2_1_0 + 3)
   044D BF*0A         [ 3]  602 	stx	*(_tancotf_sloc2_1_0 + 2)
   044F 4E*00*09      [ 5]  603 	mov	*___SDCC_hc08_ret2,*(_tancotf_sloc2_1_0 + 1)
   0452 4E*00*08      [ 5]  604 	mov	*___SDCC_hc08_ret3,*_tancotf_sloc2_1_0
   0455 4E*08*00      [ 5]  605 	mov	*_tancotf_sloc2_1_0,*___SDCC_hc08_ret3
   0458 4E*09*00      [ 5]  606 	mov	*(_tancotf_sloc2_1_0 + 1),*___SDCC_hc08_ret2
   045B BE*0A         [ 3]  607 	ldx	*(_tancotf_sloc2_1_0 + 2)
   045D B6*0B         [ 3]  608 	lda	*(_tancotf_sloc2_1_0 + 3)
   045F 81            [ 4]  609 	rts
   0460                     610 00110$:
                            611 ;../tancotf.c:93: else return (xnum/xden);
   0460 45r00r00      [ 3]  612 	ldhx	#___fsdiv_PARM_1
   0463 C6r00r05      [ 4]  613 	lda	_tancotf_xnum_1_24
   0466 F7            [ 2]  614 	sta	,x
   0467 C6r00r06      [ 4]  615 	lda	(_tancotf_xnum_1_24 + 1)
   046A E7 01         [ 3]  616 	sta	1,x
   046C C6r00r07      [ 4]  617 	lda	(_tancotf_xnum_1_24 + 2)
   046F E7 02         [ 3]  618 	sta	2,x
   0471 C6r00r08      [ 4]  619 	lda	(_tancotf_xnum_1_24 + 3)
   0474 E7 03         [ 3]  620 	sta	3,x
   0476 45r00r00      [ 3]  621 	ldhx	#___fsdiv_PARM_2
   0479 C6r00r09      [ 4]  622 	lda	_tancotf_xden_1_24
   047C F7            [ 2]  623 	sta	,x
   047D C6r00r0A      [ 4]  624 	lda	(_tancotf_xden_1_24 + 1)
   0480 E7 01         [ 3]  625 	sta	1,x
   0482 C6r00r0B      [ 4]  626 	lda	(_tancotf_xden_1_24 + 2)
   0485 E7 02         [ 3]  627 	sta	2,x
   0487 C6r00r0C      [ 4]  628 	lda	(_tancotf_xden_1_24 + 3)
   048A E7 03         [ 3]  629 	sta	3,x
   048C CDr00r00      [ 5]  630 	jsr	___fsdiv
   048F B7*0B         [ 3]  631 	sta	*(_tancotf_sloc2_1_0 + 3)
   0491 BF*0A         [ 3]  632 	stx	*(_tancotf_sloc2_1_0 + 2)
   0493 4E*00*09      [ 5]  633 	mov	*___SDCC_hc08_ret2,*(_tancotf_sloc2_1_0 + 1)
   0496 4E*00*08      [ 5]  634 	mov	*___SDCC_hc08_ret3,*_tancotf_sloc2_1_0
   0499 4E*08*00      [ 5]  635 	mov	*_tancotf_sloc2_1_0,*___SDCC_hc08_ret3
   049C 4E*09*00      [ 5]  636 	mov	*(_tancotf_sloc2_1_0 + 1),*___SDCC_hc08_ret2
   049F BE*0A         [ 3]  637 	ldx	*(_tancotf_sloc2_1_0 + 2)
   04A1 B6*0B         [ 3]  638 	lda	*(_tancotf_sloc2_1_0 + 3)
   04A3 81            [ 4]  639 	rts
                            640 	.area CSEG    (CODE)
                            641 	.area CONST   (CODE)
                            642 	.area XINIT   (CODE)
                            643 	.area CABS    (ABS,CODE)
