                              1 ;--------------------------------------------------------
                              2 ; File Created by SDCC : free open source ANSI-C Compiler
                              3 ; Version 3.5.0 #9253 (Apr  4 2022) (Linux)
                              4 ; This file was generated Mon Apr  4 14:16:02 2022
                              5 ;--------------------------------------------------------
                              6 	.module _strtok
                              7 	.optsdcc -mr2k
                              8 	
                              9 ;--------------------------------------------------------
                             10 ; Public variables in this module
                             11 ;--------------------------------------------------------
                             12 	.globl _strtok
                             13 ;--------------------------------------------------------
                             14 ; special function registers
                             15 ;--------------------------------------------------------
                             16 ;--------------------------------------------------------
                             17 ; ram data
                             18 ;--------------------------------------------------------
                             19 	.area _DATA
   0000                      20 _strtok_s_1_22:
   0000                      21 	.ds 2
                             22 ;--------------------------------------------------------
                             23 ; ram data
                             24 ;--------------------------------------------------------
                             25 	.area _INITIALIZED
                             26 ;--------------------------------------------------------
                             27 ; absolute external ram data
                             28 ;--------------------------------------------------------
                             29 	.area _DABS (ABS)
                             30 ;--------------------------------------------------------
                             31 ; global & static initialisations
                             32 ;--------------------------------------------------------
                             33 	.area _HOME
                             34 	.area _GSINIT
                             35 	.area _GSFINAL
                             36 	.area _GSINIT
                             37 ;--------------------------------------------------------
                             38 ; Home
                             39 ;--------------------------------------------------------
                             40 	.area _HOME
                             41 	.area _HOME
                             42 ;--------------------------------------------------------
                             43 ; code
                             44 ;--------------------------------------------------------
                             45 	.area _CODE
                             46 ;../_strtok.c:36: char * strtok ( char * str, const char * control )
                             47 ;	---------------------------------
                             48 ; Function strtok
                             49 ; ---------------------------------
   0000                      50 _strtok::
                             51 ;../_strtok.c:41: if ( str )
   0000 FD 21 02 00          52 	ld	iy,#2
   0004 FD 39                53 	add	iy,sp
   0006 FD 7E 01             54 	ld	a,1 (iy)
   0009 FD B6 00             55 	or	a,0 (iy)
   000C 28 0E                56 	jr	Z,00102$
                             57 ;../_strtok.c:42: s = str;
   000E FD 7E 00             58 	ld	a,0 (iy)
   0011 32r00r00             59 	ld	(#_strtok_s_1_22 + 0),a
   0014 21 03 00             60 	ld	hl, #2+1
   0017 39                   61 	add	hl, sp
   0018 7E                   62 	ld	a, (hl)
   0019 32r01r00             63 	ld	(#_strtok_s_1_22 + 1),a
   001C                      64 00102$:
                             65 ;../_strtok.c:43: if ( !s )
   001C 3Ar01r00             66 	ld	a,(#_strtok_s_1_22 + 1)
   001F FD 21r00r00          67 	ld	iy,#_strtok_s_1_22
   0023 FD B6 00             68 	or	a,0 (iy)
   0026 20 04                69 	jr	NZ,00108$
                             70 ;../_strtok.c:44: return NULL;
   0028 21 00 00             71 	ld	hl,#0x0000
   002B C9                   72 	ret
                             73 ;../_strtok.c:46: while (*s) {
   002C                      74 00108$:
   002C 2Ar00r00             75 	ld	hl,(_strtok_s_1_22)
   002F 7E                   76 	ld	a,(hl)
   0030 B7                   77 	or	a, a
   0031 28 26                78 	jr	Z,00110$
                             79 ;../_strtok.c:47: if (strchr(control,*s))
   0033 5F                   80 	ld	e,a
   0034 17                   81 	rla
   0035 9F                   82 	sbc	a, a
   0036 57                   83 	ld	d,a
   0037 C4 04                84 	ld	hl, 4 (sp)
   0039                      85 00158$:
   0039 7E                   86 	ld	a, (hl)
   003A BB                   87 	cp	a, e
   003B 28 06                88 	jr	Z,00157$
   003D B7                   89 	or	a, a
   003E 23                   90 	inc	hl
   003F 20 F8                91 	jr	NZ, 00158$
   0041 6F                   92 	ld	l, a
   0042 67                   93 	ld	h, a
   0043                      94 00157$:
   0043 7C                   95 	ld	a,h
   0044 B5                   96 	or	a,l
   0045 28 12                97 	jr	Z,00110$
                             98 ;../_strtok.c:48: s++;
   0047 FD 21r00r00          99 	ld	iy,#_strtok_s_1_22
   004B FD 34 00            100 	inc	0 (iy)
   004E 20 DC               101 	jr	NZ,00108$
   0050 FD 21r00r00         102 	ld	iy,#_strtok_s_1_22
   0054 FD 34 01            103 	inc	1 (iy)
   0057 18 D3               104 	jr	00108$
                            105 ;../_strtok.c:50: break;
   0059                     106 00110$:
                            107 ;../_strtok.c:53: s1 = s;
   0059 ED 5Br00r00         108 	ld	de,(_strtok_s_1_22)
                            109 ;../_strtok.c:55: while (*s) {
   005D                     110 00113$:
                            111 ;../_strtok.c:46: while (*s) {
   005D 2Ar00r00            112 	ld	hl,(_strtok_s_1_22)
   0060 7E                  113 	ld	a,(hl)
                            114 ;../_strtok.c:55: while (*s) {
   0061 B7                  115 	or	a, a
   0062 28 3C               116 	jr	Z,00115$
                            117 ;../_strtok.c:56: if (strchr(control,*s)) {
   0064 47                  118 	ld	b,a
   0065 17                  119 	rla
   0066 9F                  120 	sbc	a, a
   0067 C4 04               121 	ld	hl, 4 (sp)
   0069                     122 00161$:
   0069 7E                  123 	ld	a, (hl)
   006A B8                  124 	cp	a, b
   006B 28 06               125 	jr	Z,00160$
   006D B7                  126 	or	a, a
   006E 23                  127 	inc	hl
   006F 20 F8               128 	jr	NZ, 00161$
   0071 6F                  129 	ld	l, a
   0072 67                  130 	ld	h, a
   0073                     131 00160$:
   0073 7C                  132 	ld	a,h
   0074 B5                  133 	or	a,l
   0075 28 17               134 	jr	Z,00112$
                            135 ;../_strtok.c:57: *s++ = '\0';
   0077 2Ar00r00            136 	ld	hl,(_strtok_s_1_22)
   007A 36 00               137 	ld	(hl),#0x00
   007C FD 21r00r00         138 	ld	iy,#_strtok_s_1_22
   0080 FD 34 00            139 	inc	0 (iy)
   0083 20 07               140 	jr	NZ,00162$
   0085 FD 21r00r00         141 	ld	iy,#_strtok_s_1_22
   0089 FD 34 01            142 	inc	1 (iy)
   008C                     143 00162$:
                            144 ;../_strtok.c:58: return s1;
   008C EB                  145 	ex	de,hl
   008D C9                  146 	ret
   008E                     147 00112$:
                            148 ;../_strtok.c:60: s++ ;
   008E FD 21r00r00         149 	ld	iy,#_strtok_s_1_22
   0092 FD 34 00            150 	inc	0 (iy)
   0095 20 C6               151 	jr	NZ,00113$
   0097 FD 21r00r00         152 	ld	iy,#_strtok_s_1_22
   009B FD 34 01            153 	inc	1 (iy)
   009E 18 BD               154 	jr	00113$
   00A0                     155 00115$:
                            156 ;../_strtok.c:63: s = NULL;
   00A0 21 00 00            157 	ld	hl,#0x0000
   00A3 22r00r00            158 	ld	(_strtok_s_1_22),hl
                            159 ;../_strtok.c:65: if (*s1)
   00A6 1A                  160 	ld	a,(de)
   00A7 B7                  161 	or	a, a
   00A8 28 02               162 	jr	Z,00117$
                            163 ;../_strtok.c:66: return s1;
   00AA EB                  164 	ex	de,hl
   00AB C9                  165 	ret
   00AC                     166 00117$:
                            167 ;../_strtok.c:68: return NULL;
   00AC 21 00 00            168 	ld	hl,#0x0000
   00AF C9                  169 	ret
                            170 	.area _CODE
                            171 	.area _INITIALIZER
                            172 	.area _CABS (ABS)
