                              1 ;--------------------------------------------------------
                              2 ; File Created by SDCC : free open source ANSI-C Compiler
                              3 ; Version 3.5.0 #9253 (Apr  4 2022) (Linux)
                              4 ; This file was generated Mon Apr  4 14:15:58 2022
                              5 ;--------------------------------------------------------
                              6 	.module atanf
                              7 	.optsdcc -mr2k
                              8 	
                              9 ;--------------------------------------------------------
                             10 ; Public variables in this module
                             11 ;--------------------------------------------------------
                             12 	.globl _fabsf
                             13 	.globl _atanf
                             14 ;--------------------------------------------------------
                             15 ; special function registers
                             16 ;--------------------------------------------------------
                             17 ;--------------------------------------------------------
                             18 ; ram data
                             19 ;--------------------------------------------------------
                             20 	.area _DATA
                             21 ;--------------------------------------------------------
                             22 ; ram data
                             23 ;--------------------------------------------------------
                             24 	.area _INITIALIZED
                             25 ;--------------------------------------------------------
                             26 ; absolute external ram data
                             27 ;--------------------------------------------------------
                             28 	.area _DABS (ABS)
                             29 ;--------------------------------------------------------
                             30 ; global & static initialisations
                             31 ;--------------------------------------------------------
                             32 	.area _HOME
                             33 	.area _GSINIT
                             34 	.area _GSFINAL
                             35 	.area _GSINIT
                             36 ;--------------------------------------------------------
                             37 ; Home
                             38 ;--------------------------------------------------------
                             39 	.area _HOME
                             40 	.area _HOME
                             41 ;--------------------------------------------------------
                             42 ; code
                             43 ;--------------------------------------------------------
                             44 	.area _CODE
                             45 ;../atanf.c:55: float atanf(float x) _FLOAT_FUNC_REENTRANT
                             46 ;	---------------------------------
                             47 ; Function atanf
                             48 ; ---------------------------------
   0000                      49 _atanf::
   0000 DD E5                50 	push	ix
   0002 DD 21 00 00          51 	ld	ix,#0
   0006 DD 39                52 	add	ix,sp
   0008 27 F2                53 	add	sp, #-14
                             54 ;../atanf.c:58: int n=0;
   000A 21 00 00             55 	ld	hl,#0x0000
   000D D4 00                56 	ld	0 (sp), hl
                             57 ;../atanf.c:61: f=fabsf(x);
   000F C4 14                58 	ld	hl, 20 (sp)
   0011 E5                   59 	push	hl
   0012 C4 14                60 	ld	hl, 20 (sp)
   0014 E5                   61 	push	hl
   0015 CDr00r00             62 	call	_fabsf
   0018 27 04                63 	add	sp, #4
   001A DD 75 F8             64 	ld	-8 (ix),l
   001D DD 74 F9             65 	ld	-7 (ix),h
   0020 DD 73 FA             66 	ld	-6 (ix),e
   0023 DD 72 FB             67 	ld	-5 (ix),d
                             68 ;../atanf.c:62: if(f>1.0)
   0026 21 80 3F             69 	ld	hl,#0x3F80
   0029 E5                   70 	push	hl
   002A 21 00 00             71 	ld	hl,#0x0000
   002D E5                   72 	push	hl
   002E C4 0C                73 	ld	hl, 12 (sp)
   0030 E5                   74 	push	hl
   0031 C4 0C                75 	ld	hl, 12 (sp)
   0033 E5                   76 	push	hl
   0034 CDr00r00             77 	call	___fsgt
   0037 27 08                78 	add	sp, #8
   0039 7D                   79 	ld	a,l
   003A B7                   80 	or	a, a
   003B 28 24                81 	jr	Z,00102$
                             82 ;../atanf.c:64: f=1.0/f;
   003D C4 08                83 	ld	hl, 8 (sp)
   003F E5                   84 	push	hl
   0040 C4 08                85 	ld	hl, 8 (sp)
   0042 E5                   86 	push	hl
   0043 21 80 3F             87 	ld	hl,#0x3F80
   0046 E5                   88 	push	hl
   0047 21 00 00             89 	ld	hl,#0x0000
   004A E5                   90 	push	hl
   004B CDr00r00             91 	call	___fsdiv
   004E 27 08                92 	add	sp, #8
   0050 DD 75 F8             93 	ld	-8 (ix),l
   0053 DD 74 F9             94 	ld	-7 (ix),h
   0056 DD 73 FA             95 	ld	-6 (ix),e
   0059 DD 72 FB             96 	ld	-5 (ix),d
                             97 ;../atanf.c:65: n=2;
   005C 21 02 00             98 	ld	hl,#0x0002
   005F D4 00                99 	ld	0 (sp), hl
   0061                     100 00102$:
                            101 ;../atanf.c:67: if(f>K1)
   0061 21 89 3E            102 	ld	hl,#0x3E89
   0064 E5                  103 	push	hl
   0065 21 A3 30            104 	ld	hl,#0x30A3
   0068 E5                  105 	push	hl
   0069 C4 0C               106 	ld	hl, 12 (sp)
   006B E5                  107 	push	hl
   006C C4 0C               108 	ld	hl, 12 (sp)
   006E E5                  109 	push	hl
   006F CDr00r00            110 	call	___fsgt
   0072 27 08               111 	add	sp, #8
   0074 7D                  112 	ld	a,l
   0075 B7                  113 	or	a, a
   0076 CArEDr00            114 	jp	Z,00104$
                            115 ;../atanf.c:69: f=((K2*f-1.0)+f)/(K3+f);
   0079 C4 08               116 	ld	hl, 8 (sp)
   007B E5                  117 	push	hl
   007C C4 08               118 	ld	hl, 8 (sp)
   007E E5                  119 	push	hl
   007F 21 3B 3F            120 	ld	hl,#0x3F3B
   0082 E5                  121 	push	hl
   0083 21 AF 67            122 	ld	hl,#0x67AF
   0086 E5                  123 	push	hl
   0087 CDr00r00            124 	call	___fsmul
   008A 27 08               125 	add	sp, #8
   008C 4D                  126 	ld	c,l
   008D 44                  127 	ld	b,h
   008E 21 80 3F            128 	ld	hl,#0x3F80
   0091 E5                  129 	push	hl
   0092 21 00 00            130 	ld	hl,#0x0000
   0095 E5                  131 	push	hl
   0096 D5                  132 	push	de
   0097 C5                  133 	push	bc
   0098 CDr00r00            134 	call	___fssub
   009B 27 08               135 	add	sp, #8
   009D 4D                  136 	ld	c,l
   009E 44                  137 	ld	b,h
   009F C4 08               138 	ld	hl, 8 (sp)
   00A1 E5                  139 	push	hl
   00A2 C4 08               140 	ld	hl, 8 (sp)
   00A4 E5                  141 	push	hl
   00A5 D5                  142 	push	de
   00A6 C5                  143 	push	bc
   00A7 CDr00r00            144 	call	___fsadd
   00AA 27 08               145 	add	sp, #8
   00AC DD 72 FF            146 	ld	-1 (ix),d
   00AF DD 73 FE            147 	ld	-2 (ix),e
   00B2 DD 74 FD            148 	ld	-3 (ix),h
   00B5 DD 75 FC            149 	ld	-4 (ix),l
   00B8 21 DD 3F            150 	ld	hl,#0x3FDD
   00BB E5                  151 	push	hl
   00BC 21 D7 B3            152 	ld	hl,#0xB3D7
   00BF E5                  153 	push	hl
   00C0 C4 0C               154 	ld	hl, 12 (sp)
   00C2 E5                  155 	push	hl
   00C3 C4 0C               156 	ld	hl, 12 (sp)
   00C5 E5                  157 	push	hl
   00C6 CDr00r00            158 	call	___fsadd
   00C9 27 08               159 	add	sp, #8
   00CB EB                  160 	ex	de, hl
   00CC E5                  161 	push	hl
   00CD D5                  162 	push	de
   00CE C4 10               163 	ld	hl, 16 (sp)
   00D0 E5                  164 	push	hl
   00D1 C4 10               165 	ld	hl, 16 (sp)
   00D3 E5                  166 	push	hl
   00D4 CDr00r00            167 	call	___fsdiv
   00D7 27 08               168 	add	sp, #8
   00D9 DD 75 F8            169 	ld	-8 (ix),l
   00DC DD 74 F9            170 	ld	-7 (ix),h
   00DF DD 73 FA            171 	ld	-6 (ix),e
   00E2 DD 72 FB            172 	ld	-5 (ix),d
                            173 ;../atanf.c:73: n++;
   00E5 DD 34 F2            174 	inc	-14 (ix)
   00E8 20 03               175 	jr	NZ,00134$
   00EA DD 34 F3            176 	inc	-13 (ix)
   00ED                     177 00134$:
   00ED                     178 00104$:
                            179 ;../atanf.c:75: if(fabsf(f)<EPS) r=f;
   00ED C4 08               180 	ld	hl, 8 (sp)
   00EF E5                  181 	push	hl
   00F0 C4 08               182 	ld	hl, 8 (sp)
   00F2 E5                  183 	push	hl
   00F3 CDr00r00            184 	call	_fabsf
   00F6 27 04               185 	add	sp, #4
   00F8 4D                  186 	ld	c,l
   00F9 44                  187 	ld	b,h
   00FA 21 80 39            188 	ld	hl,#0x3980
   00FD E5                  189 	push	hl
   00FE 21 00 00            190 	ld	hl,#0x0000
   0101 E5                  191 	push	hl
   0102 D5                  192 	push	de
   0103 C5                  193 	push	bc
   0104 CDr00r00            194 	call	___fslt
   0107 27 08               195 	add	sp, #8
   0109 7D                  196 	ld	a,l
   010A B7                  197 	or	a, a
   010B 28 0F               198 	jr	Z,00106$
   010D DD 4E F8            199 	ld	c,-8 (ix)
   0110 DD 46 F9            200 	ld	b,-7 (ix)
   0113 DD 5E FA            201 	ld	e,-6 (ix)
   0116 DD 56 FB            202 	ld	d,-5 (ix)
   0119 C3rB8r01            203 	jp	00107$
   011C                     204 00106$:
                            205 ;../atanf.c:78: g=f*f;
   011C C4 08               206 	ld	hl, 8 (sp)
   011E E5                  207 	push	hl
   011F C4 08               208 	ld	hl, 8 (sp)
   0121 E5                  209 	push	hl
   0122 C4 0C               210 	ld	hl, 12 (sp)
   0124 E5                  211 	push	hl
   0125 C4 0C               212 	ld	hl, 12 (sp)
   0127 E5                  213 	push	hl
   0128 CDr00r00            214 	call	___fsmul
   012B 27 08               215 	add	sp, #8
   012D DD 75 F4            216 	ld	-12 (ix),l
   0130 DD 74 F5            217 	ld	-11 (ix),h
   0133 DD 73 F6            218 	ld	-10 (ix),e
   0136 DD 72 F7            219 	ld	-9 (ix),d
                            220 ;../atanf.c:79: r=f+P(g,f)/Q(g);
   0139 C4 04               221 	ld	hl, 4 (sp)
   013B E5                  222 	push	hl
   013C C4 04               223 	ld	hl, 4 (sp)
   013E E5                  224 	push	hl
   013F 21 50 BD            225 	ld	hl,#0xBD50
   0142 E5                  226 	push	hl
   0143 21 91 86            227 	ld	hl,#0x8691
   0146 E5                  228 	push	hl
   0147 CDr00r00            229 	call	___fsmul
   014A 27 08               230 	add	sp, #8
   014C 4D                  231 	ld	c,l
   014D 44                  232 	ld	b,h
   014E 21 F1 BE            233 	ld	hl,#0xBEF1
   0151 E5                  234 	push	hl
   0152 21 F6 10            235 	ld	hl,#0x10F6
   0155 E5                  236 	push	hl
   0156 D5                  237 	push	de
   0157 C5                  238 	push	bc
   0158 CDr00r00            239 	call	___fsadd
   015B 27 08               240 	add	sp, #8
   015D 4D                  241 	ld	c,l
   015E 44                  242 	ld	b,h
   015F C4 04               243 	ld	hl, 4 (sp)
   0161 E5                  244 	push	hl
   0162 C4 04               245 	ld	hl, 4 (sp)
   0164 E5                  246 	push	hl
   0165 D5                  247 	push	de
   0166 C5                  248 	push	bc
   0167 CDr00r00            249 	call	___fsmul
   016A 27 08               250 	add	sp, #8
   016C 4D                  251 	ld	c,l
   016D 44                  252 	ld	b,h
   016E C4 08               253 	ld	hl, 8 (sp)
   0170 E5                  254 	push	hl
   0171 C4 08               255 	ld	hl, 8 (sp)
   0173 E5                  256 	push	hl
   0174 D5                  257 	push	de
   0175 C5                  258 	push	bc
   0176 CDr00r00            259 	call	___fsmul
   0179 27 08               260 	add	sp, #8
   017B DD 72 FF            261 	ld	-1 (ix),d
   017E DD 73 FE            262 	ld	-2 (ix),e
   0181 DD 74 FD            263 	ld	-3 (ix),h
   0184 DD 75 FC            264 	ld	-4 (ix),l
   0187 21 B4 3F            265 	ld	hl,#0x3FB4
   018A E5                  266 	push	hl
   018B 21 D3 CC            267 	ld	hl,#0xCCD3
   018E E5                  268 	push	hl
   018F C4 08               269 	ld	hl, 8 (sp)
   0191 E5                  270 	push	hl
   0192 C4 08               271 	ld	hl, 8 (sp)
   0194 E5                  272 	push	hl
   0195 CDr00r00            273 	call	___fsadd
   0198 27 08               274 	add	sp, #8
   019A EB                  275 	ex	de, hl
   019B E5                  276 	push	hl
   019C D5                  277 	push	de
   019D C4 10               278 	ld	hl, 16 (sp)
   019F E5                  279 	push	hl
   01A0 C4 10               280 	ld	hl, 16 (sp)
   01A2 E5                  281 	push	hl
   01A3 CDr00r00            282 	call	___fsdiv
   01A6 27 08               283 	add	sp, #8
   01A8 EB                  284 	ex	de, hl
   01A9 E5                  285 	push	hl
   01AA D5                  286 	push	de
   01AB C4 0C               287 	ld	hl, 12 (sp)
   01AD E5                  288 	push	hl
   01AE C4 0C               289 	ld	hl, 12 (sp)
   01B0 E5                  290 	push	hl
   01B1 CDr00r00            291 	call	___fsadd
   01B4 27 08               292 	add	sp, #8
   01B6 4D                  293 	ld	c,l
   01B7 44                  294 	ld	b,h
   01B8                     295 00107$:
                            296 ;../atanf.c:81: if(n>1) r=-r;
   01B8 3E 01               297 	ld	a,#0x01
   01BA DD BE F2            298 	cp	a, -14 (ix)
   01BD 3E 00               299 	ld	a,#0x00
   01BF DD 9E F3            300 	sbc	a, -13 (ix)
   01C2 E2rC7r01            301 	jp	PO, 00135$
   01C5 EE 80               302 	xor	a, #0x80
   01C7                     303 00135$:
   01C7 F2rCEr01            304 	jp	P,00109$
   01CA 7A                  305 	ld	a,d
   01CB EE 80               306 	xor	a,#0x80
   01CD 57                  307 	ld	d,a
   01CE                     308 00109$:
                            309 ;../atanf.c:82: r+=a[n];
   01CE C4 00               310 	ld	hl, 0 (sp)
   01D0 29                  311 	add	hl, hl
   01D1 29                  312 	add	hl, hl
   01D2 3Er1E               313 	ld	a,#<(_atanf_a_1_24)
   01D4 85                  314 	add	a, l
   01D5 6F                  315 	ld	l,a
   01D6 3Es02               316 	ld	a,#>(_atanf_a_1_24)
   01D8 8C                  317 	adc	a, h
   01D9 67                  318 	ld	h,a
   01DA D5                  319 	push	de
   01DB C5                  320 	push	bc
   01DC EB                  321 	ex	de,hl
   01DD 21 0E 00            322 	ld	hl, #0x000E
   01E0 39                  323 	add	hl, sp
   01E1 EB                  324 	ex	de, hl
   01E2 01 04 00            325 	ld	bc, #0x0004
   01E5 ED B0               326 	ldir
   01E7 C1                  327 	pop	bc
   01E8 D1                  328 	pop	de
   01E9 C4 0C               329 	ld	hl, 12 (sp)
   01EB E5                  330 	push	hl
   01EC C4 0C               331 	ld	hl, 12 (sp)
   01EE E5                  332 	push	hl
   01EF D5                  333 	push	de
   01F0 C5                  334 	push	bc
   01F1 CDr00r00            335 	call	___fsadd
   01F4 27 08               336 	add	sp, #8
   01F6 45                  337 	ld	b,l
   01F7 4C                  338 	ld	c,h
                            339 ;../atanf.c:83: if(x<0.0) r=-r;
   01F8 C5                  340 	push	bc
   01F9 D5                  341 	push	de
   01FA 21 00 00            342 	ld	hl,#0x0000
   01FD E5                  343 	push	hl
   01FE 21 00 00            344 	ld	hl,#0x0000
   0201 E5                  345 	push	hl
   0202 C4 1C               346 	ld	hl, 28 (sp)
   0204 E5                  347 	push	hl
   0205 C4 1C               348 	ld	hl, 28 (sp)
   0207 E5                  349 	push	hl
   0208 CDr00r00            350 	call	___fslt
   020B 27 08               351 	add	sp, #8
   020D 7D                  352 	ld	a,l
   020E D1                  353 	pop	de
   020F C1                  354 	pop	bc
   0210 B7                  355 	or	a, a
   0211 28 04               356 	jr	Z,00111$
   0213 7A                  357 	ld	a,d
   0214 EE 80               358 	xor	a,#0x80
   0216 57                  359 	ld	d,a
   0217                     360 00111$:
                            361 ;../atanf.c:84: return r;
   0217 68                  362 	ld	l,b
   0218 61                  363 	ld	h,c
   0219 DD F9               364 	ld	sp, ix
   021B DD E1               365 	pop	ix
   021D C9                  366 	ret
   021E                     367 _atanf_a_1_24:
   021E 00 00 00 00         368 	.byte #0x00,#0x00,#0x00,#0x00	;  0.000000e+00
   0222 92 0A 06 3F         369 	.byte #0x92,#0x0A,#0x06,#0x3F	;  5.235988e-01
   0226 DB 0F C9 3F         370 	.byte #0xDB,#0x0F,#0xC9,#0x3F	;  1.570796e+00
   022A 92 0A 86 3F         371 	.byte #0x92,#0x0A,#0x86,#0x3F	;  1.047198e+00
                            372 	.area _CODE
                            373 	.area _INITIALIZER
                            374 	.area _CABS (ABS)
