                              1 ;--------------------------------------------------------
                              2 ; File Created by SDCC : free open source ANSI-C Compiler
                              3 ; Version 3.5.0 #9253 (Apr  4 2022) (Linux)
                              4 ; This file was generated Mon Apr  4 14:15:56 2022
                              5 ;--------------------------------------------------------
                              6 	.module expf
                              7 	.optsdcc -mr2k
                              8 	
                              9 ;--------------------------------------------------------
                             10 ; Public variables in this module
                             11 ;--------------------------------------------------------
                             12 	.globl _ldexpf
                             13 	.globl _expf
                             14 ;--------------------------------------------------------
                             15 ; special function registers
                             16 ;--------------------------------------------------------
                             17 ;--------------------------------------------------------
                             18 ; ram data
                             19 ;--------------------------------------------------------
                             20 	.area _DATA
                             21 ;--------------------------------------------------------
                             22 ; ram data
                             23 ;--------------------------------------------------------
                             24 	.area _INITIALIZED
                             25 ;--------------------------------------------------------
                             26 ; absolute external ram data
                             27 ;--------------------------------------------------------
                             28 	.area _DABS (ABS)
                             29 ;--------------------------------------------------------
                             30 ; global & static initialisations
                             31 ;--------------------------------------------------------
                             32 	.area _HOME
                             33 	.area _GSINIT
                             34 	.area _GSFINAL
                             35 	.area _GSINIT
                             36 ;--------------------------------------------------------
                             37 ; Home
                             38 ;--------------------------------------------------------
                             39 	.area _HOME
                             40 	.area _HOME
                             41 ;--------------------------------------------------------
                             42 ; code
                             43 ;--------------------------------------------------------
                             44 	.area _CODE
                             45 ;../expf.c:330: float expf(float x) _FLOAT_FUNC_REENTRANT
                             46 ;	---------------------------------
                             47 ; Function expf
                             48 ; ---------------------------------
   0000                      49 _expf::
   0000 DD E5                50 	push	ix
   0002 DD 21 00 00          51 	ld	ix,#0
   0006 DD 39                52 	add	ix,sp
   0008 27 DE                53 	add	sp, #-34
                             54 ;../expf.c:336: if(x>=0.0)
   000A 21 00 00             55 	ld	hl,#0x0000
   000D E5                   56 	push	hl
   000E 21 00 00             57 	ld	hl,#0x0000
   0011 E5                   58 	push	hl
   0012 C4 2C                59 	ld	hl, 44 (sp)
   0014 E5                   60 	push	hl
   0015 C4 2C                61 	ld	hl, 44 (sp)
   0017 E5                   62 	push	hl
   0018 CDr00r00             63 	call	___fslt
   001B 27 08                64 	add	sp, #8
   001D DD 75 F5             65 	ld	-11 (ix), l
   0020 7D                   66 	ld	a, l
   0021 B7                   67 	or	a, a
   0022 20 14                68 	jr	NZ,00102$
                             69 ;../expf.c:337: { y=x;  sign=0; }
   0024 21 01 00             70 	ld	hl, #1
   0027 39                   71 	add	hl, sp
   0028 EB                   72 	ex	de, hl
   0029 21 26 00             73 	ld	hl, #38
   002C 39                   74 	add	hl, sp
   002D 01 04 00             75 	ld	bc, #4
   0030 ED B0                76 	ldir
   0032 DD 36 DE 00          77 	ld	-34 (ix),#0x00
   0036 18 2C                78 	jr	00103$
   0038                      79 00102$:
                             80 ;../expf.c:339: { y=-x; sign=1; }
   0038 DD 7E 07             81 	ld	a,7 (ix)
   003B EE 80                82 	xor	a,#0x80
   003D DD 77 FF             83 	ld	-1 (ix),a
   0040 DD 7E 04             84 	ld	a,4 (ix)
   0043 DD 77 FC             85 	ld	-4 (ix),a
   0046 DD 7E 05             86 	ld	a,5 (ix)
   0049 DD 77 FD             87 	ld	-3 (ix),a
   004C DD 7E 06             88 	ld	a,6 (ix)
   004F DD 77 FE             89 	ld	-2 (ix),a
   0052 21 01 00             90 	ld	hl, #1
   0055 39                   91 	add	hl, sp
   0056 EB                   92 	ex	de, hl
   0057 21 1E 00             93 	ld	hl, #30
   005A 39                   94 	add	hl, sp
   005B 01 04 00             95 	ld	bc, #4
   005E ED B0                96 	ldir
   0060 DD 36 DE 01          97 	ld	-34 (ix),#0x01
   0064                      98 00103$:
                             99 ;../expf.c:341: if(y<EXPEPS) return 1.0;
   0064 21 D6 33            100 	ld	hl,#0x33D6
   0067 E5                  101 	push	hl
   0068 21 95 BF            102 	ld	hl,#0xBF95
   006B E5                  103 	push	hl
   006C C4 07               104 	ld	hl, 7 (sp)
   006E E5                  105 	push	hl
   006F C4 07               106 	ld	hl, 7 (sp)
   0071 E5                  107 	push	hl
   0072 CDr00r00            108 	call	___fslt
   0075 27 08               109 	add	sp, #8
   0077 DD 75 FC            110 	ld	-4 (ix), l
   007A 7D                  111 	ld	a, l
   007B B7                  112 	or	a, a
   007C 28 09               113 	jr	Z,00105$
   007E 21 00 00            114 	ld	hl,#0x0000
   0081 11 80 3F            115 	ld	de,#0x3F80
   0084 C3r23r03            116 	jp	00118$
   0087                     117 00105$:
                            118 ;../expf.c:343: if(y>BIGX)
   0087 21 B1 42            119 	ld	hl,#0x42B1
   008A E5                  120 	push	hl
   008B 21 18 72            121 	ld	hl,#0x7218
   008E E5                  122 	push	hl
   008F C4 07               123 	ld	hl, 7 (sp)
   0091 E5                  124 	push	hl
   0092 C4 07               125 	ld	hl, 7 (sp)
   0094 E5                  126 	push	hl
   0095 CDr00r00            127 	call	___fsgt
   0098 27 08               128 	add	sp, #8
   009A 7D                  129 	ld	a,l
   009B B7                  130 	or	a, a
   009C 28 1D               131 	jr	Z,00110$
                            132 ;../expf.c:345: if(sign)
   009E DD CB DE 46         133 	bit	0,-34 (ix)
   00A2 28 0F               134 	jr	Z,00107$
                            135 ;../expf.c:347: errno=ERANGE;
   00A4 21 22 00            136 	ld	hl,#0x0022
   00A7 22r00r00            137 	ld	(_errno),hl
                            138 ;../expf.c:349: ;
   00AA 21 FF FF            139 	ld	hl,#0xFFFF
   00AD 11 7F 7F            140 	ld	de,#0x7F7F
   00B0 C3r23r03            141 	jp	00118$
   00B3                     142 00107$:
                            143 ;../expf.c:353: return 0.0;
   00B3 21 00 00            144 	ld	hl,#0x0000
   00B6 5D                  145 	ld	e,l
   00B7 54                  146 	ld	d,h
   00B8 C3r23r03            147 	jp	00118$
   00BB                     148 00110$:
                            149 ;../expf.c:357: z=y*K1;
   00BB C4 03               150 	ld	hl, 3 (sp)
   00BD E5                  151 	push	hl
   00BE C4 03               152 	ld	hl, 3 (sp)
   00C0 E5                  153 	push	hl
   00C1 21 B8 3F            154 	ld	hl,#0x3FB8
   00C4 E5                  155 	push	hl
   00C5 21 3B AA            156 	ld	hl,#0xAA3B
   00C8 E5                  157 	push	hl
   00C9 CDr00r00            158 	call	___fsmul
   00CC 27 08               159 	add	sp, #8
   00CE DD 72 E6            160 	ld	-26 (ix),d
   00D1 DD 73 E5            161 	ld	-27 (ix),e
   00D4 DD 74 E4            162 	ld	-28 (ix),h
   00D7 DD 75 E3            163 	ld	-29 (ix),l
   00DA 21 1E 00            164 	ld	hl, #30
   00DD 39                  165 	add	hl, sp
   00DE EB                  166 	ex	de, hl
   00DF 21 05 00            167 	ld	hl, #5
   00E2 39                  168 	add	hl, sp
   00E3 01 04 00            169 	ld	bc, #4
   00E6 ED B0               170 	ldir
                            171 ;../expf.c:358: n=z;
   00E8 C4 20               172 	ld	hl, 32 (sp)
   00EA E5                  173 	push	hl
   00EB C4 20               174 	ld	hl, 32 (sp)
   00ED E5                  175 	push	hl
   00EE CDr00r00            176 	call	___fs2sint
   00F1 27 04               177 	add	sp, #4
   00F3 DD 74 F4            178 	ld	-12 (ix),h
   00F6 DD 75 F3            179 	ld	-13 (ix), l
   00F9 DD 75 FA            180 	ld	-6 (ix), l
   00FC DD 7E F4            181 	ld	a,-12 (ix)
   00FF DD 77 FB            182 	ld	-5 (ix),a
                            183 ;../expf.c:360: if(n<0) --n;
   0102 DD CB FB 7E         184 	bit	7, -5 (ix)
   0106 28 05               185 	jr	Z,00112$
   0108 C4 1C               186 	ld	hl, 28 (sp)
   010A 2B                  187 	dec	hl
   010B D4 1C               188 	ld	28 (sp), hl
   010D                     189 00112$:
                            190 ;../expf.c:361: if(z-n>=0.5) ++n;
   010D C4 1C               191 	ld	hl, 28 (sp)
   010F E5                  192 	push	hl
   0110 CDr00r00            193 	call	___sint2fs
   0113 27 02               194 	add	sp, #2
   0115 DD 72 F9            195 	ld	-7 (ix),d
   0118 DD 73 F8            196 	ld	-8 (ix),e
   011B DD 74 F7            197 	ld	-9 (ix),h
   011E DD 75 F6            198 	ld	-10 (ix),l
   0121 C4 1A               199 	ld	hl, 26 (sp)
   0123 E5                  200 	push	hl
   0124 C4 1A               201 	ld	hl, 26 (sp)
   0126 E5                  202 	push	hl
   0127 C4 24               203 	ld	hl, 36 (sp)
   0129 E5                  204 	push	hl
   012A C4 24               205 	ld	hl, 36 (sp)
   012C E5                  206 	push	hl
   012D CDr00r00            207 	call	___fssub
   0130 27 08               208 	add	sp, #8
   0132 DD 72 F9            209 	ld	-7 (ix),d
   0135 DD 73 F8            210 	ld	-8 (ix),e
   0138 DD 74 F7            211 	ld	-9 (ix),h
   013B DD 75 F6            212 	ld	-10 (ix),l
   013E 21 00 3F            213 	ld	hl,#0x3F00
   0141 E5                  214 	push	hl
   0142 21 00 00            215 	ld	hl,#0x0000
   0145 E5                  216 	push	hl
   0146 C4 1E               217 	ld	hl, 30 (sp)
   0148 E5                  218 	push	hl
   0149 C4 1E               219 	ld	hl, 30 (sp)
   014B E5                  220 	push	hl
   014C CDr00r00            221 	call	___fslt
   014F 27 08               222 	add	sp, #8
   0151 7D                  223 	ld	a,l
   0152 B7                  224 	or	a, a
   0153 20 08               225 	jr	NZ,00114$
   0155 DD 34 FA            226 	inc	-6 (ix)
   0158 20 03               227 	jr	NZ,00148$
   015A DD 34 FB            228 	inc	-5 (ix)
   015D                     229 00148$:
   015D                     230 00114$:
                            231 ;../expf.c:362: xn=n;
   015D C4 1C               232 	ld	hl, 28 (sp)
   015F E5                  233 	push	hl
   0160 CDr00r00            234 	call	___sint2fs
   0163 27 02               235 	add	sp, #2
   0165 DD 75 EF            236 	ld	-17 (ix),l
   0168 DD 74 F0            237 	ld	-16 (ix),h
   016B DD 73 F1            238 	ld	-15 (ix),e
   016E DD 72 F2            239 	ld	-14 (ix),d
                            240 ;../expf.c:363: g=((y-xn*C1))-xn*C2;
   0171 C4 13               241 	ld	hl, 19 (sp)
   0173 E5                  242 	push	hl
   0174 C4 13               243 	ld	hl, 19 (sp)
   0176 E5                  244 	push	hl
   0177 21 31 3F            245 	ld	hl,#0x3F31
   017A E5                  246 	push	hl
   017B 21 00 80            247 	ld	hl,#0x8000
   017E E5                  248 	push	hl
   017F CDr00r00            249 	call	___fsmul
   0182 27 08               250 	add	sp, #8
   0184 EB                  251 	ex	de, hl
   0185 E5                  252 	push	hl
   0186 D5                  253 	push	de
   0187 C4 07               254 	ld	hl, 7 (sp)
   0189 E5                  255 	push	hl
   018A C4 07               256 	ld	hl, 7 (sp)
   018C E5                  257 	push	hl
   018D CDr00r00            258 	call	___fssub
   0190 27 08               259 	add	sp, #8
   0192 DD 72 F9            260 	ld	-7 (ix),d
   0195 DD 73 F8            261 	ld	-8 (ix),e
   0198 DD 74 F7            262 	ld	-9 (ix),h
   019B DD 75 F6            263 	ld	-10 (ix),l
   019E C4 13               264 	ld	hl, 19 (sp)
   01A0 E5                  265 	push	hl
   01A1 C4 13               266 	ld	hl, 19 (sp)
   01A3 E5                  267 	push	hl
   01A4 21 5E B9            268 	ld	hl,#0xB95E
   01A7 E5                  269 	push	hl
   01A8 21 83 80            270 	ld	hl,#0x8083
   01AB E5                  271 	push	hl
   01AC CDr00r00            272 	call	___fsmul
   01AF 27 08               273 	add	sp, #8
   01B1 EB                  274 	ex	de, hl
   01B2 E5                  275 	push	hl
   01B3 D5                  276 	push	de
   01B4 C4 1E               277 	ld	hl, 30 (sp)
   01B6 E5                  278 	push	hl
   01B7 C4 1E               279 	ld	hl, 30 (sp)
   01B9 E5                  280 	push	hl
   01BA CDr00r00            281 	call	___fssub
   01BD 27 08               282 	add	sp, #8
   01BF DD 72 EE            283 	ld	-18 (ix),d
   01C2 DD 73 ED            284 	ld	-19 (ix),e
   01C5 DD 74 EC            285 	ld	-20 (ix),h
   01C8 DD 75 EB            286 	ld	-21 (ix),l
                            287 ;../expf.c:364: z=g*g;
   01CB C4 0F               288 	ld	hl, 15 (sp)
   01CD E5                  289 	push	hl
   01CE C4 0F               290 	ld	hl, 15 (sp)
   01D0 E5                  291 	push	hl
   01D1 C4 13               292 	ld	hl, 19 (sp)
   01D3 E5                  293 	push	hl
   01D4 C4 13               294 	ld	hl, 19 (sp)
   01D6 E5                  295 	push	hl
   01D7 CDr00r00            296 	call	___fsmul
   01DA 27 08               297 	add	sp, #8
   01DC DD 75 E3            298 	ld	-29 (ix),l
   01DF DD 74 E4            299 	ld	-28 (ix),h
   01E2 DD 73 E5            300 	ld	-27 (ix),e
   01E5 DD 72 E6            301 	ld	-26 (ix),d
                            302 ;../expf.c:365: r=P(z)*g;
   01E8 C4 07               303 	ld	hl, 7 (sp)
   01EA E5                  304 	push	hl
   01EB C4 07               305 	ld	hl, 7 (sp)
   01ED E5                  306 	push	hl
   01EE 21 88 3B            307 	ld	hl,#0x3B88
   01F1 E5                  308 	push	hl
   01F2 21 08 53            309 	ld	hl,#0x5308
   01F5 E5                  310 	push	hl
   01F6 CDr00r00            311 	call	___fsmul
   01F9 27 08               312 	add	sp, #8
   01FB 4D                  313 	ld	c,l
   01FC 44                  314 	ld	b,h
   01FD 21 80 3E            315 	ld	hl,#0x3E80
   0200 E5                  316 	push	hl
   0201 21 00 00            317 	ld	hl,#0x0000
   0204 E5                  318 	push	hl
   0205 D5                  319 	push	de
   0206 C5                  320 	push	bc
   0207 CDr00r00            321 	call	___fsadd
   020A 27 08               322 	add	sp, #8
   020C DD 72 F9            323 	ld	-7 (ix),d
   020F DD 73 F8            324 	ld	-8 (ix),e
   0212 DD 74 F7            325 	ld	-9 (ix),h
   0215 DD 75 F6            326 	ld	-10 (ix),l
   0218 C4 0F               327 	ld	hl, 15 (sp)
   021A E5                  328 	push	hl
   021B C4 0F               329 	ld	hl, 15 (sp)
   021D E5                  330 	push	hl
   021E C4 1E               331 	ld	hl, 30 (sp)
   0220 E5                  332 	push	hl
   0221 C4 1E               333 	ld	hl, 30 (sp)
   0223 E5                  334 	push	hl
   0224 CDr00r00            335 	call	___fsmul
   0227 27 08               336 	add	sp, #8
   0229 DD 72 EA            337 	ld	-22 (ix),d
   022C DD 73 E9            338 	ld	-23 (ix),e
   022F DD 74 E8            339 	ld	-24 (ix),h
   0232 DD 75 E7            340 	ld	-25 (ix),l
   0235 21 18 00            341 	ld	hl, #24
   0238 39                  342 	add	hl, sp
   0239 EB                  343 	ex	de, hl
   023A 21 09 00            344 	ld	hl, #9
   023D 39                  345 	add	hl, sp
   023E 01 04 00            346 	ld	bc, #4
   0241 ED B0               347 	ldir
                            348 ;../expf.c:366: r=0.5+(r/(Q(z)-r));
   0243 C4 07               349 	ld	hl, 7 (sp)
   0245 E5                  350 	push	hl
   0246 C4 07               351 	ld	hl, 7 (sp)
   0248 E5                  352 	push	hl
   0249 21 4C 3D            353 	ld	hl,#0x3D4C
   024C E5                  354 	push	hl
   024D 21 5B BF            355 	ld	hl,#0xBF5B
   0250 E5                  356 	push	hl
   0251 CDr00r00            357 	call	___fsmul
   0254 27 08               358 	add	sp, #8
   0256 4D                  359 	ld	c,l
   0257 44                  360 	ld	b,h
   0258 21 00 3F            361 	ld	hl,#0x3F00
   025B E5                  362 	push	hl
   025C 21 00 00            363 	ld	hl,#0x0000
   025F E5                  364 	push	hl
   0260 D5                  365 	push	de
   0261 C5                  366 	push	bc
   0262 CDr00r00            367 	call	___fsadd
   0265 27 08               368 	add	sp, #8
   0267 4D                  369 	ld	c,l
   0268 44                  370 	ld	b,h
   0269 C4 1A               371 	ld	hl, 26 (sp)
   026B E5                  372 	push	hl
   026C C4 1A               373 	ld	hl, 26 (sp)
   026E E5                  374 	push	hl
   026F D5                  375 	push	de
   0270 C5                  376 	push	bc
   0271 CDr00r00            377 	call	___fssub
   0274 27 08               378 	add	sp, #8
   0276 EB                  379 	ex	de, hl
   0277 E5                  380 	push	hl
   0278 D5                  381 	push	de
   0279 C4 1E               382 	ld	hl, 30 (sp)
   027B E5                  383 	push	hl
   027C C4 1E               384 	ld	hl, 30 (sp)
   027E E5                  385 	push	hl
   027F CDr00r00            386 	call	___fsdiv
   0282 27 08               387 	add	sp, #8
   0284 DD 72 F9            388 	ld	-7 (ix),d
   0287 DD 73 F8            389 	ld	-8 (ix),e
   028A DD 74 F7            390 	ld	-9 (ix),h
   028D DD 75 F6            391 	ld	-10 (ix),l
   0290 21 00 3F            392 	ld	hl,#0x3F00
   0293 E5                  393 	push	hl
   0294 21 00 00            394 	ld	hl,#0x0000
   0297 E5                  395 	push	hl
   0298 C4 1E               396 	ld	hl, 30 (sp)
   029A E5                  397 	push	hl
   029B C4 1E               398 	ld	hl, 30 (sp)
   029D E5                  399 	push	hl
   029E CDr00r00            400 	call	___fsadd
   02A1 27 08               401 	add	sp, #8
   02A3 DD 72 F9            402 	ld	-7 (ix),d
   02A6 DD 73 F8            403 	ld	-8 (ix),e
   02A9 DD 74 F7            404 	ld	-9 (ix),h
   02AC DD 75 F6            405 	ld	-10 (ix),l
   02AF 21 09 00            406 	ld	hl, #9
   02B2 39                  407 	add	hl, sp
   02B3 EB                  408 	ex	de, hl
   02B4 21 18 00            409 	ld	hl, #24
   02B7 39                  410 	add	hl, sp
   02B8 01 04 00            411 	ld	bc, #4
   02BB ED B0               412 	ldir
                            413 ;../expf.c:368: n++;
   02BD DD 7E FA            414 	ld	a,-6 (ix)
   02C0 C6 01               415 	add	a, #0x01
   02C2 DD 77 F3            416 	ld	-13 (ix),a
   02C5 DD 7E FB            417 	ld	a,-5 (ix)
   02C8 CE 00               418 	adc	a, #0x00
   02CA DD 77 F4            419 	ld	-12 (ix),a
                            420 ;../expf.c:369: z=ldexpf(r, n);
   02CD C4 15               421 	ld	hl, 21 (sp)
   02CF E5                  422 	push	hl
   02D0 C4 0D               423 	ld	hl, 13 (sp)
   02D2 E5                  424 	push	hl
   02D3 C4 0D               425 	ld	hl, 13 (sp)
   02D5 E5                  426 	push	hl
   02D6 CDr00r00            427 	call	_ldexpf
   02D9 27 06               428 	add	sp, #6
   02DB DD 72 F9            429 	ld	-7 (ix),d
   02DE DD 73 F8            430 	ld	-8 (ix),e
   02E1 DD 74 F7            431 	ld	-9 (ix),h
   02E4 DD 75 F6            432 	ld	-10 (ix),l
                            433 ;../expf.c:370: if(sign)
   02E7 DD CB DE 46         434 	bit	0,-34 (ix)
   02EB 28 2A               435 	jr	Z,00116$
                            436 ;../expf.c:371: return 1.0/z;
   02ED C4 1A               437 	ld	hl, 26 (sp)
   02EF E5                  438 	push	hl
   02F0 C4 1A               439 	ld	hl, 26 (sp)
   02F2 E5                  440 	push	hl
   02F3 21 80 3F            441 	ld	hl,#0x3F80
   02F6 E5                  442 	push	hl
   02F7 21 00 00            443 	ld	hl,#0x0000
   02FA E5                  444 	push	hl
   02FB CDr00r00            445 	call	___fsdiv
   02FE 27 08               446 	add	sp, #8
   0300 DD 72 FF            447 	ld	-1 (ix),d
   0303 DD 73 FE            448 	ld	-2 (ix),e
   0306 DD 74 FD            449 	ld	-3 (ix),h
   0309 DD 75 FC            450 	ld	-4 (ix), l
   030C DD 66 FD            451 	ld	h,-3 (ix)
   030F DD 5E FE            452 	ld	e,-2 (ix)
   0312 DD 56 FF            453 	ld	d,-1 (ix)
   0315 18 0C               454 	jr	00118$
   0317                     455 00116$:
                            456 ;../expf.c:373: return z;
   0317 DD 6E F6            457 	ld	l,-10 (ix)
   031A DD 66 F7            458 	ld	h,-9 (ix)
   031D DD 5E F8            459 	ld	e,-8 (ix)
   0320 DD 56 F9            460 	ld	d,-7 (ix)
   0323                     461 00118$:
   0323 DD F9               462 	ld	sp, ix
   0325 DD E1               463 	pop	ix
   0327 C9                  464 	ret
                            465 	.area _CODE
                            466 	.area _INITIALIZER
                            467 	.area _CABS (ABS)
