                              1 ;--------------------------------------------------------
                              2 ; File Created by SDCC : free open source ANSI-C Compiler
                              3 ; Version 3.5.0 #9253 (Apr  4 2022) (Linux)
                              4 ; This file was generated Mon Apr  4 14:16:47 2022
                              5 ;--------------------------------------------------------
                              6 	.module _divslong
                              7 	.optsdcc -mgbz80
                              8 	
                              9 ;--------------------------------------------------------
                             10 ; Public variables in this module
                             11 ;--------------------------------------------------------
                             12 	.globl __divslong
                             13 ;--------------------------------------------------------
                             14 ; ram data
                             15 ;--------------------------------------------------------
                             16 	.area _DATA
                             17 ;--------------------------------------------------------
                             18 ; absolute external ram data
                             19 ;--------------------------------------------------------
                             20 	.area _DABS (ABS)
                             21 ;--------------------------------------------------------
                             22 ; global & static initialisations
                             23 ;--------------------------------------------------------
                             24 	.area _HOME
                             25 	.area _GSINIT
                             26 	.area _GSFINAL
                             27 	.area _GSINIT
                             28 ;--------------------------------------------------------
                             29 ; Home
                             30 ;--------------------------------------------------------
                             31 	.area _HOME
                             32 ;../_divslong.c:259: _divslong (long x, long y)
                             33 ;	---------------------------------
                             34 ; Function _divslong
                             35 ; ---------------------------------
   0000                      36 __divslong::
   0000 E8 F2                37 	add	sp, #-14
                             38 ;../_divslong.c:263: r = (unsigned long)(x < 0 ? -x : x) / (unsigned long)(y < 0 ? -y : y);
   0002 F8 10                39 	ldhl	sp,#16
   0004 7E                   40 	ld	a, (hl)
   0005 D6 00                41 	sub	a, #0x00
   0007 23                   42 	inc	hl
   0008 7E                   43 	ld	a, (hl)
   0009 DE 00                44 	sbc	a, #0x00
   000B 23                   45 	inc	hl
   000C 7E                   46 	ld	a, (hl)
   000D DE 00                47 	sbc	a, #0x00
   000F 23                   48 	inc	hl
   0010 7E                   49 	ld	a, (hl)
   0011 DE 00                50 	sbc	a, #0x00
   0013 56                   51 	ld	d, (hl)
   0014 3E 00                52 	ld	a,#0x00
   0016 5F                   53 	ld	e, a
   0017 CB 7B                54 	bit	7, e
   0019 28 07                55 	jr	Z,00122$
   001B CB 7A                56 	bit	7, d
   001D 20 08                57 	jr	NZ,00123$
   001F BF                   58 	cp	a, a
   0020 18 05                59 	jr	00123$
   0022                      60 00122$:
   0022 CB 7A                61 	bit	7, d
   0024 28 01                62 	jr	Z,00123$
   0026 37                   63 	scf
   0027                      64 00123$:
   0027 3E 00                65 	ld	a,#0x00
   0029 17                   66 	rla
   002A F8 0D                67 	ldhl	sp,#13
   002C 77                   68 	ld	(hl),a
   002D 7E                   69 	ld	a,(hl)
   002E B7                   70 	or	a, a
   002F 28 22                71 	jr	Z,00106$
   0031 11 00 00             72 	ld	de,#0x0000
   0034 7B                   73 	ld	a,e
   0035 F8 10                74 	ldhl	sp,#16
   0037 96                   75 	sub	a, (hl)
   0038 5F                   76 	ld	e,a
   0039 7A                   77 	ld	a,d
   003A 23                   78 	inc	hl
   003B 9E                   79 	sbc	a, (hl)
   003C F5                   80 	push	af
   003D F8 0C                81 	ldhl	sp,#12
   003F 32                   82 	ld	(hl-),a
   0040 73                   83 	ld	(hl),e
   0041 11 00 00             84 	ld	de,#0x0000
   0044 F8 14                85 	ldhl	sp,#20
   0046 F1                   86 	pop	af
   0047 7B                   87 	ld	a,e
   0048 9E                   88 	sbc	a, (hl)
   0049 5F                   89 	ld	e,a
   004A 7A                   90 	ld	a,d
   004B 23                   91 	inc	hl
   004C 9E                   92 	sbc	a, (hl)
   004D F8 0C                93 	ldhl	sp,#12
   004F 32                   94 	ld	(hl-),a
   0050 73                   95 	ld	(hl),e
   0051 18 11                96 	jr	00107$
   0053                      97 00106$:
   0053 F8 10                98 	ldhl	sp,#16
   0055 54                   99 	ld	d,h
   0056 5D                  100 	ld	e,l
   0057 F8 09               101 	ldhl	sp,#9
   0059 1A                  102 	ld	a,(de)
   005A 22                  103 	ld	(hl+),a
   005B 13                  104 	inc	de
   005C 1A                  105 	ld	a,(de)
   005D 22                  106 	ld	(hl+),a
   005E 13                  107 	inc	de
   005F 1A                  108 	ld	a,(de)
   0060 22                  109 	ld	(hl+),a
   0061 13                  110 	inc	de
   0062 1A                  111 	ld	a,(de)
   0063 77                  112 	ld	(hl),a
   0064                     113 00107$:
   0064 F8 14               114 	ldhl	sp,#20
   0066 7E                  115 	ld	a, (hl)
   0067 D6 00               116 	sub	a, #0x00
   0069 23                  117 	inc	hl
   006A 7E                  118 	ld	a, (hl)
   006B DE 00               119 	sbc	a, #0x00
   006D 23                  120 	inc	hl
   006E 7E                  121 	ld	a, (hl)
   006F DE 00               122 	sbc	a, #0x00
   0071 23                  123 	inc	hl
   0072 7E                  124 	ld	a, (hl)
   0073 DE 00               125 	sbc	a, #0x00
   0075 56                  126 	ld	d, (hl)
   0076 3E 00               127 	ld	a,#0x00
   0078 5F                  128 	ld	e, a
   0079 CB 7B               129 	bit	7, e
   007B 28 07               130 	jr	Z,00124$
   007D CB 7A               131 	bit	7, d
   007F 20 08               132 	jr	NZ,00125$
   0081 BF                  133 	cp	a, a
   0082 18 05               134 	jr	00125$
   0084                     135 00124$:
   0084 CB 7A               136 	bit	7, d
   0086 28 01               137 	jr	Z,00125$
   0088 37                  138 	scf
   0089                     139 00125$:
   0089 3E 00               140 	ld	a,#0x00
   008B 17                  141 	rla
   008C F8 08               142 	ldhl	sp,#8
   008E 77                  143 	ld	(hl),a
   008F 7E                  144 	ld	a,(hl)
   0090 B7                  145 	or	a, a
   0091 28 22               146 	jr	Z,00108$
   0093 11 00 00            147 	ld	de,#0x0000
   0096 7B                  148 	ld	a,e
   0097 F8 14               149 	ldhl	sp,#20
   0099 96                  150 	sub	a, (hl)
   009A 5F                  151 	ld	e,a
   009B 7A                  152 	ld	a,d
   009C 23                  153 	inc	hl
   009D 9E                  154 	sbc	a, (hl)
   009E F5                  155 	push	af
   009F F8 07               156 	ldhl	sp,#7
   00A1 32                  157 	ld	(hl-),a
   00A2 73                  158 	ld	(hl),e
   00A3 11 00 00            159 	ld	de,#0x0000
   00A6 F8 18               160 	ldhl	sp,#24
   00A8 F1                  161 	pop	af
   00A9 7B                  162 	ld	a,e
   00AA 9E                  163 	sbc	a, (hl)
   00AB 5F                  164 	ld	e,a
   00AC 7A                  165 	ld	a,d
   00AD 23                  166 	inc	hl
   00AE 9E                  167 	sbc	a, (hl)
   00AF F8 07               168 	ldhl	sp,#7
   00B1 32                  169 	ld	(hl-),a
   00B2 73                  170 	ld	(hl),e
   00B3 18 11               171 	jr	00109$
   00B5                     172 00108$:
   00B5 F8 14               173 	ldhl	sp,#20
   00B7 54                  174 	ld	d,h
   00B8 5D                  175 	ld	e,l
   00B9 F8 04               176 	ldhl	sp,#4
   00BB 1A                  177 	ld	a,(de)
   00BC 22                  178 	ld	(hl+),a
   00BD 13                  179 	inc	de
   00BE 1A                  180 	ld	a,(de)
   00BF 22                  181 	ld	(hl+),a
   00C0 13                  182 	inc	de
   00C1 1A                  183 	ld	a,(de)
   00C2 22                  184 	ld	(hl+),a
   00C3 13                  185 	inc	de
   00C4 1A                  186 	ld	a,(de)
   00C5 77                  187 	ld	(hl),a
   00C6                     188 00109$:
   00C6 F8 04               189 	ldhl	sp,#4
   00C8 5E                  190 	ld	e,(hl)
   00C9 23                  191 	inc	hl
   00CA 56                  192 	ld	d,(hl)
   00CB 23                  193 	inc	hl
   00CC 4E                  194 	ld	c,(hl)
   00CD 23                  195 	inc	hl
   00CE 46                  196 	ld	b,(hl)
   00CF C5                  197 	push	bc
   00D0 D5                  198 	push	de
   00D1 F8 0F               199 	ldhl	sp,#15
   00D3 2A                  200 	ld	a,(hl+)
   00D4 66                  201 	ld	h,(hl)
   00D5 6F                  202 	ld	l,a
   00D6 E5                  203 	push	hl
   00D7 F8 0F               204 	ldhl	sp,#15
   00D9 2A                  205 	ld	a,(hl+)
   00DA 66                  206 	ld	h,(hl)
   00DB 6F                  207 	ld	l,a
   00DC E5                  208 	push	hl
   00DD CDr00r00            209 	call	__divulong
   00E0 E8 08               210 	add	sp, #8
   00E2 4D                  211 	ld	c,l
   00E3 44                  212 	ld	b,h
   00E4 F8 00               213 	ldhl	sp,#0
   00E6 73                  214 	ld	(hl),e
   00E7 23                  215 	inc	hl
   00E8 72                  216 	ld	(hl),d
   00E9 23                  217 	inc	hl
   00EA 71                  218 	ld	(hl),c
   00EB 23                  219 	inc	hl
   00EC 70                  220 	ld	(hl),b
                            221 ;../_divslong.c:264: if ((x < 0) ^ (y < 0))
   00ED F8 0D               222 	ldhl	sp,#13
   00EF 7E                  223 	ld	a,(hl)
   00F0 F8 08               224 	ldhl	sp,#8
   00F2 AE                  225 	xor	a,(hl)
   00F3 CAr21r01            226 	jp	Z,00102$
                            227 ;../_divslong.c:265: return -r;
   00F6 11 00 00            228 	ld	de,#0x0000
   00F9 7B                  229 	ld	a,e
   00FA F8 00               230 	ldhl	sp,#0
   00FC 96                  231 	sub	a, (hl)
   00FD 5F                  232 	ld	e,a
   00FE 7A                  233 	ld	a,d
   00FF 23                  234 	inc	hl
   0100 9E                  235 	sbc	a, (hl)
   0101 F5                  236 	push	af
   0102 F8 07               237 	ldhl	sp,#7
   0104 32                  238 	ld	(hl-),a
   0105 73                  239 	ld	(hl),e
   0106 11 00 00            240 	ld	de,#0x0000
   0109 2B                  241 	dec	hl
   010A 2B                  242 	dec	hl
   010B F1                  243 	pop	af
   010C 7B                  244 	ld	a,e
   010D 9E                  245 	sbc	a, (hl)
   010E 5F                  246 	ld	e,a
   010F 7A                  247 	ld	a,d
   0110 23                  248 	inc	hl
   0111 9E                  249 	sbc	a, (hl)
   0112 F8 07               250 	ldhl	sp,#7
   0114 32                  251 	ld	(hl-),a
   0115 73                  252 	ld	(hl),e
   0116 2B                  253 	dec	hl
   0117 2B                  254 	dec	hl
   0118 5E                  255 	ld	e,(hl)
   0119 23                  256 	inc	hl
   011A 56                  257 	ld	d,(hl)
   011B 23                  258 	inc	hl
   011C 2A                  259 	ld	a,(hl+)
   011D 66                  260 	ld	h,(hl)
   011E 6F                  261 	ld	l,a
   011F 18 07               262 	jr	00104$
   0121                     263 00102$:
                            264 ;../_divslong.c:267: return r;
   0121 D1                  265 	pop	de
   0122 D5                  266 	push	de
   0123 F8 02               267 	ldhl	sp,#2
   0125 2A                  268 	ld	a,(hl+)
   0126 66                  269 	ld	h,(hl)
   0127 6F                  270 	ld	l,a
   0128                     271 00104$:
   0128 E8 0E               272 	add	sp, #14
   012A C9                  273 	ret
                            274 	.area _HOME
                            275 ;--------------------------------------------------------
                            276 ; code
                            277 ;--------------------------------------------------------
                            278 	.area _CODE
                            279 	.area _CODE
                            280 	.area _CABS (ABS)
