                              1 ;--------------------------------------------------------
                              2 ; File Created by SDCC : free open source ANSI-C Compiler
                              3 ; Version 3.5.0 #9253 (Apr  4 2022) (Linux)
                              4 ; This file was generated Mon Apr  4 14:16:47 2022
                              5 ;--------------------------------------------------------
                              6 	.module _divslonglong
                              7 	.optsdcc -mgbz80
                              8 	
                              9 ;--------------------------------------------------------
                             10 ; Public variables in this module
                             11 ;--------------------------------------------------------
                             12 	.globl __divslonglong
                             13 ;--------------------------------------------------------
                             14 ; ram data
                             15 ;--------------------------------------------------------
                             16 	.area _DATA
                             17 ;--------------------------------------------------------
                             18 ; absolute external ram data
                             19 ;--------------------------------------------------------
                             20 	.area _DABS (ABS)
                             21 ;--------------------------------------------------------
                             22 ; global & static initialisations
                             23 ;--------------------------------------------------------
                             24 	.area _HOME
                             25 	.area _GSINIT
                             26 	.area _GSFINAL
                             27 	.area _GSINIT
                             28 ;--------------------------------------------------------
                             29 ; Home
                             30 ;--------------------------------------------------------
                             31 	.area _HOME
                             32 ;../_divslonglong.c:36: _divslonglong (long long numerator, long long denominator)
                             33 ;	---------------------------------
                             34 ; Function _divslonglong
                             35 ; ---------------------------------
   0000                      36 __divslonglong::
   0000 E8 E8                37 	add	sp, #-24
                             38 ;../_divslonglong.c:38: bool numeratorneg = (numerator < 0);
   0002 F8 1C                39 	ldhl	sp,#28
   0004 7E                   40 	ld	a, (hl)
   0005 D6 00                41 	sub	a, #0x00
   0007 23                   42 	inc	hl
   0008 7E                   43 	ld	a, (hl)
   0009 DE 00                44 	sbc	a, #0x00
   000B 23                   45 	inc	hl
   000C 7E                   46 	ld	a, (hl)
   000D DE 00                47 	sbc	a, #0x00
   000F 23                   48 	inc	hl
   0010 7E                   49 	ld	a, (hl)
   0011 DE 00                50 	sbc	a, #0x00
   0013 23                   51 	inc	hl
   0014 7E                   52 	ld	a, (hl)
   0015 DE 00                53 	sbc	a, #0x00
   0017 23                   54 	inc	hl
   0018 7E                   55 	ld	a, (hl)
   0019 DE 00                56 	sbc	a, #0x00
   001B 23                   57 	inc	hl
   001C 7E                   58 	ld	a, (hl)
   001D DE 00                59 	sbc	a, #0x00
   001F 23                   60 	inc	hl
   0020 7E                   61 	ld	a, (hl)
   0021 DE 00                62 	sbc	a, #0x00
   0023 56                   63 	ld	d, (hl)
   0024 3E 00                64 	ld	a,#0x00
   0026 5F                   65 	ld	e, a
   0027 CB 7B                66 	bit	7, e
   0029 28 07                67 	jr	Z,00121$
   002B CB 7A                68 	bit	7, d
   002D 20 08                69 	jr	NZ,00122$
   002F BF                   70 	cp	a, a
   0030 18 05                71 	jr	00122$
   0032                      72 00121$:
   0032 CB 7A                73 	bit	7, d
   0034 28 01                74 	jr	Z,00122$
   0036 37                   75 	scf
   0037                      76 00122$:
   0037 3E 00                77 	ld	a,#0x00
   0039 17                   78 	rla
   003A 47                   79 	ld	b,a
                             80 ;../_divslonglong.c:39: bool denominatorneg = (denominator < 0);
   003B F8 24                81 	ldhl	sp,#36
   003D 7E                   82 	ld	a, (hl)
   003E D6 00                83 	sub	a, #0x00
   0040 23                   84 	inc	hl
   0041 7E                   85 	ld	a, (hl)
   0042 DE 00                86 	sbc	a, #0x00
   0044 23                   87 	inc	hl
   0045 7E                   88 	ld	a, (hl)
   0046 DE 00                89 	sbc	a, #0x00
   0048 23                   90 	inc	hl
   0049 7E                   91 	ld	a, (hl)
   004A DE 00                92 	sbc	a, #0x00
   004C 23                   93 	inc	hl
   004D 7E                   94 	ld	a, (hl)
   004E DE 00                95 	sbc	a, #0x00
   0050 23                   96 	inc	hl
   0051 7E                   97 	ld	a, (hl)
   0052 DE 00                98 	sbc	a, #0x00
   0054 23                   99 	inc	hl
   0055 7E                  100 	ld	a, (hl)
   0056 DE 00               101 	sbc	a, #0x00
   0058 23                  102 	inc	hl
   0059 7E                  103 	ld	a, (hl)
   005A DE 00               104 	sbc	a, #0x00
   005C 56                  105 	ld	d, (hl)
   005D 3E 00               106 	ld	a,#0x00
   005F 5F                  107 	ld	e, a
   0060 CB 7B               108 	bit	7, e
   0062 28 07               109 	jr	Z,00123$
   0064 CB 7A               110 	bit	7, d
   0066 20 08               111 	jr	NZ,00124$
   0068 BF                  112 	cp	a, a
   0069 18 05               113 	jr	00124$
   006B                     114 00123$:
   006B CB 7A               115 	bit	7, d
   006D 28 01               116 	jr	Z,00124$
   006F 37                  117 	scf
   0070                     118 00124$:
   0070 3E 00               119 	ld	a,#0x00
   0072 17                  120 	rla
   0073 4F                  121 	ld	c,a
                            122 ;../_divslonglong.c:42: if (numeratorneg)
   0074 CB 40               123 	bit	0,b
   0076 CArA1r00            124 	jp	Z,00102$
                            125 ;../_divslonglong.c:43: numerator = -numerator;
   0079 AF                  126 	xor	a, a
   007A F8 1C               127 	ldhl	sp,#28
   007C 96                  128 	sub	a, (hl)
   007D 77                  129 	ld	(hl),a
   007E 3E 00               130 	ld	a, #0x00
   0080 23                  131 	inc	hl
   0081 9E                  132 	sbc	a, (hl)
   0082 77                  133 	ld	(hl),a
   0083 3E 00               134 	ld	a, #0x00
   0085 23                  135 	inc	hl
   0086 9E                  136 	sbc	a, (hl)
   0087 77                  137 	ld	(hl),a
   0088 3E 00               138 	ld	a, #0x00
   008A 23                  139 	inc	hl
   008B 9E                  140 	sbc	a, (hl)
   008C 77                  141 	ld	(hl),a
   008D 3E 00               142 	ld	a, #0x00
   008F 23                  143 	inc	hl
   0090 9E                  144 	sbc	a, (hl)
   0091 77                  145 	ld	(hl),a
   0092 3E 00               146 	ld	a, #0x00
   0094 23                  147 	inc	hl
   0095 9E                  148 	sbc	a, (hl)
   0096 77                  149 	ld	(hl),a
   0097 3E 00               150 	ld	a, #0x00
   0099 23                  151 	inc	hl
   009A 9E                  152 	sbc	a, (hl)
   009B 77                  153 	ld	(hl),a
   009C 3E 00               154 	ld	a, #0x00
   009E 23                  155 	inc	hl
   009F 9E                  156 	sbc	a, (hl)
   00A0 77                  157 	ld	(hl),a
   00A1                     158 00102$:
                            159 ;../_divslonglong.c:44: if (denominatorneg)
   00A1 CB 41               160 	bit	0,c
   00A3 CArCEr00            161 	jp	Z,00104$
                            162 ;../_divslonglong.c:45: denominator = -denominator;
   00A6 AF                  163 	xor	a, a
   00A7 F8 24               164 	ldhl	sp,#36
   00A9 96                  165 	sub	a, (hl)
   00AA 77                  166 	ld	(hl),a
   00AB 3E 00               167 	ld	a, #0x00
   00AD 23                  168 	inc	hl
   00AE 9E                  169 	sbc	a, (hl)
   00AF 77                  170 	ld	(hl),a
   00B0 3E 00               171 	ld	a, #0x00
   00B2 23                  172 	inc	hl
   00B3 9E                  173 	sbc	a, (hl)
   00B4 77                  174 	ld	(hl),a
   00B5 3E 00               175 	ld	a, #0x00
   00B7 23                  176 	inc	hl
   00B8 9E                  177 	sbc	a, (hl)
   00B9 77                  178 	ld	(hl),a
   00BA 3E 00               179 	ld	a, #0x00
   00BC 23                  180 	inc	hl
   00BD 9E                  181 	sbc	a, (hl)
   00BE 77                  182 	ld	(hl),a
   00BF 3E 00               183 	ld	a, #0x00
   00C1 23                  184 	inc	hl
   00C2 9E                  185 	sbc	a, (hl)
   00C3 77                  186 	ld	(hl),a
   00C4 3E 00               187 	ld	a, #0x00
   00C6 23                  188 	inc	hl
   00C7 9E                  189 	sbc	a, (hl)
   00C8 77                  190 	ld	(hl),a
   00C9 3E 00               191 	ld	a, #0x00
   00CB 23                  192 	inc	hl
   00CC 9E                  193 	sbc	a, (hl)
   00CD 77                  194 	ld	(hl),a
   00CE                     195 00104$:
                            196 ;../_divslonglong.c:47: d = (unsigned long long)numerator / (unsigned long long)denominator;
   00CE E5                  197 	push	hl
   00CF F8 1E               198 	ldhl	sp,#30
   00D1 7E                  199 	ld	a,(hl)
   00D2 F8 12               200 	ldhl	sp,#18
   00D4 77                  201 	ld	(hl),a
   00D5 E1                  202 	pop	hl
   00D6 E5                  203 	push	hl
   00D7 F8 1F               204 	ldhl	sp,#31
   00D9 7E                  205 	ld	a,(hl)
   00DA F8 13               206 	ldhl	sp,#19
   00DC 77                  207 	ld	(hl),a
   00DD E1                  208 	pop	hl
   00DE E5                  209 	push	hl
   00DF F8 20               210 	ldhl	sp,#32
   00E1 7E                  211 	ld	a,(hl)
   00E2 F8 14               212 	ldhl	sp,#20
   00E4 77                  213 	ld	(hl),a
   00E5 E1                  214 	pop	hl
   00E6 E5                  215 	push	hl
   00E7 F8 21               216 	ldhl	sp,#33
   00E9 7E                  217 	ld	a,(hl)
   00EA F8 15               218 	ldhl	sp,#21
   00EC 77                  219 	ld	(hl),a
   00ED E1                  220 	pop	hl
   00EE E5                  221 	push	hl
   00EF F8 22               222 	ldhl	sp,#34
   00F1 7E                  223 	ld	a,(hl)
   00F2 F8 16               224 	ldhl	sp,#22
   00F4 77                  225 	ld	(hl),a
   00F5 E1                  226 	pop	hl
   00F6 E5                  227 	push	hl
   00F7 F8 23               228 	ldhl	sp,#35
   00F9 7E                  229 	ld	a,(hl)
   00FA F8 17               230 	ldhl	sp,#23
   00FC 77                  231 	ld	(hl),a
   00FD E1                  232 	pop	hl
   00FE E5                  233 	push	hl
   00FF F8 24               234 	ldhl	sp,#36
   0101 7E                  235 	ld	a,(hl)
   0102 F8 18               236 	ldhl	sp,#24
   0104 77                  237 	ld	(hl),a
   0105 E1                  238 	pop	hl
   0106 E5                  239 	push	hl
   0107 F8 25               240 	ldhl	sp,#37
   0109 7E                  241 	ld	a,(hl)
   010A F8 19               242 	ldhl	sp,#25
   010C 77                  243 	ld	(hl),a
   010D E1                  244 	pop	hl
   010E E5                  245 	push	hl
   010F F8 26               246 	ldhl	sp,#38
   0111 7E                  247 	ld	a,(hl)
   0112 F8 0A               248 	ldhl	sp,#10
   0114 77                  249 	ld	(hl),a
   0115 E1                  250 	pop	hl
   0116 E5                  251 	push	hl
   0117 F8 27               252 	ldhl	sp,#39
   0119 7E                  253 	ld	a,(hl)
   011A F8 0B               254 	ldhl	sp,#11
   011C 77                  255 	ld	(hl),a
   011D E1                  256 	pop	hl
   011E E5                  257 	push	hl
   011F F8 28               258 	ldhl	sp,#40
   0121 7E                  259 	ld	a,(hl)
   0122 F8 0C               260 	ldhl	sp,#12
   0124 77                  261 	ld	(hl),a
   0125 E1                  262 	pop	hl
   0126 E5                  263 	push	hl
   0127 F8 29               264 	ldhl	sp,#41
   0129 7E                  265 	ld	a,(hl)
   012A F8 0D               266 	ldhl	sp,#13
   012C 77                  267 	ld	(hl),a
   012D E1                  268 	pop	hl
   012E E5                  269 	push	hl
   012F F8 2A               270 	ldhl	sp,#42
   0131 7E                  271 	ld	a,(hl)
   0132 F8 0E               272 	ldhl	sp,#14
   0134 77                  273 	ld	(hl),a
   0135 E1                  274 	pop	hl
   0136 E5                  275 	push	hl
   0137 F8 2B               276 	ldhl	sp,#43
   0139 7E                  277 	ld	a,(hl)
   013A F8 0F               278 	ldhl	sp,#15
   013C 77                  279 	ld	(hl),a
   013D E1                  280 	pop	hl
   013E E5                  281 	push	hl
   013F F8 2C               282 	ldhl	sp,#44
   0141 7E                  283 	ld	a,(hl)
   0142 F8 10               284 	ldhl	sp,#16
   0144 77                  285 	ld	(hl),a
   0145 E1                  286 	pop	hl
   0146 E5                  287 	push	hl
   0147 F8 2D               288 	ldhl	sp,#45
   0149 7E                  289 	ld	a,(hl)
   014A F8 11               290 	ldhl	sp,#17
   014C 77                  291 	ld	(hl),a
   014D E1                  292 	pop	hl
   014E C5                  293 	push	bc
   014F F8 11               294 	ldhl	sp,#17
   0151 7E                  295 	ld	a,(hl)
   0152 F5                  296 	push	af
   0153 33                  297 	inc	sp
   0154 2B                  298 	dec	hl
   0155 7E                  299 	ld	a,(hl)
   0156 F5                  300 	push	af
   0157 33                  301 	inc	sp
   0158 2B                  302 	dec	hl
   0159 7E                  303 	ld	a,(hl)
   015A F5                  304 	push	af
   015B 33                  305 	inc	sp
   015C 2B                  306 	dec	hl
   015D 7E                  307 	ld	a,(hl)
   015E F5                  308 	push	af
   015F 33                  309 	inc	sp
   0160 2B                  310 	dec	hl
   0161 7E                  311 	ld	a,(hl)
   0162 F5                  312 	push	af
   0163 33                  313 	inc	sp
   0164 2B                  314 	dec	hl
   0165 7E                  315 	ld	a,(hl)
   0166 F5                  316 	push	af
   0167 33                  317 	inc	sp
   0168 2B                  318 	dec	hl
   0169 7E                  319 	ld	a,(hl)
   016A F5                  320 	push	af
   016B 33                  321 	inc	sp
   016C 2B                  322 	dec	hl
   016D 7E                  323 	ld	a,(hl)
   016E F5                  324 	push	af
   016F 33                  325 	inc	sp
   0170 F8 21               326 	ldhl	sp,#33
   0172 7E                  327 	ld	a,(hl)
   0173 F5                  328 	push	af
   0174 33                  329 	inc	sp
   0175 2B                  330 	dec	hl
   0176 7E                  331 	ld	a,(hl)
   0177 F5                  332 	push	af
   0178 33                  333 	inc	sp
   0179 2B                  334 	dec	hl
   017A 7E                  335 	ld	a,(hl)
   017B F5                  336 	push	af
   017C 33                  337 	inc	sp
   017D 2B                  338 	dec	hl
   017E 7E                  339 	ld	a,(hl)
   017F F5                  340 	push	af
   0180 33                  341 	inc	sp
   0181 2B                  342 	dec	hl
   0182 7E                  343 	ld	a,(hl)
   0183 F5                  344 	push	af
   0184 33                  345 	inc	sp
   0185 2B                  346 	dec	hl
   0186 7E                  347 	ld	a,(hl)
   0187 F5                  348 	push	af
   0188 33                  349 	inc	sp
   0189 2B                  350 	dec	hl
   018A 7E                  351 	ld	a,(hl)
   018B F5                  352 	push	af
   018C 33                  353 	inc	sp
   018D 2B                  354 	dec	hl
   018E 7E                  355 	ld	a,(hl)
   018F F5                  356 	push	af
   0190 33                  357 	inc	sp
   0191 21 12 00            358 	ld	hl,#0x0012
   0194 39                  359 	add	hl, sp
   0195 E5                  360 	push	hl
   0196 CDr00r00            361 	call	__divulonglong
   0199 E8 12               362 	add	sp, #18
   019B C1                  363 	pop	bc
                            364 ;../_divslonglong.c:49: return ((numeratorneg ^ denominatorneg) ? -d : d);
   019C 78                  365 	ld	a,b
   019D A9                  366 	xor	a, c
   019E CB 47               367 	bit	0,a
   01A0 CAr01r02            368 	jp	Z,00107$
   01A3 AF                  369 	xor	a, a
   01A4 F8 00               370 	ldhl	sp,#0
   01A6 96                  371 	sub	a, (hl)
   01A7 F5                  372 	push	af
   01A8 F8 0A               373 	ldhl	sp,#10
   01AA F1                  374 	pop	af
   01AB 77                  375 	ld	(hl),a
   01AC 3E 00               376 	ld	a, #0x00
   01AE F5                  377 	push	af
   01AF F8 03               378 	ldhl	sp,#3
   01B1 F1                  379 	pop	af
   01B2 9E                  380 	sbc	a, (hl)
   01B3 F5                  381 	push	af
   01B4 F8 0B               382 	ldhl	sp,#11
   01B6 F1                  383 	pop	af
   01B7 77                  384 	ld	(hl),a
   01B8 3E 00               385 	ld	a, #0x00
   01BA F5                  386 	push	af
   01BB F8 04               387 	ldhl	sp,#4
   01BD F1                  388 	pop	af
   01BE 9E                  389 	sbc	a, (hl)
   01BF F5                  390 	push	af
   01C0 F8 0C               391 	ldhl	sp,#12
   01C2 F1                  392 	pop	af
   01C3 77                  393 	ld	(hl),a
   01C4 3E 00               394 	ld	a, #0x00
   01C6 F5                  395 	push	af
   01C7 F8 05               396 	ldhl	sp,#5
   01C9 F1                  397 	pop	af
   01CA 9E                  398 	sbc	a, (hl)
   01CB F5                  399 	push	af
   01CC F8 0D               400 	ldhl	sp,#13
   01CE F1                  401 	pop	af
   01CF 77                  402 	ld	(hl),a
   01D0 3E 00               403 	ld	a, #0x00
   01D2 F5                  404 	push	af
   01D3 F8 06               405 	ldhl	sp,#6
   01D5 F1                  406 	pop	af
   01D6 9E                  407 	sbc	a, (hl)
   01D7 F5                  408 	push	af
   01D8 F8 0E               409 	ldhl	sp,#14
   01DA F1                  410 	pop	af
   01DB 77                  411 	ld	(hl),a
   01DC 3E 00               412 	ld	a, #0x00
   01DE F5                  413 	push	af
   01DF F8 07               414 	ldhl	sp,#7
   01E1 F1                  415 	pop	af
   01E2 9E                  416 	sbc	a, (hl)
   01E3 F5                  417 	push	af
   01E4 F8 0F               418 	ldhl	sp,#15
   01E6 F1                  419 	pop	af
   01E7 77                  420 	ld	(hl),a
   01E8 3E 00               421 	ld	a, #0x00
   01EA F5                  422 	push	af
   01EB F8 08               423 	ldhl	sp,#8
   01ED F1                  424 	pop	af
   01EE 9E                  425 	sbc	a, (hl)
   01EF F5                  426 	push	af
   01F0 F8 10               427 	ldhl	sp,#16
   01F2 F1                  428 	pop	af
   01F3 77                  429 	ld	(hl),a
   01F4 3E 00               430 	ld	a, #0x00
   01F6 F5                  431 	push	af
   01F7 F8 09               432 	ldhl	sp,#9
   01F9 F1                  433 	pop	af
   01FA 9E                  434 	sbc	a, (hl)
   01FB F8 0F               435 	ldhl	sp,#15
   01FD 77                  436 	ld	(hl),a
   01FE C3r41r02            437 	jp	00108$
   0201                     438 00107$:
   0201 E5                  439 	push	hl
   0202 F8 02               440 	ldhl	sp,#2
   0204 7E                  441 	ld	a,(hl)
   0205 F8 0A               442 	ldhl	sp,#10
   0207 77                  443 	ld	(hl),a
   0208 E1                  444 	pop	hl
   0209 E5                  445 	push	hl
   020A F8 03               446 	ldhl	sp,#3
   020C 7E                  447 	ld	a,(hl)
   020D F8 0B               448 	ldhl	sp,#11
   020F 77                  449 	ld	(hl),a
   0210 E1                  450 	pop	hl
   0211 E5                  451 	push	hl
   0212 F8 04               452 	ldhl	sp,#4
   0214 7E                  453 	ld	a,(hl)
   0215 F8 0C               454 	ldhl	sp,#12
   0217 77                  455 	ld	(hl),a
   0218 E1                  456 	pop	hl
   0219 E5                  457 	push	hl
   021A F8 05               458 	ldhl	sp,#5
   021C 7E                  459 	ld	a,(hl)
   021D F8 0D               460 	ldhl	sp,#13
   021F 77                  461 	ld	(hl),a
   0220 E1                  462 	pop	hl
   0221 E5                  463 	push	hl
   0222 F8 06               464 	ldhl	sp,#6
   0224 7E                  465 	ld	a,(hl)
   0225 F8 0E               466 	ldhl	sp,#14
   0227 77                  467 	ld	(hl),a
   0228 E1                  468 	pop	hl
   0229 E5                  469 	push	hl
   022A F8 07               470 	ldhl	sp,#7
   022C 7E                  471 	ld	a,(hl)
   022D F8 0F               472 	ldhl	sp,#15
   022F 77                  473 	ld	(hl),a
   0230 E1                  474 	pop	hl
   0231 E5                  475 	push	hl
   0232 F8 08               476 	ldhl	sp,#8
   0234 7E                  477 	ld	a,(hl)
   0235 F8 10               478 	ldhl	sp,#16
   0237 77                  479 	ld	(hl),a
   0238 E1                  480 	pop	hl
   0239 E5                  481 	push	hl
   023A F8 09               482 	ldhl	sp,#9
   023C 7E                  483 	ld	a,(hl)
   023D F8 11               484 	ldhl	sp,#17
   023F 77                  485 	ld	(hl),a
   0240 E1                  486 	pop	hl
   0241                     487 00108$:
   0241 21 1A 00            488 	ld	hl, #26
   0244 39                  489 	add	hl, sp
   0245 4E                  490 	ld	c, (hl)
   0246 23                  491 	inc	hl
   0247 46                  492 	ld	b, (hl)
   0248 F8 08               493 	ldhl	sp,#8
   024A 7E                  494 	ld	a,(hl)
   024B 02                  495 	ld	(bc), a
   024C 03                  496 	inc	bc
   024D 23                  497 	inc	hl
   024E 7E                  498 	ld	a,(hl)
   024F 02                  499 	ld	(bc), a
   0250 03                  500 	inc	bc
   0251 23                  501 	inc	hl
   0252 7E                  502 	ld	a,(hl)
   0253 02                  503 	ld	(bc), a
   0254 03                  504 	inc	bc
   0255 23                  505 	inc	hl
   0256 7E                  506 	ld	a,(hl)
   0257 02                  507 	ld	(bc), a
   0258 03                  508 	inc	bc
   0259 23                  509 	inc	hl
   025A 7E                  510 	ld	a,(hl)
   025B 02                  511 	ld	(bc), a
   025C 03                  512 	inc	bc
   025D 23                  513 	inc	hl
   025E 7E                  514 	ld	a,(hl)
   025F 02                  515 	ld	(bc), a
   0260 03                  516 	inc	bc
   0261 23                  517 	inc	hl
   0262 7E                  518 	ld	a,(hl)
   0263 02                  519 	ld	(bc), a
   0264 03                  520 	inc	bc
   0265 23                  521 	inc	hl
   0266 7E                  522 	ld	a,(hl)
   0267 02                  523 	ld	(bc), a
   0268 E8 18               524 	add	sp, #24
   026A C9                  525 	ret
                            526 	.area _HOME
                            527 ;--------------------------------------------------------
                            528 ; code
                            529 ;--------------------------------------------------------
                            530 	.area _CODE
                            531 	.area _CODE
                            532 	.area _CABS (ABS)
