                              1 ;--------------------------------------------------------
                              2 ; File Created by SDCC : free open source ANSI-C Compiler
                              3 ; Version 3.5.0 #9253 (Apr  4 2022) (Linux)
                              4 ; This file was generated Mon Apr  4 14:16:43 2022
                              5 ;--------------------------------------------------------
                              6 	.module _fs2sint
                              7 	.optsdcc -mgbz80
                              8 	
                              9 ;--------------------------------------------------------
                             10 ; Public variables in this module
                             11 ;--------------------------------------------------------
                             12 	.globl ___fs2slong
                             13 	.globl ___fs2sint
                             14 ;--------------------------------------------------------
                             15 ; ram data
                             16 ;--------------------------------------------------------
                             17 	.area _DATA
                             18 ;--------------------------------------------------------
                             19 ; absolute external ram data
                             20 ;--------------------------------------------------------
                             21 	.area _DABS (ABS)
                             22 ;--------------------------------------------------------
                             23 ; global & static initialisations
                             24 ;--------------------------------------------------------
                             25 	.area _HOME
                             26 	.area _GSINIT
                             27 	.area _GSFINAL
                             28 	.area _GSINIT
                             29 ;--------------------------------------------------------
                             30 ; Home
                             31 ;--------------------------------------------------------
                             32 	.area _HOME
                             33 ;../_fs2sint.c:81: signed int __fs2sint (float f)
                             34 ;	---------------------------------
                             35 ; Function __fs2sint
                             36 ; ---------------------------------
   0000                      37 ___fs2sint::
   0000 E8 FC                38 	add	sp, #-4
                             39 ;../_fs2sint.c:83: signed long sl=__fs2slong(f);
   0002 F8 08                40 	ldhl	sp,#8
   0004 2A                   41 	ld	a,(hl+)
   0005 66                   42 	ld	h,(hl)
   0006 6F                   43 	ld	l,a
   0007 E5                   44 	push	hl
   0008 F8 08                45 	ldhl	sp,#8
   000A 2A                   46 	ld	a,(hl+)
   000B 66                   47 	ld	h,(hl)
   000C 6F                   48 	ld	l,a
   000D E5                   49 	push	hl
   000E CDr00r00             50 	call	___fs2slong
   0011 E8 04                51 	add	sp, #4
   0013 45                   52 	ld	b,l
   0014 4C                   53 	ld	c,h
   0015 F8 00                54 	ldhl	sp,#0
   0017 73                   55 	ld	(hl),e
   0018 23                   56 	inc	hl
   0019 72                   57 	ld	(hl),d
   001A 23                   58 	inc	hl
   001B 70                   59 	ld	(hl),b
   001C 23                   60 	inc	hl
   001D 71                   61 	ld	(hl),c
                             62 ;../_fs2sint.c:84: if (sl>=INT_MAX)
   001E F8 00                63 	ldhl	sp,#0
   0020 7E                   64 	ld	a, (hl)
   0021 D6 FF                65 	sub	a, #0xFF
   0023 23                   66 	inc	hl
   0024 7E                   67 	ld	a, (hl)
   0025 DE 7F                68 	sbc	a, #0x7F
   0027 23                   69 	inc	hl
   0028 7E                   70 	ld	a, (hl)
   0029 DE 00                71 	sbc	a, #0x00
   002B 23                   72 	inc	hl
   002C 7E                   73 	ld	a, (hl)
   002D DE 00                74 	sbc	a, #0x00
   002F 56                   75 	ld	d, (hl)
   0030 3E 00                76 	ld	a,#0x00
   0032 5F                   77 	ld	e, a
   0033 CB 7B                78 	bit	7, e
   0035 28 07                79 	jr	Z,00115$
   0037 CB 7A                80 	bit	7, d
   0039 20 08                81 	jr	NZ,00116$
   003B BF                   82 	cp	a, a
   003C 18 05                83 	jr	00116$
   003E                      84 00115$:
   003E CB 7A                85 	bit	7, d
   0040 28 01                86 	jr	Z,00116$
   0042 37                   87 	scf
   0043                      88 00116$:
   0043 38 05                89 	jr	C,00102$
                             90 ;../_fs2sint.c:85: return INT_MAX;
   0045 11 FF 7F             91 	ld	de,#0x7FFF
   0048 18 2E                92 	jr	00105$
   004A                      93 00102$:
                             94 ;../_fs2sint.c:86: if (sl<=INT_MIN)
   004A F8 00                95 	ldhl	sp,#0
   004C 3E 00                96 	ld	a,#0x00
   004E 96                   97 	sub	a, (hl)
   004F 23                   98 	inc	hl
   0050 3E 80                99 	ld	a,#0x80
   0052 9E                  100 	sbc	a, (hl)
   0053 23                  101 	inc	hl
   0054 3E FF               102 	ld	a,#0xFF
   0056 9E                  103 	sbc	a, (hl)
   0057 23                  104 	inc	hl
   0058 3E FF               105 	ld	a,#0xFF
   005A 9E                  106 	sbc	a, (hl)
   005B 3E FF               107 	ld	a,#0xFF
   005D 57                  108 	ld	d, a
   005E 5E                  109 	ld	e, (hl)
   005F CB 7B               110 	bit	7, e
   0061 28 07               111 	jr	Z,00117$
   0063 CB 7A               112 	bit	7, d
   0065 20 08               113 	jr	NZ,00118$
   0067 BF                  114 	cp	a, a
   0068 18 05               115 	jr	00118$
   006A                     116 00117$:
   006A CB 7A               117 	bit	7, d
   006C 28 01               118 	jr	Z,00118$
   006E 37                  119 	scf
   006F                     120 00118$:
   006F 38 05               121 	jr	C,00104$
                            122 ;../_fs2sint.c:87: return -INT_MIN;
   0071 11 00 80            123 	ld	de,#0x8000
   0074 18 02               124 	jr	00105$
   0076                     125 00104$:
                            126 ;../_fs2sint.c:88: return sl;
   0076 D1                  127 	pop	de
   0077 D5                  128 	push	de
   0078                     129 00105$:
   0078 E8 04               130 	add	sp, #4
   007A C9                  131 	ret
                            132 	.area _HOME
                            133 ;--------------------------------------------------------
                            134 ; code
                            135 ;--------------------------------------------------------
                            136 	.area _CODE
                            137 	.area _CODE
                            138 	.area _CABS (ABS)
