                              1 ;--------------------------------------------------------
                              2 ; File Created by SDCC : free open source ANSI-C Compiler
                              3 ; Version 3.5.0 #9253 (Apr  4 2022) (Linux)
                              4 ; This file was generated Mon Apr  4 14:16:44 2022
                              5 ;--------------------------------------------------------
                              6 	.module _fslt
                              7 	.optsdcc -mgbz80
                              8 	
                              9 ;--------------------------------------------------------
                             10 ; Public variables in this module
                             11 ;--------------------------------------------------------
                             12 	.globl ___fslt
                             13 ;--------------------------------------------------------
                             14 ; ram data
                             15 ;--------------------------------------------------------
                             16 	.area _DATA
                             17 ;--------------------------------------------------------
                             18 ; absolute external ram data
                             19 ;--------------------------------------------------------
                             20 	.area _DABS (ABS)
                             21 ;--------------------------------------------------------
                             22 ; global & static initialisations
                             23 ;--------------------------------------------------------
                             24 	.area _HOME
                             25 	.area _GSINIT
                             26 	.area _GSFINAL
                             27 	.area _GSINIT
                             28 ;--------------------------------------------------------
                             29 ; Home
                             30 ;--------------------------------------------------------
                             31 	.area _HOME
                             32 ;../_fslt.c:108: char __fslt (float a1, float a2)
                             33 ;	---------------------------------
                             34 ; Function __fslt
                             35 ; ---------------------------------
   0000                      36 ___fslt::
   0000 E8 F0                37 	add	sp, #-16
                             38 ;../_fslt.c:112: fl1.f = a1;
   0002 F8 04                39 	ldhl	sp,#4
   0004 5D                   40 	ld	e,l
   0005 54                   41 	ld	d,h
   0006 F8 12                42 	ldhl	sp,#18
   0008 7E                   43 	ld	a,(hl)
   0009 12                   44 	ld	(de),a
   000A 13                   45 	inc	de
   000B 23                   46 	inc	hl
   000C 7E                   47 	ld	a,(hl)
   000D 12                   48 	ld	(de),a
   000E 13                   49 	inc	de
   000F 23                   50 	inc	hl
   0010 7E                   51 	ld	a,(hl)
   0011 12                   52 	ld	(de),a
   0012 13                   53 	inc	de
   0013 23                   54 	inc	hl
   0014 7E                   55 	ld	a,(hl)
   0015 12                   56 	ld	(de),a
                             57 ;../_fslt.c:113: fl2.f = a2;
   0016 F8 00                58 	ldhl	sp,#0
   0018 5D                   59 	ld	e,l
   0019 54                   60 	ld	d,h
   001A F8 16                61 	ldhl	sp,#22
   001C 7E                   62 	ld	a,(hl)
   001D 12                   63 	ld	(de),a
   001E 13                   64 	inc	de
   001F 23                   65 	inc	hl
   0020 7E                   66 	ld	a,(hl)
   0021 12                   67 	ld	(de),a
   0022 13                   68 	inc	de
   0023 23                   69 	inc	hl
   0024 7E                   70 	ld	a,(hl)
   0025 12                   71 	ld	(de),a
   0026 13                   72 	inc	de
   0027 23                   73 	inc	hl
   0028 7E                   74 	ld	a,(hl)
   0029 12                   75 	ld	(de),a
                             76 ;../_fslt.c:115: if (((fl1.l | fl2.l) & 0x7FFFFFFF) == 0)
   002A F8 04                77 	ldhl	sp,#4
   002C 45                   78 	ld	b,l
   002D 4C                   79 	ld	c,h
   002E 58                   80 	ld	e, b
   002F 51                   81 	ld	d, c
   0030 1A                   82 	ld	a,(de)
   0031 F8 0C                83 	ldhl	sp,#12
   0033 22                   84 	ld	(hl+),a
   0034 13                   85 	inc	de
   0035 1A                   86 	ld	a,(de)
   0036 22                   87 	ld	(hl+),a
   0037 13                   88 	inc	de
   0038 1A                   89 	ld	a,(de)
   0039 22                   90 	ld	(hl+),a
   003A 13                   91 	inc	de
   003B 1A                   92 	ld	a,(de)
   003C 77                   93 	ld	(hl),a
   003D F8 00                94 	ldhl	sp,#0
   003F 45                   95 	ld	b,l
   0040 4C                   96 	ld	c,h
   0041 58                   97 	ld	e, b
   0042 51                   98 	ld	d, c
   0043 1A                   99 	ld	a,(de)
   0044 F8 08               100 	ldhl	sp,#8
   0046 22                  101 	ld	(hl+),a
   0047 13                  102 	inc	de
   0048 1A                  103 	ld	a,(de)
   0049 22                  104 	ld	(hl+),a
   004A 13                  105 	inc	de
   004B 1A                  106 	ld	a,(de)
   004C 22                  107 	ld	(hl+),a
   004D 13                  108 	inc	de
   004E 1A                  109 	ld	a,(de)
   004F 22                  110 	ld	(hl+),a
   0050 7E                  111 	ld	a,(hl)
   0051 F8 08               112 	ldhl	sp,#8
   0053 B6                  113 	or	a, (hl)
   0054 57                  114 	ld	d,a
   0055 F8 0D               115 	ldhl	sp,#13
   0057 7E                  116 	ld	a,(hl)
   0058 F8 09               117 	ldhl	sp,#9
   005A B6                  118 	or	a, (hl)
   005B 5F                  119 	ld	e,a
   005C F8 0E               120 	ldhl	sp,#14
   005E 7E                  121 	ld	a,(hl)
   005F F8 0A               122 	ldhl	sp,#10
   0061 B6                  123 	or	a, (hl)
   0062 47                  124 	ld	b,a
   0063 F8 0F               125 	ldhl	sp,#15
   0065 7E                  126 	ld	a,(hl)
   0066 F8 0B               127 	ldhl	sp,#11
   0068 B6                  128 	or	a, (hl)
   0069 4F                  129 	ld	c,a
   006A 7A                  130 	ld	a,d
   006B B7                  131 	or	a, a
   006C 20 11               132 	jr	NZ,00102$
   006E 7B                  133 	ld	a,e
   006F B7                  134 	or	a, a
   0070 20 0D               135 	jr	NZ,00102$
   0072 78                  136 	ld	a,b
   0073 B7                  137 	or	a, a
   0074 20 09               138 	jr	NZ,00102$
   0076 79                  139 	ld	a,c
                            140 ;../_fslt.c:116: return (0);
   0077 E6 7F               141 	and	a,#0x7F
   0079 20 04               142 	jr	NZ,00102$
   007B 5F                  143 	ld	e,a
   007C C3rA3r01            144 	jp	00110$
   007F                     145 00102$:
                            146 ;../_fslt.c:118: if (fl1.l<0 && fl2.l<0) {
   007F F8 04               147 	ldhl	sp,#4
   0081 45                  148 	ld	b,l
   0082 4C                  149 	ld	c,h
   0083 58                  150 	ld	e, b
   0084 51                  151 	ld	d, c
   0085 1A                  152 	ld	a,(de)
   0086 F8 08               153 	ldhl	sp,#8
   0088 22                  154 	ld	(hl+),a
   0089 13                  155 	inc	de
   008A 1A                  156 	ld	a,(de)
   008B 22                  157 	ld	(hl+),a
   008C 13                  158 	inc	de
   008D 1A                  159 	ld	a,(de)
   008E 22                  160 	ld	(hl+),a
   008F 13                  161 	inc	de
   0090 1A                  162 	ld	a,(de)
   0091 77                  163 	ld	(hl),a
   0092 F8 08               164 	ldhl	sp,#8
   0094 7E                  165 	ld	a, (hl)
   0095 D6 00               166 	sub	a, #0x00
   0097 23                  167 	inc	hl
   0098 7E                  168 	ld	a, (hl)
   0099 DE 00               169 	sbc	a, #0x00
   009B 23                  170 	inc	hl
   009C 7E                  171 	ld	a, (hl)
   009D DE 00               172 	sbc	a, #0x00
   009F 23                  173 	inc	hl
   00A0 7E                  174 	ld	a, (hl)
   00A1 DE 00               175 	sbc	a, #0x00
   00A3 56                  176 	ld	d, (hl)
   00A4 3E 00               177 	ld	a,#0x00
   00A6 5F                  178 	ld	e, a
   00A7 CB 7B               179 	bit	7, e
   00A9 28 07               180 	jr	Z,00134$
   00AB CB 7A               181 	bit	7, d
   00AD 20 08               182 	jr	NZ,00135$
   00AF BF                  183 	cp	a, a
   00B0 18 05               184 	jr	00135$
   00B2                     185 00134$:
   00B2 CB 7A               186 	bit	7, d
   00B4 28 01               187 	jr	Z,00135$
   00B6 37                  188 	scf
   00B7                     189 00135$:
   00B7 D2r4Er01            190 	jp	NC,00106$
   00BA F8 00               191 	ldhl	sp,#0
   00BC 45                  192 	ld	b,l
   00BD 4C                  193 	ld	c,h
   00BE 58                  194 	ld	e, b
   00BF 51                  195 	ld	d, c
   00C0 1A                  196 	ld	a,(de)
   00C1 F8 08               197 	ldhl	sp,#8
   00C3 22                  198 	ld	(hl+),a
   00C4 13                  199 	inc	de
   00C5 1A                  200 	ld	a,(de)
   00C6 22                  201 	ld	(hl+),a
   00C7 13                  202 	inc	de
   00C8 1A                  203 	ld	a,(de)
   00C9 22                  204 	ld	(hl+),a
   00CA 13                  205 	inc	de
   00CB 1A                  206 	ld	a,(de)
   00CC 77                  207 	ld	(hl),a
   00CD F8 08               208 	ldhl	sp,#8
   00CF 7E                  209 	ld	a, (hl)
   00D0 D6 00               210 	sub	a, #0x00
   00D2 23                  211 	inc	hl
   00D3 7E                  212 	ld	a, (hl)
   00D4 DE 00               213 	sbc	a, #0x00
   00D6 23                  214 	inc	hl
   00D7 7E                  215 	ld	a, (hl)
   00D8 DE 00               216 	sbc	a, #0x00
   00DA 23                  217 	inc	hl
   00DB 7E                  218 	ld	a, (hl)
   00DC DE 00               219 	sbc	a, #0x00
   00DE 56                  220 	ld	d, (hl)
   00DF 3E 00               221 	ld	a,#0x00
   00E1 5F                  222 	ld	e, a
   00E2 CB 7B               223 	bit	7, e
   00E4 28 07               224 	jr	Z,00136$
   00E6 CB 7A               225 	bit	7, d
   00E8 20 08               226 	jr	NZ,00137$
   00EA BF                  227 	cp	a, a
   00EB 18 05               228 	jr	00137$
   00ED                     229 00136$:
   00ED CB 7A               230 	bit	7, d
   00EF 28 01               231 	jr	Z,00137$
   00F1 37                  232 	scf
   00F2                     233 00137$:
   00F2 D2r4Er01            234 	jp	NC,00106$
                            235 ;../_fslt.c:119: if (fl2.l < fl1.l)
   00F5 F8 00               236 	ldhl	sp,#0
   00F7 45                  237 	ld	b,l
   00F8 4C                  238 	ld	c,h
   00F9 58                  239 	ld	e, b
   00FA 51                  240 	ld	d, c
   00FB 1A                  241 	ld	a,(de)
   00FC F8 08               242 	ldhl	sp,#8
   00FE 22                  243 	ld	(hl+),a
   00FF 13                  244 	inc	de
   0100 1A                  245 	ld	a,(de)
   0101 22                  246 	ld	(hl+),a
   0102 13                  247 	inc	de
   0103 1A                  248 	ld	a,(de)
   0104 22                  249 	ld	(hl+),a
   0105 13                  250 	inc	de
   0106 1A                  251 	ld	a,(de)
   0107 77                  252 	ld	(hl),a
   0108 F8 04               253 	ldhl	sp,#4
   010A 45                  254 	ld	b,l
   010B 4C                  255 	ld	c,h
   010C 58                  256 	ld	e, b
   010D 51                  257 	ld	d, c
   010E 1A                  258 	ld	a,(de)
   010F F8 0C               259 	ldhl	sp,#12
   0111 22                  260 	ld	(hl+),a
   0112 13                  261 	inc	de
   0113 1A                  262 	ld	a,(de)
   0114 22                  263 	ld	(hl+),a
   0115 13                  264 	inc	de
   0116 1A                  265 	ld	a,(de)
   0117 22                  266 	ld	(hl+),a
   0118 13                  267 	inc	de
   0119 1A                  268 	ld	a,(de)
   011A 77                  269 	ld	(hl),a
   011B F8 08               270 	ldhl	sp,#8
   011D 54                  271 	ld	d, h
   011E 5D                  272 	ld	e, l
   011F F8 0C               273 	ldhl	sp,#12
   0121 1A                  274 	ld	a, (de)
   0122 96                  275 	sub	a, (hl)
   0123 23                  276 	inc	hl
   0124 13                  277 	inc	de
   0125 1A                  278 	ld	a, (de)
   0126 9E                  279 	sbc	a, (hl)
   0127 23                  280 	inc	hl
   0128 13                  281 	inc	de
   0129 1A                  282 	ld	a, (de)
   012A 9E                  283 	sbc	a, (hl)
   012B 23                  284 	inc	hl
   012C 13                  285 	inc	de
   012D 1A                  286 	ld	a, (de)
   012E 9E                  287 	sbc	a, (hl)
   012F 1A                  288 	ld	a, (de)
   0130 57                  289 	ld	d, a
   0131 5E                  290 	ld	e, (hl)
   0132 CB 7B               291 	bit	7, e
   0134 28 07               292 	jr	Z,00138$
   0136 CB 7A               293 	bit	7, d
   0138 20 08               294 	jr	NZ,00139$
   013A BF                  295 	cp	a, a
   013B 18 05               296 	jr	00139$
   013D                     297 00138$:
   013D CB 7A               298 	bit	7, d
   013F 28 01               299 	jr	Z,00139$
   0141 37                  300 	scf
   0142                     301 00139$:
   0142 30 05               302 	jr	NC,00104$
                            303 ;../_fslt.c:120: return (1);
   0144 1E 01               304 	ld	e,#0x01
   0146 C3rA3r01            305 	jp	00110$
   0149                     306 00104$:
                            307 ;../_fslt.c:121: return (0);
   0149 1E 00               308 	ld	e,#0x00
   014B C3rA3r01            309 	jp	00110$
   014E                     310 00106$:
                            311 ;../_fslt.c:124: if (fl1.l < fl2.l)
   014E F8 04               312 	ldhl	sp,#4
   0150 45                  313 	ld	b,l
   0151 4C                  314 	ld	c,h
   0152 58                  315 	ld	e, b
   0153 51                  316 	ld	d, c
   0154 1A                  317 	ld	a,(de)
   0155 F8 08               318 	ldhl	sp,#8
   0157 22                  319 	ld	(hl+),a
   0158 13                  320 	inc	de
   0159 1A                  321 	ld	a,(de)
   015A 22                  322 	ld	(hl+),a
   015B 13                  323 	inc	de
   015C 1A                  324 	ld	a,(de)
   015D 22                  325 	ld	(hl+),a
   015E 13                  326 	inc	de
   015F 1A                  327 	ld	a,(de)
   0160 77                  328 	ld	(hl),a
   0161 F8 00               329 	ldhl	sp,#0
   0163 45                  330 	ld	b,l
   0164 4C                  331 	ld	c,h
   0165 58                  332 	ld	e, b
   0166 51                  333 	ld	d, c
   0167 1A                  334 	ld	a,(de)
   0168 F8 0C               335 	ldhl	sp,#12
   016A 22                  336 	ld	(hl+),a
   016B 13                  337 	inc	de
   016C 1A                  338 	ld	a,(de)
   016D 22                  339 	ld	(hl+),a
   016E 13                  340 	inc	de
   016F 1A                  341 	ld	a,(de)
   0170 22                  342 	ld	(hl+),a
   0171 13                  343 	inc	de
   0172 1A                  344 	ld	a,(de)
   0173 77                  345 	ld	(hl),a
   0174 F8 08               346 	ldhl	sp,#8
   0176 54                  347 	ld	d, h
   0177 5D                  348 	ld	e, l
   0178 F8 0C               349 	ldhl	sp,#12
   017A 1A                  350 	ld	a, (de)
   017B 96                  351 	sub	a, (hl)
   017C 23                  352 	inc	hl
   017D 13                  353 	inc	de
   017E 1A                  354 	ld	a, (de)
   017F 9E                  355 	sbc	a, (hl)
   0180 23                  356 	inc	hl
   0181 13                  357 	inc	de
   0182 1A                  358 	ld	a, (de)
   0183 9E                  359 	sbc	a, (hl)
   0184 23                  360 	inc	hl
   0185 13                  361 	inc	de
   0186 1A                  362 	ld	a, (de)
   0187 9E                  363 	sbc	a, (hl)
   0188 1A                  364 	ld	a, (de)
   0189 57                  365 	ld	d, a
   018A 5E                  366 	ld	e, (hl)
   018B CB 7B               367 	bit	7, e
   018D 28 07               368 	jr	Z,00140$
   018F CB 7A               369 	bit	7, d
   0191 20 08               370 	jr	NZ,00141$
   0193 BF                  371 	cp	a, a
   0194 18 05               372 	jr	00141$
   0196                     373 00140$:
   0196 CB 7A               374 	bit	7, d
   0198 28 01               375 	jr	Z,00141$
   019A 37                  376 	scf
   019B                     377 00141$:
   019B 30 04               378 	jr	NC,00109$
                            379 ;../_fslt.c:125: return (1);
   019D 1E 01               380 	ld	e,#0x01
   019F 18 02               381 	jr	00110$
   01A1                     382 00109$:
                            383 ;../_fslt.c:126: return (0);
   01A1 1E 00               384 	ld	e,#0x00
   01A3                     385 00110$:
   01A3 E8 10               386 	add	sp, #16
   01A5 C9                  387 	ret
                            388 	.area _HOME
                            389 ;--------------------------------------------------------
                            390 ; code
                            391 ;--------------------------------------------------------
                            392 	.area _CODE
                            393 	.area _CODE
                            394 	.area _CABS (ABS)
