                              1 ;--------------------------------------------------------
                              2 ; File Created by SDCC : free open source ANSI-C Compiler
                              3 ; Version 3.5.0 #9253 (Apr  4 2022) (Linux)
                              4 ; This file was generated Mon Apr  4 14:16:44 2022
                              5 ;--------------------------------------------------------
                              6 	.module _fsmul
                              7 	.optsdcc -mgbz80
                              8 	
                              9 ;--------------------------------------------------------
                             10 ; Public variables in this module
                             11 ;--------------------------------------------------------
                             12 	.globl ___fsmul
                             13 ;--------------------------------------------------------
                             14 ; ram data
                             15 ;--------------------------------------------------------
                             16 	.area _DATA
                             17 ;--------------------------------------------------------
                             18 ; absolute external ram data
                             19 ;--------------------------------------------------------
                             20 	.area _DABS (ABS)
                             21 ;--------------------------------------------------------
                             22 ; global & static initialisations
                             23 ;--------------------------------------------------------
                             24 	.area _HOME
                             25 	.area _GSINIT
                             26 	.area _GSFINAL
                             27 	.area _GSINIT
                             28 ;--------------------------------------------------------
                             29 ; Home
                             30 ;--------------------------------------------------------
                             31 	.area _HOME
                             32 ;../_fsmul.c:241: float __fsmul (float a1, float a2) {
                             33 ;	---------------------------------
                             34 ; Function __fsmul
                             35 ; ---------------------------------
   0000                      36 ___fsmul::
   0000 E8 E9                37 	add	sp, #-23
                             38 ;../_fsmul.c:247: fl1.f = a1;
   0002 F8 0B                39 	ldhl	sp,#11
   0004 5D                   40 	ld	e,l
   0005 54                   41 	ld	d,h
   0006 F8 19                42 	ldhl	sp,#25
   0008 7E                   43 	ld	a,(hl)
   0009 12                   44 	ld	(de),a
   000A 13                   45 	inc	de
   000B 23                   46 	inc	hl
   000C 7E                   47 	ld	a,(hl)
   000D 12                   48 	ld	(de),a
   000E 13                   49 	inc	de
   000F 23                   50 	inc	hl
   0010 7E                   51 	ld	a,(hl)
   0011 12                   52 	ld	(de),a
   0012 13                   53 	inc	de
   0013 23                   54 	inc	hl
   0014 7E                   55 	ld	a,(hl)
   0015 12                   56 	ld	(de),a
                             57 ;../_fsmul.c:248: fl2.f = a2;
   0016 F8 07                58 	ldhl	sp,#7
   0018 5D                   59 	ld	e,l
   0019 54                   60 	ld	d,h
   001A F8 1D                61 	ldhl	sp,#29
   001C 7E                   62 	ld	a,(hl)
   001D 12                   63 	ld	(de),a
   001E 13                   64 	inc	de
   001F 23                   65 	inc	hl
   0020 7E                   66 	ld	a,(hl)
   0021 12                   67 	ld	(de),a
   0022 13                   68 	inc	de
   0023 23                   69 	inc	hl
   0024 7E                   70 	ld	a,(hl)
   0025 12                   71 	ld	(de),a
   0026 13                   72 	inc	de
   0027 23                   73 	inc	hl
   0028 7E                   74 	ld	a,(hl)
   0029 12                   75 	ld	(de),a
                             76 ;../_fsmul.c:250: if (!fl1.l || !fl2.l)
   002A F8 0B                77 	ldhl	sp,#11
   002C 45                   78 	ld	b,l
   002D 4C                   79 	ld	c,h
   002E 58                   80 	ld	e, b
   002F 51                   81 	ld	d, c
   0030 1A                   82 	ld	a,(de)
   0031 F8 13                83 	ldhl	sp,#19
   0033 22                   84 	ld	(hl+),a
   0034 13                   85 	inc	de
   0035 1A                   86 	ld	a,(de)
   0036 22                   87 	ld	(hl+),a
   0037 13                   88 	inc	de
   0038 1A                   89 	ld	a,(de)
   0039 22                   90 	ld	(hl+),a
   003A 13                   91 	inc	de
   003B 1A                   92 	ld	a,(de)
   003C 77                   93 	ld	(hl),a
   003D 3A                   94 	ld	a,(hl-)
   003E B6                   95 	or	a, (hl)
   003F 2B                   96 	dec	hl
   0040 B6                   97 	or	a, (hl)
   0041 2B                   98 	dec	hl
   0042 B6                   99 	or	a,(hl)
   0043 28 1B               100 	jr	Z,00101$
   0045 F8 07               101 	ldhl	sp,#7
   0047 45                  102 	ld	b,l
   0048 4C                  103 	ld	c,h
   0049 58                  104 	ld	e, b
   004A 51                  105 	ld	d, c
   004B 1A                  106 	ld	a,(de)
   004C F8 13               107 	ldhl	sp,#19
   004E 22                  108 	ld	(hl+),a
   004F 13                  109 	inc	de
   0050 1A                  110 	ld	a,(de)
   0051 22                  111 	ld	(hl+),a
   0052 13                  112 	inc	de
   0053 1A                  113 	ld	a,(de)
   0054 22                  114 	ld	(hl+),a
   0055 13                  115 	inc	de
   0056 1A                  116 	ld	a,(de)
   0057 77                  117 	ld	(hl),a
   0058 3A                  118 	ld	a,(hl-)
   0059 B6                  119 	or	a, (hl)
   005A 2B                  120 	dec	hl
   005B B6                  121 	or	a, (hl)
   005C 2B                  122 	dec	hl
   005D B6                  123 	or	a,(hl)
   005E 20 09               124 	jr	NZ,00102$
   0060                     125 00101$:
                            126 ;../_fsmul.c:251: return (0);
   0060 11 00 00            127 	ld	de,#0x0000
   0063 21 00 00            128 	ld	hl,#0x0000
   0066 C3r63r05            129 	jp	00113$
   0069                     130 00102$:
                            131 ;../_fsmul.c:254: sign = SIGN (fl1.l) ^ SIGN (fl2.l);
   0069 F8 0B               132 	ldhl	sp,#11
   006B 45                  133 	ld	b,l
   006C 4C                  134 	ld	c,h
   006D 58                  135 	ld	e, b
   006E 51                  136 	ld	d, c
   006F 1A                  137 	ld	a,(de)
   0070 F8 13               138 	ldhl	sp,#19
   0072 22                  139 	ld	(hl+),a
   0073 13                  140 	inc	de
   0074 1A                  141 	ld	a,(de)
   0075 22                  142 	ld	(hl+),a
   0076 13                  143 	inc	de
   0077 1A                  144 	ld	a,(de)
   0078 22                  145 	ld	(hl+),a
   0079 13                  146 	inc	de
   007A 1A                  147 	ld	a,(de)
   007B 77                  148 	ld	(hl),a
   007C 7E                  149 	ld	a,(hl)
   007D CB 07               150 	rlc	a
   007F E6 01               151 	and	a,#0x01
   0081 F8 13               152 	ldhl	sp,#19
   0083 77                  153 	ld	(hl),a
   0084 F8 07               154 	ldhl	sp,#7
   0086 45                  155 	ld	b,l
   0087 4C                  156 	ld	c,h
   0088 58                  157 	ld	e, b
   0089 51                  158 	ld	d, c
   008A 1A                  159 	ld	a,(de)
   008B F8 0F               160 	ldhl	sp,#15
   008D 22                  161 	ld	(hl+),a
   008E 13                  162 	inc	de
   008F 1A                  163 	ld	a,(de)
   0090 22                  164 	ld	(hl+),a
   0091 13                  165 	inc	de
   0092 1A                  166 	ld	a,(de)
   0093 22                  167 	ld	(hl+),a
   0094 13                  168 	inc	de
   0095 1A                  169 	ld	a,(de)
   0096 77                  170 	ld	(hl),a
   0097 7E                  171 	ld	a,(hl)
   0098 CB 07               172 	rlc	a
   009A E6 01               173 	and	a,#0x01
   009C 23                  174 	inc	hl
   009D AE                  175 	xor	a, (hl)
   009E F8 00               176 	ldhl	sp,#0
   00A0 77                  177 	ld	(hl),a
                            178 ;../_fsmul.c:255: exp = EXP (fl1.l) - EXCESS;
   00A1 F8 0B               179 	ldhl	sp,#11
   00A3 45                  180 	ld	b,l
   00A4 4C                  181 	ld	c,h
   00A5 58                  182 	ld	e, b
   00A6 51                  183 	ld	d, c
   00A7 1A                  184 	ld	a,(de)
   00A8 F8 0F               185 	ldhl	sp,#15
   00AA 22                  186 	ld	(hl+),a
   00AB 13                  187 	inc	de
   00AC 1A                  188 	ld	a,(de)
   00AD 22                  189 	ld	(hl+),a
   00AE 13                  190 	inc	de
   00AF 1A                  191 	ld	a,(de)
   00B0 22                  192 	ld	(hl+),a
   00B1 13                  193 	inc	de
   00B2 1A                  194 	ld	a,(de)
   00B3 77                  195 	ld	(hl),a
   00B4 F5                  196 	push	af
   00B5 F8 11               197 	ldhl	sp,#17
   00B7 56                  198 	ld	d,(hl)
   00B8 23                  199 	inc	hl
   00B9 5E                  200 	ld	e,(hl)
   00BA 23                  201 	inc	hl
   00BB 46                  202 	ld	b,(hl)
   00BC 23                  203 	inc	hl
   00BD 4E                  204 	ld	c,(hl)
   00BE F1                  205 	pop	af
   00BF 3E 17               206 	ld	a,#0x17
   00C1                     207 00143$:
   00C1 CB 39               208 	srl	c
   00C3 CB 18               209 	rr	b
   00C5 CB 1B               210 	rr	e
   00C7 CB 1A               211 	rr	d
   00C9 3D                  212 	dec	a
   00CA 20 F5               213 	jr	NZ,00143$
   00CC F8 0F               214 	ldhl	sp,#15
   00CE 72                  215 	ld	(hl),d
   00CF 23                  216 	inc	hl
   00D0 36 00               217 	ld	(hl),#0x00
   00D2 23                  218 	inc	hl
   00D3 36 00               219 	ld	(hl),#0x00
   00D5 23                  220 	inc	hl
   00D6 36 00               221 	ld	(hl),#0x00
   00D8 2B                  222 	dec	hl
   00D9 2B                  223 	dec	hl
   00DA 2B                  224 	dec	hl
   00DB 5E                  225 	ld	e,(hl)
   00DC 23                  226 	inc	hl
   00DD 56                  227 	ld	d,(hl)
   00DE 7B                  228 	ld	a,e
   00DF D6 7E               229 	sub	a, #0x7E
   00E1 5F                  230 	ld	e,a
   00E2 7A                  231 	ld	a,d
   00E3 DE 00               232 	sbc	a, #0x00
   00E5 F5                  233 	push	af
   00E6 32                  234 	ld	(hl-),a
   00E7 73                  235 	ld	(hl),e
   00E8 F8 14               236 	ldhl	sp,#20
   00EA 2B                  237 	dec	hl
   00EB 5E                  238 	ld	e,(hl)
   00EC 23                  239 	inc	hl
   00ED 56                  240 	ld	d,(hl)
   00EE F1                  241 	pop	af
   00EF 7B                  242 	ld	a,e
   00F0 DE 00               243 	sbc	a, #0x00
   00F2 5F                  244 	ld	e,a
   00F3 7A                  245 	ld	a,d
   00F4 DE 00               246 	sbc	a, #0x00
   00F6 32                  247 	ld	(hl-),a
   00F7 73                  248 	ld	(hl),e
   00F8 2B                  249 	dec	hl
   00F9 2B                  250 	dec	hl
   00FA 2A                  251 	ld	a,(hl+)
   00FB 5E                  252 	ld	e, (hl)
   00FC F8 01               253 	ldhl	sp,#1
   00FE 22                  254 	ld	(hl+),a
   00FF 73                  255 	ld	(hl),e
                            256 ;../_fsmul.c:256: exp += EXP (fl2.l);
   0100 F8 07               257 	ldhl	sp,#7
   0102 45                  258 	ld	b,l
   0103 4C                  259 	ld	c,h
   0104 58                  260 	ld	e, b
   0105 51                  261 	ld	d, c
   0106 1A                  262 	ld	a,(de)
   0107 F8 0F               263 	ldhl	sp,#15
   0109 22                  264 	ld	(hl+),a
   010A 13                  265 	inc	de
   010B 1A                  266 	ld	a,(de)
   010C 22                  267 	ld	(hl+),a
   010D 13                  268 	inc	de
   010E 1A                  269 	ld	a,(de)
   010F 22                  270 	ld	(hl+),a
   0110 13                  271 	inc	de
   0111 1A                  272 	ld	a,(de)
   0112 77                  273 	ld	(hl),a
   0113 F5                  274 	push	af
   0114 F8 11               275 	ldhl	sp,#17
   0116 56                  276 	ld	d,(hl)
   0117 23                  277 	inc	hl
   0118 5E                  278 	ld	e,(hl)
   0119 23                  279 	inc	hl
   011A 46                  280 	ld	b,(hl)
   011B 23                  281 	inc	hl
   011C 4E                  282 	ld	c,(hl)
   011D F1                  283 	pop	af
   011E 3E 17               284 	ld	a,#0x17
   0120                     285 00145$:
   0120 CB 39               286 	srl	c
   0122 CB 18               287 	rr	b
   0124 CB 1B               288 	rr	e
   0126 CB 1A               289 	rr	d
   0128 3D                  290 	dec	a
   0129 20 F5               291 	jr	NZ,00145$
   012B F8 0F               292 	ldhl	sp,#15
   012D 72                  293 	ld	(hl),d
   012E 23                  294 	inc	hl
   012F 36 00               295 	ld	(hl),#0x00
   0131 23                  296 	inc	hl
   0132 36 00               297 	ld	(hl),#0x00
   0134 23                  298 	inc	hl
   0135 36 00               299 	ld	(hl),#0x00
   0137 F8 01               300 	ldhl	sp,#1
   0139 7E                  301 	ld	a,(hl)
   013A F8 13               302 	ldhl	sp,#19
   013C 77                  303 	ld	(hl),a
   013D F8 02               304 	ldhl	sp,#2
   013F 7E                  305 	ld	a,(hl)
   0140 F8 14               306 	ldhl	sp,#20
   0142 77                  307 	ld	(hl),a
   0143 F8 02               308 	ldhl	sp,#2
   0145 7E                  309 	ld	a,(hl)
   0146 17                  310 	rla
   0147 9F                  311 	sbc	a, a
   0148 F8 15               312 	ldhl	sp,#21
   014A 22                  313 	ld	(hl+),a
   014B 32                  314 	ld	(hl-),a
   014C 2B                  315 	dec	hl
   014D 2B                  316 	dec	hl
   014E 5E                  317 	ld	e,(hl)
   014F 23                  318 	inc	hl
   0150 56                  319 	ld	d,(hl)
   0151 7B                  320 	ld	a,e
   0152 F8 0F               321 	ldhl	sp,#15
   0154 86                  322 	add	a, (hl)
   0155 5F                  323 	ld	e,a
   0156 7A                  324 	ld	a,d
   0157 23                  325 	inc	hl
   0158 8E                  326 	adc	a, (hl)
   0159 F5                  327 	push	af
   015A 32                  328 	ld	(hl-),a
   015B 73                  329 	ld	(hl),e
   015C F8 18               330 	ldhl	sp,#24
   015E 2B                  331 	dec	hl
   015F 5E                  332 	ld	e,(hl)
   0160 23                  333 	inc	hl
   0161 56                  334 	ld	d,(hl)
   0162 F8 13               335 	ldhl	sp,#19
   0164 F1                  336 	pop	af
   0165 7B                  337 	ld	a,e
   0166 8E                  338 	adc	a, (hl)
   0167 5F                  339 	ld	e,a
   0168 7A                  340 	ld	a,d
   0169 23                  341 	inc	hl
   016A 8E                  342 	adc	a, (hl)
   016B 32                  343 	ld	(hl-),a
   016C 73                  344 	ld	(hl),e
   016D 2B                  345 	dec	hl
   016E 2B                  346 	dec	hl
   016F 2A                  347 	ld	a,(hl+)
   0170 5E                  348 	ld	e, (hl)
   0171 F8 01               349 	ldhl	sp,#1
   0173 22                  350 	ld	(hl+),a
   0174 73                  351 	ld	(hl),e
                            352 ;../_fsmul.c:258: fl1.l = MANT (fl1.l);
   0175 F8 0B               353 	ldhl	sp,#11
   0177 7D                  354 	ld	a,l
   0178 54                  355 	ld	d,h
   0179 F8 0F               356 	ldhl	sp,#15
   017B 22                  357 	ld	(hl+),a
   017C 72                  358 	ld	(hl),d
   017D F8 0B               359 	ldhl	sp,#11
   017F 45                  360 	ld	b,l
   0180 4C                  361 	ld	c,h
   0181 58                  362 	ld	e, b
   0182 51                  363 	ld	d, c
   0183 1A                  364 	ld	a,(de)
   0184 F8 13               365 	ldhl	sp,#19
   0186 22                  366 	ld	(hl+),a
   0187 13                  367 	inc	de
   0188 1A                  368 	ld	a,(de)
   0189 22                  369 	ld	(hl+),a
   018A 13                  370 	inc	de
   018B 1A                  371 	ld	a,(de)
   018C 22                  372 	ld	(hl+),a
   018D 13                  373 	inc	de
   018E 1A                  374 	ld	a,(de)
   018F 77                  375 	ld	(hl),a
   0190 F8 13               376 	ldhl	sp,#19
   0192 56                  377 	ld	d,(hl)
   0193 23                  378 	inc	hl
   0194 5E                  379 	ld	e,(hl)
   0195 23                  380 	inc	hl
   0196 46                  381 	ld	b,(hl)
   0197 CB B8               382 	res	7, b
   0199 0E 00               383 	ld	c,#0x00
   019B 2B                  384 	dec	hl
   019C 2B                  385 	dec	hl
   019D 72                  386 	ld	(hl),d
   019E 23                  387 	inc	hl
   019F 73                  388 	ld	(hl),e
   01A0 78                  389 	ld	a,b
   01A1 CB FF               390 	set	7, a
   01A3 23                  391 	inc	hl
   01A4 22                  392 	ld	(hl+),a
   01A5 71                  393 	ld	(hl),c
   01A6 F8 10               394 	ldhl	sp,#16
   01A8 2B                  395 	dec	hl
   01A9 5E                  396 	ld	e,(hl)
   01AA 23                  397 	inc	hl
   01AB 56                  398 	ld	d,(hl)
   01AC F8 13               399 	ldhl	sp,#19
   01AE 7E                  400 	ld	a,(hl)
   01AF 12                  401 	ld	(de),a
   01B0 13                  402 	inc	de
   01B1 23                  403 	inc	hl
   01B2 7E                  404 	ld	a,(hl)
   01B3 12                  405 	ld	(de),a
   01B4 13                  406 	inc	de
   01B5 23                  407 	inc	hl
   01B6 7E                  408 	ld	a,(hl)
   01B7 12                  409 	ld	(de),a
   01B8 13                  410 	inc	de
   01B9 23                  411 	inc	hl
   01BA 7E                  412 	ld	a,(hl)
   01BB 12                  413 	ld	(de),a
                            414 ;../_fsmul.c:259: fl2.l = MANT (fl2.l);
   01BC F8 07               415 	ldhl	sp,#7
   01BE 7D                  416 	ld	a,l
   01BF 54                  417 	ld	d,h
   01C0 F8 0F               418 	ldhl	sp,#15
   01C2 22                  419 	ld	(hl+),a
   01C3 72                  420 	ld	(hl),d
   01C4 F8 07               421 	ldhl	sp,#7
   01C6 45                  422 	ld	b,l
   01C7 4C                  423 	ld	c,h
   01C8 58                  424 	ld	e, b
   01C9 51                  425 	ld	d, c
   01CA 1A                  426 	ld	a,(de)
   01CB F8 13               427 	ldhl	sp,#19
   01CD 22                  428 	ld	(hl+),a
   01CE 13                  429 	inc	de
   01CF 1A                  430 	ld	a,(de)
   01D0 22                  431 	ld	(hl+),a
   01D1 13                  432 	inc	de
   01D2 1A                  433 	ld	a,(de)
   01D3 22                  434 	ld	(hl+),a
   01D4 13                  435 	inc	de
   01D5 1A                  436 	ld	a,(de)
   01D6 77                  437 	ld	(hl),a
   01D7 F8 13               438 	ldhl	sp,#19
   01D9 56                  439 	ld	d,(hl)
   01DA 23                  440 	inc	hl
   01DB 5E                  441 	ld	e,(hl)
   01DC 23                  442 	inc	hl
   01DD 46                  443 	ld	b,(hl)
   01DE CB B8               444 	res	7, b
   01E0 0E 00               445 	ld	c,#0x00
   01E2 2B                  446 	dec	hl
   01E3 2B                  447 	dec	hl
   01E4 72                  448 	ld	(hl),d
   01E5 23                  449 	inc	hl
   01E6 73                  450 	ld	(hl),e
   01E7 78                  451 	ld	a,b
   01E8 CB FF               452 	set	7, a
   01EA 23                  453 	inc	hl
   01EB 22                  454 	ld	(hl+),a
   01EC 71                  455 	ld	(hl),c
   01ED F8 10               456 	ldhl	sp,#16
   01EF 2B                  457 	dec	hl
   01F0 5E                  458 	ld	e,(hl)
   01F1 23                  459 	inc	hl
   01F2 56                  460 	ld	d,(hl)
   01F3 F8 13               461 	ldhl	sp,#19
   01F5 7E                  462 	ld	a,(hl)
   01F6 12                  463 	ld	(de),a
   01F7 13                  464 	inc	de
   01F8 23                  465 	inc	hl
   01F9 7E                  466 	ld	a,(hl)
   01FA 12                  467 	ld	(de),a
   01FB 13                  468 	inc	de
   01FC 23                  469 	inc	hl
   01FD 7E                  470 	ld	a,(hl)
   01FE 12                  471 	ld	(de),a
   01FF 13                  472 	inc	de
   0200 23                  473 	inc	hl
   0201 7E                  474 	ld	a,(hl)
   0202 12                  475 	ld	(de),a
                            476 ;../_fsmul.c:262: result = (fl1.l >> 8) * (fl2.l >> 8);
   0203 F8 0B               477 	ldhl	sp,#11
   0205 45                  478 	ld	b,l
   0206 4C                  479 	ld	c,h
   0207 58                  480 	ld	e, b
   0208 51                  481 	ld	d, c
   0209 1A                  482 	ld	a,(de)
   020A F8 0F               483 	ldhl	sp,#15
   020C 22                  484 	ld	(hl+),a
   020D 13                  485 	inc	de
   020E 1A                  486 	ld	a,(de)
   020F 22                  487 	ld	(hl+),a
   0210 13                  488 	inc	de
   0211 1A                  489 	ld	a,(de)
   0212 22                  490 	ld	(hl+),a
   0213 13                  491 	inc	de
   0214 1A                  492 	ld	a,(de)
   0215 77                  493 	ld	(hl),a
   0216 F5                  494 	push	af
   0217 F1                  495 	pop	af
   0218 3E 08               496 	ld	a,#0x08
   021A                     497 00147$:
   021A F8 12               498 	ldhl	sp,#18
   021C CB 3E               499 	srl	(hl)
   021E 2B                  500 	dec	hl
   021F CB 1E               501 	rr	(hl)
   0221 2B                  502 	dec	hl
   0222 CB 1E               503 	rr	(hl)
   0224 2B                  504 	dec	hl
   0225 CB 1E               505 	rr	(hl)
   0227 3D                  506 	dec	a
   0228 20 F0               507 	jr	NZ,00147$
   022A F8 07               508 	ldhl	sp,#7
   022C 45                  509 	ld	b,l
   022D 4C                  510 	ld	c,h
   022E 58                  511 	ld	e, b
   022F 51                  512 	ld	d, c
   0230 1A                  513 	ld	a,(de)
   0231 F8 13               514 	ldhl	sp,#19
   0233 22                  515 	ld	(hl+),a
   0234 13                  516 	inc	de
   0235 1A                  517 	ld	a,(de)
   0236 22                  518 	ld	(hl+),a
   0237 13                  519 	inc	de
   0238 1A                  520 	ld	a,(de)
   0239 22                  521 	ld	(hl+),a
   023A 13                  522 	inc	de
   023B 1A                  523 	ld	a,(de)
   023C 77                  524 	ld	(hl),a
   023D F5                  525 	push	af
   023E F8 15               526 	ldhl	sp,#21
   0240 5E                  527 	ld	e,(hl)
   0241 23                  528 	inc	hl
   0242 56                  529 	ld	d,(hl)
   0243 23                  530 	inc	hl
   0244 4E                  531 	ld	c,(hl)
   0245 23                  532 	inc	hl
   0246 46                  533 	ld	b,(hl)
   0247 F1                  534 	pop	af
   0248 3E 08               535 	ld	a,#0x08
   024A                     536 00149$:
   024A CB 38               537 	srl	b
   024C CB 19               538 	rr	c
   024E CB 1A               539 	rr	d
   0250 CB 1B               540 	rr	e
   0252 3D                  541 	dec	a
   0253 20 F5               542 	jr	NZ,00149$
   0255 C5                  543 	push	bc
   0256 D5                  544 	push	de
   0257 F8 15               545 	ldhl	sp,#21
   0259 2A                  546 	ld	a,(hl+)
   025A 66                  547 	ld	h,(hl)
   025B 6F                  548 	ld	l,a
   025C E5                  549 	push	hl
   025D F8 15               550 	ldhl	sp,#21
   025F 2A                  551 	ld	a,(hl+)
   0260 66                  552 	ld	h,(hl)
   0261 6F                  553 	ld	l,a
   0262 E5                  554 	push	hl
   0263 CDr00r00            555 	call	__mullong
   0266 E8 08               556 	add	sp, #8
   0268 45                  557 	ld	b,l
   0269 4C                  558 	ld	c,h
   026A F8 03               559 	ldhl	sp,#3
   026C 73                  560 	ld	(hl),e
   026D 23                  561 	inc	hl
   026E 72                  562 	ld	(hl),d
   026F 23                  563 	inc	hl
   0270 70                  564 	ld	(hl),b
   0271 23                  565 	inc	hl
   0272 71                  566 	ld	(hl),c
                            567 ;../_fsmul.c:263: result += ((fl1.l & (unsigned long) 0xFF) * (fl2.l >> 8)) >> 8;
   0273 F8 0B               568 	ldhl	sp,#11
   0275 45                  569 	ld	b,l
   0276 4C                  570 	ld	c,h
   0277 58                  571 	ld	e, b
   0278 51                  572 	ld	d, c
   0279 1A                  573 	ld	a,(de)
   027A F8 0F               574 	ldhl	sp,#15
   027C 22                  575 	ld	(hl+),a
   027D 13                  576 	inc	de
   027E 1A                  577 	ld	a,(de)
   027F 22                  578 	ld	(hl+),a
   0280 13                  579 	inc	de
   0281 1A                  580 	ld	a,(de)
   0282 22                  581 	ld	(hl+),a
   0283 13                  582 	inc	de
   0284 1A                  583 	ld	a,(de)
   0285 32                  584 	ld	(hl-),a
   0286 2B                  585 	dec	hl
   0287 36 00               586 	ld	(hl),#0x00
   0289 23                  587 	inc	hl
   028A 36 00               588 	ld	(hl),#0x00
   028C 23                  589 	inc	hl
   028D 36 00               590 	ld	(hl),#0x00
   028F F8 07               591 	ldhl	sp,#7
   0291 45                  592 	ld	b,l
   0292 4C                  593 	ld	c,h
   0293 58                  594 	ld	e, b
   0294 51                  595 	ld	d, c
   0295 1A                  596 	ld	a,(de)
   0296 F8 13               597 	ldhl	sp,#19
   0298 22                  598 	ld	(hl+),a
   0299 13                  599 	inc	de
   029A 1A                  600 	ld	a,(de)
   029B 22                  601 	ld	(hl+),a
   029C 13                  602 	inc	de
   029D 1A                  603 	ld	a,(de)
   029E 22                  604 	ld	(hl+),a
   029F 13                  605 	inc	de
   02A0 1A                  606 	ld	a,(de)
   02A1 77                  607 	ld	(hl),a
   02A2 F5                  608 	push	af
   02A3 F8 15               609 	ldhl	sp,#21
   02A5 5E                  610 	ld	e,(hl)
   02A6 23                  611 	inc	hl
   02A7 56                  612 	ld	d,(hl)
   02A8 23                  613 	inc	hl
   02A9 4E                  614 	ld	c,(hl)
   02AA 23                  615 	inc	hl
   02AB 46                  616 	ld	b,(hl)
   02AC F1                  617 	pop	af
   02AD 3E 08               618 	ld	a,#0x08
   02AF                     619 00151$:
   02AF CB 38               620 	srl	b
   02B1 CB 19               621 	rr	c
   02B3 CB 1A               622 	rr	d
   02B5 CB 1B               623 	rr	e
   02B7 3D                  624 	dec	a
   02B8 20 F5               625 	jr	NZ,00151$
   02BA C5                  626 	push	bc
   02BB D5                  627 	push	de
   02BC F8 15               628 	ldhl	sp,#21
   02BE 2A                  629 	ld	a,(hl+)
   02BF 66                  630 	ld	h,(hl)
   02C0 6F                  631 	ld	l,a
   02C1 E5                  632 	push	hl
   02C2 F8 15               633 	ldhl	sp,#21
   02C4 2A                  634 	ld	a,(hl+)
   02C5 66                  635 	ld	h,(hl)
   02C6 6F                  636 	ld	l,a
   02C7 E5                  637 	push	hl
   02C8 CDr00r00            638 	call	__mullong
   02CB E8 08               639 	add	sp, #8
   02CD 45                  640 	ld	b,l
   02CE 4C                  641 	ld	c,h
   02CF F5                  642 	push	af
   02D0 F8 11               643 	ldhl	sp,#17
   02D2 73                  644 	ld	(hl),e
   02D3 23                  645 	inc	hl
   02D4 72                  646 	ld	(hl),d
   02D5 23                  647 	inc	hl
   02D6 70                  648 	ld	(hl),b
   02D7 23                  649 	inc	hl
   02D8 71                  650 	ld	(hl),c
   02D9 F1                  651 	pop	af
   02DA 3E 08               652 	ld	a,#0x08
   02DC                     653 00153$:
   02DC F8 12               654 	ldhl	sp,#18
   02DE CB 3E               655 	srl	(hl)
   02E0 2B                  656 	dec	hl
   02E1 CB 1E               657 	rr	(hl)
   02E3 2B                  658 	dec	hl
   02E4 CB 1E               659 	rr	(hl)
   02E6 2B                  660 	dec	hl
   02E7 CB 1E               661 	rr	(hl)
   02E9 3D                  662 	dec	a
   02EA 20 F0               663 	jr	NZ,00153$
   02EC F8 04               664 	ldhl	sp,#4
   02EE 2B                  665 	dec	hl
   02EF 5E                  666 	ld	e,(hl)
   02F0 23                  667 	inc	hl
   02F1 56                  668 	ld	d,(hl)
   02F2 7B                  669 	ld	a,e
   02F3 F8 0F               670 	ldhl	sp,#15
   02F5 86                  671 	add	a, (hl)
   02F6 5F                  672 	ld	e,a
   02F7 7A                  673 	ld	a,d
   02F8 23                  674 	inc	hl
   02F9 8E                  675 	adc	a, (hl)
   02FA F5                  676 	push	af
   02FB F8 06               677 	ldhl	sp,#6
   02FD 32                  678 	ld	(hl-),a
   02FE 73                  679 	ld	(hl),e
   02FF F8 08               680 	ldhl	sp,#8
   0301 2B                  681 	dec	hl
   0302 5E                  682 	ld	e,(hl)
   0303 23                  683 	inc	hl
   0304 56                  684 	ld	d,(hl)
   0305 F8 13               685 	ldhl	sp,#19
   0307 F1                  686 	pop	af
   0308 7B                  687 	ld	a,e
   0309 8E                  688 	adc	a, (hl)
   030A 5F                  689 	ld	e,a
   030B 7A                  690 	ld	a,d
   030C 23                  691 	inc	hl
   030D 8E                  692 	adc	a, (hl)
   030E F8 06               693 	ldhl	sp,#6
   0310 32                  694 	ld	(hl-),a
   0311 73                  695 	ld	(hl),e
                            696 ;../_fsmul.c:264: result += ((fl2.l & (unsigned long) 0xFF) * (fl1.l >> 8)) >> 8;
   0312 F8 07               697 	ldhl	sp,#7
   0314 45                  698 	ld	b,l
   0315 4C                  699 	ld	c,h
   0316 58                  700 	ld	e, b
   0317 51                  701 	ld	d, c
   0318 1A                  702 	ld	a,(de)
   0319 F8 0F               703 	ldhl	sp,#15
   031B 22                  704 	ld	(hl+),a
   031C 13                  705 	inc	de
   031D 1A                  706 	ld	a,(de)
   031E 22                  707 	ld	(hl+),a
   031F 13                  708 	inc	de
   0320 1A                  709 	ld	a,(de)
   0321 22                  710 	ld	(hl+),a
   0322 13                  711 	inc	de
   0323 1A                  712 	ld	a,(de)
   0324 32                  713 	ld	(hl-),a
   0325 2B                  714 	dec	hl
   0326 36 00               715 	ld	(hl),#0x00
   0328 23                  716 	inc	hl
   0329 36 00               717 	ld	(hl),#0x00
   032B 23                  718 	inc	hl
   032C 36 00               719 	ld	(hl),#0x00
   032E F8 0B               720 	ldhl	sp,#11
   0330 45                  721 	ld	b,l
   0331 4C                  722 	ld	c,h
   0332 58                  723 	ld	e, b
   0333 51                  724 	ld	d, c
   0334 1A                  725 	ld	a,(de)
   0335 F8 13               726 	ldhl	sp,#19
   0337 22                  727 	ld	(hl+),a
   0338 13                  728 	inc	de
   0339 1A                  729 	ld	a,(de)
   033A 22                  730 	ld	(hl+),a
   033B 13                  731 	inc	de
   033C 1A                  732 	ld	a,(de)
   033D 22                  733 	ld	(hl+),a
   033E 13                  734 	inc	de
   033F 1A                  735 	ld	a,(de)
   0340 77                  736 	ld	(hl),a
   0341 F5                  737 	push	af
   0342 F8 15               738 	ldhl	sp,#21
   0344 5E                  739 	ld	e,(hl)
   0345 23                  740 	inc	hl
   0346 56                  741 	ld	d,(hl)
   0347 23                  742 	inc	hl
   0348 4E                  743 	ld	c,(hl)
   0349 23                  744 	inc	hl
   034A 46                  745 	ld	b,(hl)
   034B F1                  746 	pop	af
   034C 3E 08               747 	ld	a,#0x08
   034E                     748 00155$:
   034E CB 38               749 	srl	b
   0350 CB 19               750 	rr	c
   0352 CB 1A               751 	rr	d
   0354 CB 1B               752 	rr	e
   0356 3D                  753 	dec	a
   0357 20 F5               754 	jr	NZ,00155$
   0359 C5                  755 	push	bc
   035A D5                  756 	push	de
   035B F8 15               757 	ldhl	sp,#21
   035D 2A                  758 	ld	a,(hl+)
   035E 66                  759 	ld	h,(hl)
   035F 6F                  760 	ld	l,a
   0360 E5                  761 	push	hl
   0361 F8 15               762 	ldhl	sp,#21
   0363 2A                  763 	ld	a,(hl+)
   0364 66                  764 	ld	h,(hl)
   0365 6F                  765 	ld	l,a
   0366 E5                  766 	push	hl
   0367 CDr00r00            767 	call	__mullong
   036A E8 08               768 	add	sp, #8
   036C 45                  769 	ld	b,l
   036D 4C                  770 	ld	c,h
   036E F5                  771 	push	af
   036F F8 11               772 	ldhl	sp,#17
   0371 73                  773 	ld	(hl),e
   0372 23                  774 	inc	hl
   0373 72                  775 	ld	(hl),d
   0374 23                  776 	inc	hl
   0375 70                  777 	ld	(hl),b
   0376 23                  778 	inc	hl
   0377 71                  779 	ld	(hl),c
   0378 F1                  780 	pop	af
   0379 3E 08               781 	ld	a,#0x08
   037B                     782 00157$:
   037B F8 12               783 	ldhl	sp,#18
   037D CB 3E               784 	srl	(hl)
   037F 2B                  785 	dec	hl
   0380 CB 1E               786 	rr	(hl)
   0382 2B                  787 	dec	hl
   0383 CB 1E               788 	rr	(hl)
   0385 2B                  789 	dec	hl
   0386 CB 1E               790 	rr	(hl)
   0388 3D                  791 	dec	a
   0389 20 F0               792 	jr	NZ,00157$
   038B F8 04               793 	ldhl	sp,#4
   038D 2B                  794 	dec	hl
   038E 5E                  795 	ld	e,(hl)
   038F 23                  796 	inc	hl
   0390 56                  797 	ld	d,(hl)
   0391 7B                  798 	ld	a,e
   0392 F8 0F               799 	ldhl	sp,#15
   0394 86                  800 	add	a, (hl)
   0395 5F                  801 	ld	e,a
   0396 7A                  802 	ld	a,d
   0397 23                  803 	inc	hl
   0398 8E                  804 	adc	a, (hl)
   0399 F5                  805 	push	af
   039A F8 06               806 	ldhl	sp,#6
   039C 32                  807 	ld	(hl-),a
   039D 73                  808 	ld	(hl),e
   039E F8 08               809 	ldhl	sp,#8
   03A0 2B                  810 	dec	hl
   03A1 5E                  811 	ld	e,(hl)
   03A2 23                  812 	inc	hl
   03A3 56                  813 	ld	d,(hl)
   03A4 F8 13               814 	ldhl	sp,#19
   03A6 F1                  815 	pop	af
   03A7 7B                  816 	ld	a,e
   03A8 8E                  817 	adc	a, (hl)
   03A9 5F                  818 	ld	e,a
   03AA 7A                  819 	ld	a,d
   03AB 23                  820 	inc	hl
   03AC 8E                  821 	adc	a, (hl)
   03AD F8 06               822 	ldhl	sp,#6
   03AF 32                  823 	ld	(hl-),a
   03B0 73                  824 	ld	(hl),e
                            825 ;../_fsmul.c:267: result += 0x40;
   03B1 2B                  826 	dec	hl
   03B2 2B                  827 	dec	hl
   03B3 5E                  828 	ld	e,(hl)
   03B4 23                  829 	inc	hl
   03B5 56                  830 	ld	d,(hl)
   03B6 7B                  831 	ld	a,e
   03B7 C6 40               832 	add	a, #0x40
   03B9 5F                  833 	ld	e,a
   03BA 7A                  834 	ld	a,d
   03BB CE 00               835 	adc	a, #0x00
   03BD F5                  836 	push	af
   03BE 32                  837 	ld	(hl-),a
   03BF 73                  838 	ld	(hl),e
   03C0 F8 08               839 	ldhl	sp,#8
   03C2 2B                  840 	dec	hl
   03C3 5E                  841 	ld	e,(hl)
   03C4 23                  842 	inc	hl
   03C5 56                  843 	ld	d,(hl)
   03C6 F1                  844 	pop	af
   03C7 7B                  845 	ld	a,e
   03C8 CE 00               846 	adc	a, #0x00
   03CA 5F                  847 	ld	e,a
   03CB 7A                  848 	ld	a,d
   03CC CE 00               849 	adc	a, #0x00
   03CE 32                  850 	ld	(hl-),a
   03CF 73                  851 	ld	(hl),e
                            852 ;../_fsmul.c:269: if (result & SIGNBIT)
   03D0 23                  853 	inc	hl
   03D1 CB 7E               854 	bit	7, (hl)
   03D3 CAr0Cr04            855 	jp	Z,00105$
                            856 ;../_fsmul.c:272: result += 0x40;
   03D6 F8 04               857 	ldhl	sp,#4
   03D8 2B                  858 	dec	hl
   03D9 5E                  859 	ld	e,(hl)
   03DA 23                  860 	inc	hl
   03DB 56                  861 	ld	d,(hl)
   03DC 7B                  862 	ld	a,e
   03DD C6 40               863 	add	a, #0x40
   03DF 5F                  864 	ld	e,a
   03E0 7A                  865 	ld	a,d
   03E1 CE 00               866 	adc	a, #0x00
   03E3 F5                  867 	push	af
   03E4 32                  868 	ld	(hl-),a
   03E5 73                  869 	ld	(hl),e
   03E6 F8 08               870 	ldhl	sp,#8
   03E8 2B                  871 	dec	hl
   03E9 5E                  872 	ld	e,(hl)
   03EA 23                  873 	inc	hl
   03EB 56                  874 	ld	d,(hl)
   03EC F1                  875 	pop	af
   03ED 7B                  876 	ld	a,e
   03EE CE 00               877 	adc	a, #0x00
   03F0 5F                  878 	ld	e,a
   03F1 7A                  879 	ld	a,d
   03F2 CE 00               880 	adc	a, #0x00
   03F4 32                  881 	ld	(hl-),a
   03F5 73                  882 	ld	(hl),e
                            883 ;../_fsmul.c:273: result >>= 8;
   03F6 F5                  884 	push	af
   03F7 F1                  885 	pop	af
   03F8 3E 08               886 	ld	a,#0x08
   03FA                     887 00160$:
   03FA F8 06               888 	ldhl	sp,#6
   03FC CB 3E               889 	srl	(hl)
   03FE 2B                  890 	dec	hl
   03FF CB 1E               891 	rr	(hl)
   0401 2B                  892 	dec	hl
   0402 CB 1E               893 	rr	(hl)
   0404 2B                  894 	dec	hl
   0405 CB 1E               895 	rr	(hl)
   0407 3D                  896 	dec	a
   0408 20 F0               897 	jr	NZ,00160$
   040A 18 1E               898 	jr	00106$
   040C                     899 00105$:
                            900 ;../_fsmul.c:277: result >>= 7;
   040C F5                  901 	push	af
   040D F1                  902 	pop	af
   040E 3E 07               903 	ld	a,#0x07
   0410                     904 00162$:
   0410 F8 06               905 	ldhl	sp,#6
   0412 CB 3E               906 	srl	(hl)
   0414 2B                  907 	dec	hl
   0415 CB 1E               908 	rr	(hl)
   0417 2B                  909 	dec	hl
   0418 CB 1E               910 	rr	(hl)
   041A 2B                  911 	dec	hl
   041B CB 1E               912 	rr	(hl)
   041D 3D                  913 	dec	a
   041E 20 F0               914 	jr	NZ,00162$
                            915 ;../_fsmul.c:278: exp--;
   0420 2B                  916 	dec	hl
   0421 2B                  917 	dec	hl
   0422 5E                  918 	ld	e,(hl)
   0423 23                  919 	inc	hl
   0424 56                  920 	ld	d,(hl)
   0425 1B                  921 	dec	de
   0426 2B                  922 	dec	hl
   0427 73                  923 	ld	(hl),e
   0428 23                  924 	inc	hl
   0429 72                  925 	ld	(hl),d
   042A                     926 00106$:
                            927 ;../_fsmul.c:281: result &= ~HIDDEN;
   042A F8 05               928 	ldhl	sp,#5
   042C 7E                  929 	ld	a,(hl)
   042D CB BF               930 	res	7, a
   042F 77                  931 	ld	(hl),a
                            932 ;../_fsmul.c:284: if (exp >= 0x100)
   0430 F8 01               933 	ldhl	sp,#1
   0432 7E                  934 	ld	a, (hl)
   0433 D6 00               935 	sub	a, #0x00
   0435 23                  936 	inc	hl
   0436 7E                  937 	ld	a, (hl)
   0437 DE 01               938 	sbc	a, #0x01
   0439 56                  939 	ld	d, (hl)
   043A 3E 01               940 	ld	a,#0x01
   043C 5F                  941 	ld	e, a
   043D CB 7B               942 	bit	7, e
   043F 28 07               943 	jr	Z,00164$
   0441 CB 7A               944 	bit	7, d
   0443 20 08               945 	jr	NZ,00165$
   0445 BF                  946 	cp	a, a
   0446 18 05               947 	jr	00165$
   0448                     948 00164$:
   0448 CB 7A               949 	bit	7, d
   044A 28 01               950 	jr	Z,00165$
   044C 37                  951 	scf
   044D                     952 00165$:
   044D DAr98r04            953 	jp	C,00111$
                            954 ;../_fsmul.c:285: fl1.l = (sign ? SIGNBIT : 0) | __INFINITY;
   0450 F8 0B               955 	ldhl	sp,#11
   0452 7D                  956 	ld	a,l
   0453 54                  957 	ld	d,h
   0454 F8 0F               958 	ldhl	sp,#15
   0456 22                  959 	ld	(hl+),a
   0457 72                  960 	ld	(hl),d
   0458 F8 00               961 	ldhl	sp,#0
   045A 7E                  962 	ld	a,(hl)
   045B B7                  963 	or	a, a
   045C 28 0A               964 	jr	Z,00115$
   045E 16 00               965 	ld	d,#0x00
   0460 1E 00               966 	ld	e,#0x00
   0462 06 00               967 	ld	b,#0x00
   0464 0E 80               968 	ld	c,#0x80
   0466 18 08               969 	jr	00116$
   0468                     970 00115$:
   0468 16 00               971 	ld	d,#0x00
   046A 1E 00               972 	ld	e,#0x00
   046C 06 00               973 	ld	b,#0x00
   046E 0E 00               974 	ld	c,#0x00
   0470                     975 00116$:
   0470 F8 13               976 	ldhl	sp,#19
   0472 72                  977 	ld	(hl),d
   0473 23                  978 	inc	hl
   0474 73                  979 	ld	(hl),e
   0475 78                  980 	ld	a,b
   0476 CB FF               981 	set	7, a
   0478 23                  982 	inc	hl
   0479 77                  983 	ld	(hl),a
   047A 79                  984 	ld	a,c
   047B F6 7F               985 	or	a, #0x7F
   047D 23                  986 	inc	hl
   047E 77                  987 	ld	(hl),a
   047F F8 10               988 	ldhl	sp,#16
   0481 2B                  989 	dec	hl
   0482 5E                  990 	ld	e,(hl)
   0483 23                  991 	inc	hl
   0484 56                  992 	ld	d,(hl)
   0485 F8 13               993 	ldhl	sp,#19
   0487 7E                  994 	ld	a,(hl)
   0488 12                  995 	ld	(de),a
   0489 13                  996 	inc	de
   048A 23                  997 	inc	hl
   048B 7E                  998 	ld	a,(hl)
   048C 12                  999 	ld	(de),a
   048D 13                 1000 	inc	de
   048E 23                 1001 	inc	hl
   048F 7E                 1002 	ld	a,(hl)
   0490 12                 1003 	ld	(de),a
   0491 13                 1004 	inc	de
   0492 23                 1005 	inc	hl
   0493 7E                 1006 	ld	a,(hl)
   0494 12                 1007 	ld	(de),a
   0495 C3r47r05           1008 	jp	00112$
   0498                    1009 00111$:
                           1010 ;../_fsmul.c:286: else if (exp < 0)
   0498 F8 01              1011 	ldhl	sp,#1
   049A 7E                 1012 	ld	a, (hl)
   049B D6 00              1013 	sub	a, #0x00
   049D 23                 1014 	inc	hl
   049E 7E                 1015 	ld	a, (hl)
   049F DE 00              1016 	sbc	a, #0x00
   04A1 56                 1017 	ld	d, (hl)
   04A2 3E 00              1018 	ld	a,#0x00
   04A4 5F                 1019 	ld	e, a
   04A5 CB 7B              1020 	bit	7, e
   04A7 28 07              1021 	jr	Z,00166$
   04A9 CB 7A              1022 	bit	7, d
   04AB 20 08              1023 	jr	NZ,00167$
   04AD BF                 1024 	cp	a, a
   04AE 18 05              1025 	jr	00167$
   04B0                    1026 00166$:
   04B0 CB 7A              1027 	bit	7, d
   04B2 28 01              1028 	jr	Z,00167$
   04B4 37                 1029 	scf
   04B5                    1030 00167$:
   04B5 30 12              1031 	jr	NC,00108$
                           1032 ;../_fsmul.c:287: fl1.l = 0;
   04B7 F8 0B              1033 	ldhl	sp,#11
   04B9 45                 1034 	ld	b,l
   04BA 4C                 1035 	ld	c,h
   04BB 36 00              1036 	ld	(hl),#0x00
   04BD 23                 1037 	inc	hl
   04BE 36 00              1038 	ld	(hl),#0x00
   04C0 23                 1039 	inc	hl
   04C1 36 00              1040 	ld	(hl),#0x00
   04C3 23                 1041 	inc	hl
   04C4 36 00              1042 	ld	(hl),#0x00
   04C6 C3r47r05           1043 	jp	00112$
   04C9                    1044 00108$:
                           1045 ;../_fsmul.c:289: fl1.l = PACK (sign ? SIGNBIT : 0 , exp, result);
   04C9 F8 0B              1046 	ldhl	sp,#11
   04CB 7D                 1047 	ld	a,l
   04CC 54                 1048 	ld	d,h
   04CD F8 0F              1049 	ldhl	sp,#15
   04CF 22                 1050 	ld	(hl+),a
   04D0 72                 1051 	ld	(hl),d
   04D1 F8 00              1052 	ldhl	sp,#0
   04D3 7E                 1053 	ld	a,(hl)
   04D4 B7                 1054 	or	a, a
   04D5 28 0F              1055 	jr	Z,00117$
   04D7 F8 13              1056 	ldhl	sp,#19
   04D9 36 00              1057 	ld	(hl),#0x00
   04DB 23                 1058 	inc	hl
   04DC 36 00              1059 	ld	(hl),#0x00
   04DE 23                 1060 	inc	hl
   04DF 36 00              1061 	ld	(hl),#0x00
   04E1 23                 1062 	inc	hl
   04E2 36 80              1063 	ld	(hl),#0x80
   04E4 18 07              1064 	jr	00118$
   04E6                    1065 00117$:
   04E6 AF                 1066 	xor	a, a
   04E7 F8 13              1067 	ldhl	sp,#19
   04E9 22                 1068 	ld	(hl+),a
   04EA 22                 1069 	ld	(hl+),a
   04EB 22                 1070 	ld	(hl+),a
   04EC 77                 1071 	ld	(hl),a
   04ED                    1072 00118$:
   04ED F8 01              1073 	ldhl	sp,#1
   04EF 5E                 1074 	ld	e,(hl)
   04F0 23                 1075 	inc	hl
   04F1 56                 1076 	ld	d,(hl)
   04F2 7E                 1077 	ld	a,(hl)
   04F3 17                 1078 	rla
   04F4 9F                 1079 	sbc	a, a
   04F5 4F                 1080 	ld	c,a
   04F6 47                 1081 	ld	b,a
   04F7 3E 17              1082 	ld	a,#0x17
   04F9                    1083 00168$:
   04F9 CB 23              1084 	sla	e
   04FB CB 12              1085 	rl	d
   04FD CB 11              1086 	rl	c
   04FF CB 10              1087 	rl	b
   0501 3D                 1088 	dec	a
   0502 20 F5              1089 	jr	NZ,00168$
   0504 7B                 1090 	ld	a,e
   0505 F8 13              1091 	ldhl	sp,#19
   0507 B6                 1092 	or	a, (hl)
   0508 5F                 1093 	ld	e,a
   0509 7A                 1094 	ld	a,d
   050A 23                 1095 	inc	hl
   050B B6                 1096 	or	a, (hl)
   050C 57                 1097 	ld	d,a
   050D 79                 1098 	ld	a,c
   050E 23                 1099 	inc	hl
   050F B6                 1100 	or	a, (hl)
   0510 4F                 1101 	ld	c,a
   0511 78                 1102 	ld	a,b
   0512 23                 1103 	inc	hl
   0513 B6                 1104 	or	a, (hl)
   0514 47                 1105 	ld	b,a
   0515 7B                 1106 	ld	a,e
   0516 F8 03              1107 	ldhl	sp,#3
   0518 B6                 1108 	or	a, (hl)
   0519 F8 13              1109 	ldhl	sp,#19
   051B 77                 1110 	ld	(hl),a
   051C 7A                 1111 	ld	a,d
   051D F8 04              1112 	ldhl	sp,#4
   051F B6                 1113 	or	a, (hl)
   0520 F8 14              1114 	ldhl	sp,#20
   0522 77                 1115 	ld	(hl),a
   0523 79                 1116 	ld	a,c
   0524 F8 05              1117 	ldhl	sp,#5
   0526 B6                 1118 	or	a, (hl)
   0527 F8 15              1119 	ldhl	sp,#21
   0529 77                 1120 	ld	(hl),a
   052A 78                 1121 	ld	a,b
   052B F8 06              1122 	ldhl	sp,#6
   052D B6                 1123 	or	a, (hl)
   052E F8 16              1124 	ldhl	sp,#22
   0530 77                 1125 	ld	(hl),a
   0531 F8 10              1126 	ldhl	sp,#16
   0533 2B                 1127 	dec	hl
   0534 5E                 1128 	ld	e,(hl)
   0535 23                 1129 	inc	hl
   0536 56                 1130 	ld	d,(hl)
   0537 F8 13              1131 	ldhl	sp,#19
   0539 7E                 1132 	ld	a,(hl)
   053A 12                 1133 	ld	(de),a
   053B 13                 1134 	inc	de
   053C 23                 1135 	inc	hl
   053D 7E                 1136 	ld	a,(hl)
   053E 12                 1137 	ld	(de),a
   053F 13                 1138 	inc	de
   0540 23                 1139 	inc	hl
   0541 7E                 1140 	ld	a,(hl)
   0542 12                 1141 	ld	(de),a
   0543 13                 1142 	inc	de
   0544 23                 1143 	inc	hl
   0545 7E                 1144 	ld	a,(hl)
   0546 12                 1145 	ld	(de),a
   0547                    1146 00112$:
                           1147 ;../_fsmul.c:290: return (fl1.f);
   0547 F8 0B              1148 	ldhl	sp,#11
   0549 45                 1149 	ld	b,l
   054A 4C                 1150 	ld	c,h
   054B 58                 1151 	ld	e, b
   054C 51                 1152 	ld	d, c
   054D 1A                 1153 	ld	a,(de)
   054E F8 0F              1154 	ldhl	sp,#15
   0550 22                 1155 	ld	(hl+),a
   0551 13                 1156 	inc	de
   0552 1A                 1157 	ld	a,(de)
   0553 22                 1158 	ld	(hl+),a
   0554 13                 1159 	inc	de
   0555 1A                 1160 	ld	a,(de)
   0556 22                 1161 	ld	(hl+),a
   0557 13                 1162 	inc	de
   0558 1A                 1163 	ld	a,(de)
   0559 32                 1164 	ld	(hl-),a
   055A 2B                 1165 	dec	hl
   055B 2B                 1166 	dec	hl
   055C 5E                 1167 	ld	e,(hl)
   055D 23                 1168 	inc	hl
   055E 56                 1169 	ld	d,(hl)
   055F 23                 1170 	inc	hl
   0560 2A                 1171 	ld	a,(hl+)
   0561 66                 1172 	ld	h,(hl)
   0562 6F                 1173 	ld	l,a
   0563                    1174 00113$:
   0563 E8 17              1175 	add	sp, #23
   0565 C9                 1176 	ret
                           1177 	.area _HOME
                           1178 ;--------------------------------------------------------
                           1179 ; code
                           1180 ;--------------------------------------------------------
                           1181 	.area _CODE
                           1182 	.area _CODE
                           1183 	.area _CABS (ABS)
