                              1 ;--------------------------------------------------------
                              2 ; File Created by SDCC : free open source ANSI-C Compiler
                              3 ; Version 3.5.0 #9253 (Apr  4 2022) (Linux)
                              4 ; This file was generated Mon Apr  4 14:16:47 2022
                              5 ;--------------------------------------------------------
                              6 	.module _mullonglong
                              7 	.optsdcc -mgbz80
                              8 	
                              9 ;--------------------------------------------------------
                             10 ; Public variables in this module
                             11 ;--------------------------------------------------------
                             12 	.globl __mullonglong
                             13 ;--------------------------------------------------------
                             14 ; ram data
                             15 ;--------------------------------------------------------
                             16 	.area _DATA
                             17 ;--------------------------------------------------------
                             18 ; absolute external ram data
                             19 ;--------------------------------------------------------
                             20 	.area _DABS (ABS)
                             21 ;--------------------------------------------------------
                             22 ; global & static initialisations
                             23 ;--------------------------------------------------------
                             24 	.area _HOME
                             25 	.area _GSINIT
                             26 	.area _GSFINAL
                             27 	.area _GSINIT
                             28 ;--------------------------------------------------------
                             29 ; Home
                             30 ;--------------------------------------------------------
                             31 	.area _HOME
                             32 ;../_mullonglong.c:35: long long _mullonglong(long long ll, long long lr)
                             33 ;	---------------------------------
                             34 ; Function _mullonglong
                             35 ; ---------------------------------
   0000                      36 __mullonglong::
   0000 E8 EB                37 	add	sp, #-21
                             38 ;../_mullonglong.c:37: unsigned long long ret = 0ull;
   0002 AF                   39 	xor	a, a
   0003 F8 03                40 	ldhl	sp,#3
   0005 22                   41 	ld	(hl+),a
   0006 22                   42 	ld	(hl+),a
   0007 22                   43 	ld	(hl+),a
   0008 22                   44 	ld	(hl+),a
   0009 22                   45 	ld	(hl+),a
   000A 22                   46 	ld	(hl+),a
   000B 22                   47 	ld	(hl+),a
   000C 77                   48 	ld	(hl),a
                             49 ;../_mullonglong.c:40: for (i = 0; i < sizeof (long long); i++)
   000D F8 02                50 	ldhl	sp,#2
   000F 36 00                51 	ld	(hl),#0x00
   0011                      52 00106$:
                             53 ;../_mullonglong.c:42: unsigned char l = ll >> (i * 8);
   0011 F8 02                54 	ldhl	sp,#2
   0013 7E                   55 	ld	a,(hl)
   0014 F8 0B                56 	ldhl	sp,#11
   0016 22                   57 	ld	(hl+),a
   0017 36 00                58 	ld	(hl),#0x00
   0019 2B                   59 	dec	hl
   001A 56                   60 	ld	d,(hl)
   001B 23                   61 	inc	hl
   001C 5E                   62 	ld	e,(hl)
   001D CB 22                63 	sla	d
   001F CB 13                64 	rl	e
   0021 CB 22                65 	sla	d
   0023 CB 13                66 	rl	e
   0025 CB 22                67 	sla	d
   0027 CB 13                68 	rl	e
   0029 F5                   69 	push	af
   002A F8 1B                70 	ldhl	sp,#27
   002C 7E                   71 	ld	a,(hl)
   002D F8 0F                72 	ldhl	sp,#15
   002F 77                   73 	ld	(hl),a
   0030 F8 1C                74 	ldhl	sp,#28
   0032 7E                   75 	ld	a,(hl)
   0033 F8 10                76 	ldhl	sp,#16
   0035 77                   77 	ld	(hl),a
   0036 F8 1D                78 	ldhl	sp,#29
   0038 7E                   79 	ld	a,(hl)
   0039 F8 11                80 	ldhl	sp,#17
   003B 77                   81 	ld	(hl),a
   003C F8 1E                82 	ldhl	sp,#30
   003E 7E                   83 	ld	a,(hl)
   003F F8 12                84 	ldhl	sp,#18
   0041 77                   85 	ld	(hl),a
   0042 F8 1F                86 	ldhl	sp,#31
   0044 7E                   87 	ld	a,(hl)
   0045 F8 13                88 	ldhl	sp,#19
   0047 77                   89 	ld	(hl),a
   0048 F8 20                90 	ldhl	sp,#32
   004A 7E                   91 	ld	a,(hl)
   004B F8 14                92 	ldhl	sp,#20
   004D 77                   93 	ld	(hl),a
   004E F8 21                94 	ldhl	sp,#33
   0050 7E                   95 	ld	a,(hl)
   0051 F8 15                96 	ldhl	sp,#21
   0053 77                   97 	ld	(hl),a
   0054 F8 22                98 	ldhl	sp,#34
   0056 7E                   99 	ld	a,(hl)
   0057 F8 16               100 	ldhl	sp,#22
   0059 77                  101 	ld	(hl),a
   005A F1                  102 	pop	af
   005B 14                  103 	inc	d
   005C 18 19               104 	jr	00131$
   005E                     105 00130$:
   005E F8 14               106 	ldhl	sp,#20
   0060 CB 2E               107 	sra	(hl)
   0062 2B                  108 	dec	hl
   0063 CB 1E               109 	rr	(hl)
   0065 2B                  110 	dec	hl
   0066 CB 1E               111 	rr	(hl)
   0068 2B                  112 	dec	hl
   0069 CB 1E               113 	rr	(hl)
   006B 2B                  114 	dec	hl
   006C CB 1E               115 	rr	(hl)
   006E 2B                  116 	dec	hl
   006F CB 1E               117 	rr	(hl)
   0071 2B                  118 	dec	hl
   0072 CB 1E               119 	rr	(hl)
   0074 2B                  120 	dec	hl
   0075 CB 1E               121 	rr	(hl)
   0077                     122 00131$:
   0077 15                  123 	dec	d
   0078 20 E4               124 	jr	NZ,00130$
   007A E5                  125 	push	hl
   007B 7E                  126 	ld	a,(hl)
   007C F8 02               127 	ldhl	sp,#2
   007E 77                  128 	ld	(hl),a
   007F E1                  129 	pop	hl
                            130 ;../_mullonglong.c:43: for(j = 0; (i + j) < sizeof (long long); j++)
   0080 F8 01               131 	ldhl	sp,#1
   0082 36 00               132 	ld	(hl),#0x00
   0084                     133 00104$:
   0084 F8 01               134 	ldhl	sp,#1
   0086 7E                  135 	ld	a,(hl)
   0087 F8 0D               136 	ldhl	sp,#13
   0089 22                  137 	ld	(hl+),a
   008A 36 00               138 	ld	(hl),#0x00
   008C 2B                  139 	dec	hl
   008D 5E                  140 	ld	e,(hl)
   008E 23                  141 	inc	hl
   008F 56                  142 	ld	d,(hl)
   0090 F8 0B               143 	ldhl	sp,#11
   0092 2A                  144 	ld	a,(hl+)
   0093 66                  145 	ld	h,(hl)
   0094 6F                  146 	ld	l,a
   0095 19                  147 	add	hl,de
   0096 4D                  148 	ld	c,l
   0097 44                  149 	ld	b,h
   0098 3E 00               150 	ld	a,#0x00
   009A 5F                  151 	ld	e,a
   009B 78                  152 	ld	a,b
   009C 57                  153 	ld	d,a
   009D 79                  154 	ld	a,c
   009E D6 08               155 	sub	a, #0x08
   00A0 78                  156 	ld	a,b
   00A1 17                  157 	rla
   00A2 3F                  158 	ccf
   00A3 1F                  159 	rra
   00A4 DE 80               160 	sbc	a, #0x80
   00A6 D2r9Er01            161 	jp	NC,00107$
                            162 ;../_mullonglong.c:45: unsigned char r = lr >> (j * 8);
   00A9 F8 0D               163 	ldhl	sp,#13
   00AB 56                  164 	ld	d,(hl)
   00AC 23                  165 	inc	hl
   00AD 5E                  166 	ld	e,(hl)
   00AE CB 22               167 	sla	d
   00B0 CB 13               168 	rl	e
   00B2 CB 22               169 	sla	d
   00B4 CB 13               170 	rl	e
   00B6 CB 22               171 	sla	d
   00B8 CB 13               172 	rl	e
   00BA F5                  173 	push	af
   00BB F8 23               174 	ldhl	sp,#35
   00BD 7E                  175 	ld	a,(hl)
   00BE F8 0F               176 	ldhl	sp,#15
   00C0 77                  177 	ld	(hl),a
   00C1 F8 24               178 	ldhl	sp,#36
   00C3 7E                  179 	ld	a,(hl)
   00C4 F8 10               180 	ldhl	sp,#16
   00C6 77                  181 	ld	(hl),a
   00C7 F8 25               182 	ldhl	sp,#37
   00C9 7E                  183 	ld	a,(hl)
   00CA F8 11               184 	ldhl	sp,#17
   00CC 77                  185 	ld	(hl),a
   00CD F8 26               186 	ldhl	sp,#38
   00CF 7E                  187 	ld	a,(hl)
   00D0 F8 12               188 	ldhl	sp,#18
   00D2 77                  189 	ld	(hl),a
   00D3 F8 27               190 	ldhl	sp,#39
   00D5 7E                  191 	ld	a,(hl)
   00D6 F8 13               192 	ldhl	sp,#19
   00D8 77                  193 	ld	(hl),a
   00D9 F8 28               194 	ldhl	sp,#40
   00DB 7E                  195 	ld	a,(hl)
   00DC F8 14               196 	ldhl	sp,#20
   00DE 77                  197 	ld	(hl),a
   00DF F8 29               198 	ldhl	sp,#41
   00E1 7E                  199 	ld	a,(hl)
   00E2 F8 15               200 	ldhl	sp,#21
   00E4 77                  201 	ld	(hl),a
   00E5 F8 2A               202 	ldhl	sp,#42
   00E7 7E                  203 	ld	a,(hl)
   00E8 F8 16               204 	ldhl	sp,#22
   00EA 77                  205 	ld	(hl),a
   00EB F1                  206 	pop	af
   00EC 14                  207 	inc	d
   00ED 18 19               208 	jr	00135$
   00EF                     209 00134$:
   00EF F8 14               210 	ldhl	sp,#20
   00F1 CB 2E               211 	sra	(hl)
   00F3 2B                  212 	dec	hl
   00F4 CB 1E               213 	rr	(hl)
   00F6 2B                  214 	dec	hl
   00F7 CB 1E               215 	rr	(hl)
   00F9 2B                  216 	dec	hl
   00FA CB 1E               217 	rr	(hl)
   00FC 2B                  218 	dec	hl
   00FD CB 1E               219 	rr	(hl)
   00FF 2B                  220 	dec	hl
   0100 CB 1E               221 	rr	(hl)
   0102 2B                  222 	dec	hl
   0103 CB 1E               223 	rr	(hl)
   0105 2B                  224 	dec	hl
   0106 CB 1E               225 	rr	(hl)
   0108                     226 00135$:
   0108 15                  227 	dec	d
   0109 20 E4               228 	jr	NZ,00134$
   010B 56                  229 	ld	d,(hl)
                            230 ;../_mullonglong.c:46: ret += (unsigned long long)((unsigned short)(l * r)) << ((i + j) * 8);
   010C C5                  231 	push	bc
   010D D5                  232 	push	de
   010E 33                  233 	inc	sp
   010F F8 03               234 	ldhl	sp,#3
   0111 7E                  235 	ld	a,(hl)
   0112 F5                  236 	push	af
   0113 33                  237 	inc	sp
   0114 CDr00r00            238 	call	__muluchar
   0117 E8 02               239 	add	sp, #2
   0119 C1                  240 	pop	bc
   011A F8 0D               241 	ldhl	sp,#13
   011C 73                  242 	ld	(hl),e
   011D 23                  243 	inc	hl
   011E 72                  244 	ld	(hl),d
   011F 23                  245 	inc	hl
   0120 36 00               246 	ld	(hl),#0x00
   0122 23                  247 	inc	hl
   0123 36 00               248 	ld	(hl),#0x00
   0125 23                  249 	inc	hl
   0126 36 00               250 	ld	(hl),#0x00
   0128 23                  251 	inc	hl
   0129 36 00               252 	ld	(hl),#0x00
   012B 23                  253 	inc	hl
   012C 36 00               254 	ld	(hl),#0x00
   012E 23                  255 	inc	hl
   012F 36 00               256 	ld	(hl),#0x00
   0131 CB 21               257 	sla	c
   0133 CB 10               258 	rl	b
   0135 CB 21               259 	sla	c
   0137 CB 10               260 	rl	b
   0139 CB 21               261 	sla	c
   013B CB 10               262 	rl	b
   013D F5                  263 	push	af
   013E F1                  264 	pop	af
   013F 0C                  265 	inc	c
   0140 18 19               266 	jr	00139$
   0142                     267 00138$:
   0142 F8 0D               268 	ldhl	sp,#13
   0144 CB 26               269 	sla	(hl)
   0146 23                  270 	inc	hl
   0147 CB 16               271 	rl	(hl)
   0149 23                  272 	inc	hl
   014A CB 16               273 	rl	(hl)
   014C 23                  274 	inc	hl
   014D CB 16               275 	rl	(hl)
   014F 23                  276 	inc	hl
   0150 CB 16               277 	rl	(hl)
   0152 23                  278 	inc	hl
   0153 CB 16               279 	rl	(hl)
   0155 23                  280 	inc	hl
   0156 CB 16               281 	rl	(hl)
   0158 23                  282 	inc	hl
   0159 CB 16               283 	rl	(hl)
   015B                     284 00139$:
   015B 0D                  285 	dec	c
   015C 20 E4               286 	jr	NZ,00138$
   015E F8 03               287 	ldhl	sp,#3
   0160 7E                  288 	ld	a,(hl)
   0161 F8 0D               289 	ldhl	sp,#13
   0163 86                  290 	add	a, (hl)
   0164 F8 03               291 	ldhl	sp,#3
   0166 22                  292 	ld	(hl+),a
   0167 7E                  293 	ld	a,(hl)
   0168 F8 0E               294 	ldhl	sp,#14
   016A 8E                  295 	adc	a, (hl)
   016B F8 04               296 	ldhl	sp,#4
   016D 22                  297 	ld	(hl+),a
   016E 7E                  298 	ld	a,(hl)
   016F F8 0F               299 	ldhl	sp,#15
   0171 8E                  300 	adc	a, (hl)
   0172 F8 05               301 	ldhl	sp,#5
   0174 22                  302 	ld	(hl+),a
   0175 7E                  303 	ld	a,(hl)
   0176 F8 10               304 	ldhl	sp,#16
   0178 8E                  305 	adc	a, (hl)
   0179 F8 06               306 	ldhl	sp,#6
   017B 22                  307 	ld	(hl+),a
   017C 7E                  308 	ld	a,(hl)
   017D F8 11               309 	ldhl	sp,#17
   017F 8E                  310 	adc	a, (hl)
   0180 F8 07               311 	ldhl	sp,#7
   0182 22                  312 	ld	(hl+),a
   0183 7E                  313 	ld	a,(hl)
   0184 F8 12               314 	ldhl	sp,#18
   0186 8E                  315 	adc	a, (hl)
   0187 F8 08               316 	ldhl	sp,#8
   0189 22                  317 	ld	(hl+),a
   018A 7E                  318 	ld	a,(hl)
   018B F8 13               319 	ldhl	sp,#19
   018D 8E                  320 	adc	a, (hl)
   018E F8 09               321 	ldhl	sp,#9
   0190 22                  322 	ld	(hl+),a
   0191 7E                  323 	ld	a,(hl)
   0192 F8 14               324 	ldhl	sp,#20
   0194 8E                  325 	adc	a, (hl)
   0195 F8 0A               326 	ldhl	sp,#10
   0197 77                  327 	ld	(hl),a
                            328 ;../_mullonglong.c:43: for(j = 0; (i + j) < sizeof (long long); j++)
   0198 F8 01               329 	ldhl	sp,#1
   019A 34                  330 	inc	(hl)
   019B C3r84r00            331 	jp	00104$
   019E                     332 00107$:
                            333 ;../_mullonglong.c:40: for (i = 0; i < sizeof (long long); i++)
   019E F8 02               334 	ldhl	sp,#2
   01A0 34                  335 	inc	(hl)
   01A1 7E                  336 	ld	a,(hl)
   01A2 D6 08               337 	sub	a, #0x08
   01A4 DAr11r00            338 	jp	C,00106$
                            339 ;../_mullonglong.c:50: return(ret);
   01A7 21 17 00            340 	ld	hl, #23
   01AA 39                  341 	add	hl, sp
   01AB 4E                  342 	ld	c, (hl)
   01AC 23                  343 	inc	hl
   01AD 46                  344 	ld	b, (hl)
   01AE F8 03               345 	ldhl	sp,#3
   01B0 7E                  346 	ld	a,(hl)
   01B1 02                  347 	ld	(bc), a
   01B2 03                  348 	inc	bc
   01B3 23                  349 	inc	hl
   01B4 7E                  350 	ld	a,(hl)
   01B5 02                  351 	ld	(bc), a
   01B6 03                  352 	inc	bc
   01B7 23                  353 	inc	hl
   01B8 7E                  354 	ld	a,(hl)
   01B9 02                  355 	ld	(bc), a
   01BA 03                  356 	inc	bc
   01BB 23                  357 	inc	hl
   01BC 7E                  358 	ld	a,(hl)
   01BD 02                  359 	ld	(bc), a
   01BE 03                  360 	inc	bc
   01BF 23                  361 	inc	hl
   01C0 7E                  362 	ld	a,(hl)
   01C1 02                  363 	ld	(bc), a
   01C2 03                  364 	inc	bc
   01C3 23                  365 	inc	hl
   01C4 7E                  366 	ld	a,(hl)
   01C5 02                  367 	ld	(bc), a
   01C6 03                  368 	inc	bc
   01C7 23                  369 	inc	hl
   01C8 7E                  370 	ld	a,(hl)
   01C9 02                  371 	ld	(bc), a
   01CA 03                  372 	inc	bc
   01CB 23                  373 	inc	hl
   01CC 7E                  374 	ld	a,(hl)
   01CD 02                  375 	ld	(bc), a
   01CE E8 15               376 	add	sp, #21
   01D0 C9                  377 	ret
                            378 	.area _HOME
                            379 ;--------------------------------------------------------
                            380 ; code
                            381 ;--------------------------------------------------------
                            382 	.area _CODE
                            383 	.area _CODE
                            384 	.area _CABS (ABS)
