                              1 ;--------------------------------------------------------
                              2 ; File Created by SDCC : free open source ANSI-C Compiler
                              3 ; Version 3.5.0 #9253 (Apr  4 2022) (Linux)
                              4 ; This file was generated Mon Apr  4 14:16:48 2022
                              5 ;--------------------------------------------------------
                              6 	.module _realloc
                              7 	.optsdcc -mgbz80
                              8 	
                              9 ;--------------------------------------------------------
                             10 ; Public variables in this module
                             11 ;--------------------------------------------------------
                             12 	.globl __sdcc_find_memheader
                             13 	.globl _memmove
                             14 	.globl _memcpy
                             15 	.globl _free
                             16 	.globl _malloc
                             17 	.globl _realloc
                             18 ;--------------------------------------------------------
                             19 ; ram data
                             20 ;--------------------------------------------------------
                             21 	.area _DATA
                             22 ;--------------------------------------------------------
                             23 ; absolute external ram data
                             24 ;--------------------------------------------------------
                             25 	.area _DABS (ABS)
                             26 ;--------------------------------------------------------
                             27 ; global & static initialisations
                             28 ;--------------------------------------------------------
                             29 	.area _HOME
                             30 	.area _GSINIT
                             31 	.area _GSFINAL
                             32 	.area _GSINIT
                             33 ;--------------------------------------------------------
                             34 ; Home
                             35 ;--------------------------------------------------------
                             36 	.area _HOME
                             37 	.area _HOME
                             38 ;--------------------------------------------------------
                             39 ; code
                             40 ;--------------------------------------------------------
                             41 	.area _CODE
                             42 ;../_realloc.c:84: void __xdata * realloc (void * p, size_t size)
                             43 ;	---------------------------------
                             44 ; Function realloc
                             45 ; ---------------------------------
   0000                      46 _realloc::
   0000 E8 F2                47 	add	sp, #-14
                             48 ;../_realloc.c:142: }
   0002 F3                   49 	di
                             50 ;../_realloc.c:92: pthis = _sdcc_find_memheader(p);
   0003 F8 10                51 	ldhl	sp,#16
   0005 2A                   52 	ld	a,(hl+)
   0006 66                   53 	ld	h,(hl)
   0007 6F                   54 	ld	l,a
   0008 E5                   55 	push	hl
   0009 CDr00r00             56 	call	__sdcc_find_memheader
   000C E8 02                57 	add	sp, #2
   000E F8 04                58 	ldhl	sp,#4
   0010 73                   59 	ld	(hl),e
   0011 23                   60 	inc	hl
   0012 72                   61 	ld	(hl),d
                             62 ;../_realloc.c:93: if (pthis)
   0013 3A                   63 	ld	a,(hl-)
   0014 B6                   64 	or	a,(hl)
   0015 CArE6r01             65 	jp	Z,00114$
                             66 ;../_realloc.c:95: if (size > (0xFFFF-HEADER_SIZE))
   0018 F8 12                67 	ldhl	sp,#18
   001A 3E F9                68 	ld	a,#0xF9
   001C 96                   69 	sub	a, (hl)
   001D 23                   70 	inc	hl
   001E 3E FF                71 	ld	a,#0xFF
   0020 9E                   72 	sbc	a, (hl)
   0021 30 0A                73 	jr	NC,00111$
                             74 ;../_realloc.c:97: ret = (void __xdata *) NULL; //To prevent overflow in next line
   0023 F8 00                75 	ldhl	sp,#0
   0025 36 00                76 	ld	(hl),#0x00
   0027 23                   77 	inc	hl
   0028 36 00                78 	ld	(hl),#0x00
   002A C3rF4r01             79 	jp	00115$
   002D                      80 00111$:
                             81 ;../_realloc.c:101: size += HEADER_SIZE; //We need a memory for header too
   002D F8 13                82 	ldhl	sp,#19
   002F 2B                   83 	dec	hl
   0030 5E                   84 	ld	e,(hl)
   0031 23                   85 	inc	hl
   0032 56                   86 	ld	d,(hl)
   0033 21 06 00             87 	ld	hl,#0x0006
   0036 19                   88 	add	hl,de
   0037 7D                   89 	ld	a,l
   0038 54                   90 	ld	d,h
   0039 F8 12                91 	ldhl	sp,#18
   003B 22                   92 	ld	(hl+),a
   003C 72                   93 	ld	(hl),d
                             94 ;../_realloc.c:103: if ((((unsigned int)pthis->next) - ((unsigned int)pthis)) >= size)
   003D F8 05                95 	ldhl	sp,#5
   003F 2B                   96 	dec	hl
   0040 5E                   97 	ld	e,(hl)
   0041 23                   98 	inc	hl
   0042 56                   99 	ld	d,(hl)
   0043 1A                  100 	ld	a,(de)
   0044 F8 0C               101 	ldhl	sp,#12
   0046 22                  102 	ld	(hl+),a
   0047 13                  103 	inc	de
   0048 1A                  104 	ld	a,(de)
   0049 32                  105 	ld	(hl-),a
   004A 2A                  106 	ld	a,(hl+)
   004B 5E                  107 	ld	e, (hl)
   004C F8 0A               108 	ldhl	sp,#10
   004E 22                  109 	ld	(hl+),a
   004F 73                  110 	ld	(hl),e
   0050 F8 04               111 	ldhl	sp,#4
   0052 2A                  112 	ld	a,(hl+)
   0053 5E                  113 	ld	e, (hl)
   0054 F8 08               114 	ldhl	sp,#8
   0056 22                  115 	ld	(hl+),a
   0057 73                  116 	ld	(hl),e
   0058 23                  117 	inc	hl
   0059 5E                  118 	ld	e,(hl)
   005A 23                  119 	inc	hl
   005B 56                  120 	ld	d,(hl)
   005C F8 08               121 	ldhl	sp,#8
   005E 2A                  122 	ld	a,(hl+)
   005F 66                  123 	ld	h,(hl)
   0060 6F                  124 	ld	l,a
   0061 7B                  125 	ld	a,e
   0062 95                  126 	sub	a,l
   0063 5F                  127 	ld	e,a
   0064 7A                  128 	ld	a,d
   0065 9C                  129 	sbc	a,h
   0066 F8 09               130 	ldhl	sp,#9
   0068 32                  131 	ld	(hl-),a
   0069 73                  132 	ld	(hl),e
                            133 ;../_realloc.c:105: pthis->len = size;
   006A F8 05               134 	ldhl	sp,#5
   006C 2B                  135 	dec	hl
   006D 5E                  136 	ld	e,(hl)
   006E 23                  137 	inc	hl
   006F 56                  138 	ld	d,(hl)
   0070 21 04 00            139 	ld	hl,#0x0004
   0073 19                  140 	add	hl,de
   0074 7D                  141 	ld	a,l
   0075 54                  142 	ld	d,h
   0076 F8 0A               143 	ldhl	sp,#10
   0078 22                  144 	ld	(hl+),a
   0079 72                  145 	ld	(hl),d
                            146 ;../_realloc.c:103: if ((((unsigned int)pthis->next) - ((unsigned int)pthis)) >= size)
   007A F8 08               147 	ldhl	sp,#8
   007C 54                  148 	ld	d, h
   007D 5D                  149 	ld	e, l
   007E F8 12               150 	ldhl	sp,#18
   0080 1A                  151 	ld	a, (de)
   0081 96                  152 	sub	a, (hl)
   0082 23                  153 	inc	hl
   0083 13                  154 	inc	de
   0084 1A                  155 	ld	a, (de)
   0085 9E                  156 	sbc	a, (hl)
   0086 38 19               157 	jr	C,00108$
                            158 ;../_realloc.c:105: pthis->len = size;
   0088 F8 0B               159 	ldhl	sp,#11
   008A 2B                  160 	dec	hl
   008B 5E                  161 	ld	e,(hl)
   008C 23                  162 	inc	hl
   008D 56                  163 	ld	d,(hl)
   008E F8 12               164 	ldhl	sp,#18
   0090 7E                  165 	ld	a,(hl)
   0091 12                  166 	ld	(de),a
   0092 13                  167 	inc	de
   0093 23                  168 	inc	hl
   0094 7E                  169 	ld	a,(hl)
   0095 12                  170 	ld	(de),a
                            171 ;../_realloc.c:106: ret = p;
   0096 F8 10               172 	ldhl	sp,#16
   0098 2A                  173 	ld	a,(hl+)
   0099 5E                  174 	ld	e, (hl)
   009A F8 00               175 	ldhl	sp,#0
   009C 22                  176 	ld	(hl+),a
   009D 73                  177 	ld	(hl),e
   009E C3rF4r01            178 	jp	00115$
   00A1                     179 00108$:
                            180 ;../_realloc.c:110: if ((_sdcc_prev_memheader) &&
   00A1 21r01r00            181 	ld	hl,#__sdcc_prev_memheader + 1
   00A4 3A                  182 	ld	a,(hl-)
   00A5 B6                  183 	or	a,(hl)
   00A6 CAr85r01            184 	jp	Z,00104$
                            185 ;../_realloc.c:111: ((((unsigned int)pthis->next) -
   00A9 F8 0C               186 	ldhl	sp,#12
   00AB 2A                  187 	ld	a,(hl+)
   00AC 5E                  188 	ld	e, (hl)
   00AD F8 08               189 	ldhl	sp,#8
   00AF 22                  190 	ld	(hl+),a
   00B0 73                  191 	ld	(hl),e
                            192 ;../_realloc.c:112: ((unsigned int)_sdcc_prev_memheader) -
   00B1 21r00r00            193 	ld	hl,#__sdcc_prev_memheader
   00B4 2A                  194 	ld	a,(hl+)
   00B5 5E                  195 	ld	e, (hl)
   00B6 F8 0C               196 	ldhl	sp,#12
   00B8 22                  197 	ld	(hl+),a
   00B9 73                  198 	ld	(hl),e
   00BA F8 09               199 	ldhl	sp,#9
   00BC 2B                  200 	dec	hl
   00BD 5E                  201 	ld	e,(hl)
   00BE 23                  202 	inc	hl
   00BF 56                  203 	ld	d,(hl)
   00C0 F8 0C               204 	ldhl	sp,#12
   00C2 2A                  205 	ld	a,(hl+)
   00C3 66                  206 	ld	h,(hl)
   00C4 6F                  207 	ld	l,a
   00C5 7B                  208 	ld	a,e
   00C6 95                  209 	sub	a,l
   00C7 5F                  210 	ld	e,a
   00C8 7A                  211 	ld	a,d
   00C9 9C                  212 	sbc	a,h
   00CA F8 09               213 	ldhl	sp,#9
   00CC 32                  214 	ld	(hl-),a
   00CD 73                  215 	ld	(hl),e
                            216 ;../_realloc.c:113: _sdcc_prev_memheader->len) >= size))
   00CE 21r00r00            217 	ld	hl,#__sdcc_prev_memheader
   00D1 2A                  218 	ld	a,(hl+)
   00D2 5E                  219 	ld	e, (hl)
   00D3 F8 0C               220 	ldhl	sp,#12
   00D5 22                  221 	ld	(hl+),a
   00D6 73                  222 	ld	(hl),e
   00D7 2B                  223 	dec	hl
   00D8 5E                  224 	ld	e,(hl)
   00D9 23                  225 	inc	hl
   00DA 56                  226 	ld	d,(hl)
   00DB 21 04 00            227 	ld	hl,#0x0004
   00DE 19                  228 	add	hl,de
   00DF 45                  229 	ld	b,l
   00E0 4C                  230 	ld	c,h
   00E1 58                  231 	ld	e, b
   00E2 51                  232 	ld	d, c
   00E3 1A                  233 	ld	a,(de)
   00E4 F8 06               234 	ldhl	sp,#6
   00E6 22                  235 	ld	(hl+),a
   00E7 13                  236 	inc	de
   00E8 1A                  237 	ld	a,(de)
   00E9 22                  238 	ld	(hl+),a
   00EA 5E                  239 	ld	e,(hl)
   00EB 23                  240 	inc	hl
   00EC 56                  241 	ld	d,(hl)
   00ED F8 06               242 	ldhl	sp,#6
   00EF 2A                  243 	ld	a,(hl+)
   00F0 66                  244 	ld	h,(hl)
   00F1 6F                  245 	ld	l,a
   00F2 7B                  246 	ld	a,e
   00F3 95                  247 	sub	a,l
   00F4 5F                  248 	ld	e,a
   00F5 7A                  249 	ld	a,d
   00F6 9C                  250 	sbc	a,h
   00F7 4F                  251 	ld	c,a
   00F8 43                  252 	ld	b,e
   00F9 F8 12               253 	ldhl	sp,#18
   00FB 78                  254 	ld	a,b
   00FC 96                  255 	sub	a, (hl)
   00FD 23                  256 	inc	hl
   00FE 79                  257 	ld	a,c
   00FF 9E                  258 	sbc	a, (hl)
   0100 DAr85r01            259 	jp	C,00104$
                            260 ;../_realloc.c:115: pnew = (MEMHEADER __xdata * )((char __xdata *)_sdcc_prev_memheader + _sdcc_prev_memheader->len);
   0103 21r01r00            261 	ld	hl,#__sdcc_prev_memheader + 1
   0106 2B                  262 	dec	hl
   0107 4E                  263 	ld	c,(hl)
   0108 23                  264 	inc	hl
   0109 46                  265 	ld	b,(hl)
   010A F8 06               266 	ldhl	sp,#6
   010C 2A                  267 	ld	a,(hl+)
   010D 66                  268 	ld	h,(hl)
   010E 6F                  269 	ld	l,a
   010F 09                  270 	add	hl,bc
   0110 4D                  271 	ld	c,l
   0111 44                  272 	ld	b,h
   0112 F8 02               273 	ldhl	sp,#2
   0114 71                  274 	ld	(hl),c
   0115 23                  275 	inc	hl
   0116 70                  276 	ld	(hl),b
                            277 ;../_realloc.c:116: _sdcc_prev_memheader->next = pnew;
   0117 F8 0D               278 	ldhl	sp,#13
   0119 2B                  279 	dec	hl
   011A 5E                  280 	ld	e,(hl)
   011B 23                  281 	inc	hl
   011C 56                  282 	ld	d,(hl)
   011D F8 02               283 	ldhl	sp,#2
   011F 7E                  284 	ld	a,(hl)
   0120 12                  285 	ld	(de),a
   0121 13                  286 	inc	de
   0122 23                  287 	inc	hl
   0123 7E                  288 	ld	a,(hl)
   0124 12                  289 	ld	(de),a
                            290 ;../_realloc.c:119: pthis->next->prev = pnew;
   0125 23                  291 	inc	hl
   0126 5E                  292 	ld	e,(hl)
   0127 23                  293 	inc	hl
   0128 56                  294 	ld	d,(hl)
   0129 1A                  295 	ld	a,(de)
   012A 4F                  296 	ld	c,a
   012B 13                  297 	inc	de
   012C 1A                  298 	ld	a,(de)
   012D 47                  299 	ld	b,a
   012E 03                  300 	inc	bc
   012F 03                  301 	inc	bc
   0130 F8 02               302 	ldhl	sp,#2
   0132 7E                  303 	ld	a,(hl)
   0133 02                  304 	ld	(bc),a
   0134 03                  305 	inc	bc
   0135 23                  306 	inc	hl
   0136 7E                  307 	ld	a,(hl)
   0137 02                  308 	ld	(bc),a
                            309 ;../_realloc.c:122: memmove(pnew, pthis, pthis->len);
   0138 F8 0B               310 	ldhl	sp,#11
   013A 2B                  311 	dec	hl
   013B 5E                  312 	ld	e,(hl)
   013C 23                  313 	inc	hl
   013D 56                  314 	ld	d,(hl)
   013E 1A                  315 	ld	a,(de)
   013F F8 06               316 	ldhl	sp,#6
   0141 22                  317 	ld	(hl+),a
   0142 13                  318 	inc	de
   0143 1A                  319 	ld	a,(de)
   0144 32                  320 	ld	(hl-),a
   0145 2B                  321 	dec	hl
   0146 2B                  322 	dec	hl
   0147 4E                  323 	ld	c,(hl)
   0148 23                  324 	inc	hl
   0149 46                  325 	ld	b,(hl)
   014A 2B                  326 	dec	hl
   014B 2B                  327 	dec	hl
   014C 2B                  328 	dec	hl
   014D 5E                  329 	ld	e,(hl)
   014E 23                  330 	inc	hl
   014F 56                  331 	ld	d,(hl)
   0150 F8 06               332 	ldhl	sp,#6
   0152 2A                  333 	ld	a,(hl+)
   0153 66                  334 	ld	h,(hl)
   0154 6F                  335 	ld	l,a
   0155 E5                  336 	push	hl
   0156 C5                  337 	push	bc
   0157 D5                  338 	push	de
   0158 CDr00r00            339 	call	_memmove
   015B E8 06               340 	add	sp, #6
                            341 ;../_realloc.c:123: pnew->len = size;
   015D F8 03               342 	ldhl	sp,#3
   015F 2B                  343 	dec	hl
   0160 5E                  344 	ld	e,(hl)
   0161 23                  345 	inc	hl
   0162 56                  346 	ld	d,(hl)
   0163 21 04 00            347 	ld	hl,#0x0004
   0166 19                  348 	add	hl,de
   0167 4D                  349 	ld	c,l
   0168 44                  350 	ld	b,h
   0169 F8 12               351 	ldhl	sp,#18
   016B 7E                  352 	ld	a,(hl)
   016C 02                  353 	ld	(bc),a
   016D 03                  354 	inc	bc
   016E 23                  355 	inc	hl
   016F 7E                  356 	ld	a,(hl)
   0170 02                  357 	ld	(bc),a
                            358 ;../_realloc.c:124: ret = MEM(pnew);
   0171 F8 03               359 	ldhl	sp,#3
   0173 2B                  360 	dec	hl
   0174 5E                  361 	ld	e,(hl)
   0175 23                  362 	inc	hl
   0176 56                  363 	ld	d,(hl)
   0177 21 06 00            364 	ld	hl,#0x0006
   017A 19                  365 	add	hl,de
   017B 45                  366 	ld	b,l
   017C 4C                  367 	ld	c,h
   017D F8 00               368 	ldhl	sp,#0
   017F 70                  369 	ld	(hl),b
   0180 23                  370 	inc	hl
   0181 71                  371 	ld	(hl),c
   0182 C3rF4r01            372 	jp	00115$
   0185                     373 00104$:
                            374 ;../_realloc.c:128: ret = malloc(size - HEADER_SIZE);
   0185 F8 13               375 	ldhl	sp,#19
   0187 2B                  376 	dec	hl
   0188 5E                  377 	ld	e,(hl)
   0189 23                  378 	inc	hl
   018A 56                  379 	ld	d,(hl)
   018B 21 06 00            380 	ld	hl,#0x0006
   018E 7B                  381 	ld	a,e
   018F 95                  382 	sub	a,l
   0190 5F                  383 	ld	e,a
   0191 7A                  384 	ld	a,d
   0192 9C                  385 	sbc	a,h
   0193 47                  386 	ld	b,a
   0194 4B                  387 	ld	c,e
   0195 C5                  388 	push	bc
   0196 CDr00r00            389 	call	_malloc
   0199 E8 02               390 	add	sp, #2
   019B 33                  391 	inc	sp
   019C 33                  392 	inc	sp
   019D D5                  393 	push	de
                            394 ;../_realloc.c:129: if (ret)
   019E F8 01               395 	ldhl	sp,#1
   01A0 3A                  396 	ld	a,(hl-)
   01A1 B6                  397 	or	a,(hl)
   01A2 CArF4r01            398 	jp	Z,00115$
                            399 ;../_realloc.c:131: memcpy(ret, MEM(pthis), pthis->len - HEADER_SIZE);
   01A5 F8 0B               400 	ldhl	sp,#11
   01A7 2B                  401 	dec	hl
   01A8 5E                  402 	ld	e,(hl)
   01A9 23                  403 	inc	hl
   01AA 56                  404 	ld	d,(hl)
   01AB 1A                  405 	ld	a,(de)
   01AC 4F                  406 	ld	c,a
   01AD 13                  407 	inc	de
   01AE 1A                  408 	ld	a,(de)
   01AF 47                  409 	ld	b,a
   01B0 79                  410 	ld	a,c
   01B1 C6 FA               411 	add	a,#0xFA
   01B3 4F                  412 	ld	c,a
   01B4 78                  413 	ld	a,b
   01B5 CE FF               414 	adc	a,#0xFF
   01B7 47                  415 	ld	b,a
   01B8 F8 05               416 	ldhl	sp,#5
   01BA 2B                  417 	dec	hl
   01BB 5E                  418 	ld	e,(hl)
   01BC 23                  419 	inc	hl
   01BD 56                  420 	ld	d,(hl)
   01BE 21 06 00            421 	ld	hl,#0x0006
   01C1 19                  422 	add	hl,de
   01C2 7D                  423 	ld	a,l
   01C3 54                  424 	ld	d,h
   01C4 F8 06               425 	ldhl	sp,#6
   01C6 22                  426 	ld	(hl+),a
   01C7 72                  427 	ld	(hl),d
   01C8 2B                  428 	dec	hl
   01C9 5E                  429 	ld	e,(hl)
   01CA 23                  430 	inc	hl
   01CB 56                  431 	ld	d,(hl)
   01CC C5                  432 	push	bc
   01CD D5                  433 	push	de
   01CE F8 04               434 	ldhl	sp,#4
   01D0 2A                  435 	ld	a,(hl+)
   01D1 66                  436 	ld	h,(hl)
   01D2 6F                  437 	ld	l,a
   01D3 E5                  438 	push	hl
   01D4 CDr00r00            439 	call	_memcpy
   01D7 E8 06               440 	add	sp, #6
                            441 ;../_realloc.c:132: free(p);
   01D9 F8 10               442 	ldhl	sp,#16
   01DB 2A                  443 	ld	a,(hl+)
   01DC 66                  444 	ld	h,(hl)
   01DD 6F                  445 	ld	l,a
   01DE E5                  446 	push	hl
   01DF CDr00r00            447 	call	_free
   01E2 E8 02               448 	add	sp, #2
   01E4 18 0E               449 	jr	00115$
   01E6                     450 00114$:
                            451 ;../_realloc.c:140: ret = malloc(size);
   01E6 F8 12               452 	ldhl	sp,#18
   01E8 2A                  453 	ld	a,(hl+)
   01E9 66                  454 	ld	h,(hl)
   01EA 6F                  455 	ld	l,a
   01EB E5                  456 	push	hl
   01EC CDr00r00            457 	call	_malloc
   01EF E8 02               458 	add	sp, #2
   01F1 33                  459 	inc	sp
   01F2 33                  460 	inc	sp
   01F3 D5                  461 	push	de
   01F4                     462 00115$:
   01F4 FB                  463 	ei
                            464 ;../_realloc.c:143: return ret;
   01F5 D1                  465 	pop	de
   01F6 D5                  466 	push	de
   01F7 E8 0E               467 	add	sp, #14
   01F9 C9                  468 	ret
                            469 	.area _CODE
                            470 	.area _CABS (ABS)
