                              1 ;--------------------------------------------------------
                              2 ; File Created by SDCC : free open source ANSI-C Compiler
                              3 ; Version 3.5.0 #9253 (Apr  4 2022) (Linux)
                              4 ; This file was generated Mon Apr  4 14:16:47 2022
                              5 ;--------------------------------------------------------
                              6 	.module isxdigit
                              7 	.optsdcc -mgbz80
                              8 	
                              9 ;--------------------------------------------------------
                             10 ; Public variables in this module
                             11 ;--------------------------------------------------------
                             12 	.globl _isxdigit
                             13 ;--------------------------------------------------------
                             14 ; ram data
                             15 ;--------------------------------------------------------
                             16 	.area _DATA
                             17 ;--------------------------------------------------------
                             18 ; absolute external ram data
                             19 ;--------------------------------------------------------
                             20 	.area _DABS (ABS)
                             21 ;--------------------------------------------------------
                             22 ; global & static initialisations
                             23 ;--------------------------------------------------------
                             24 	.area _HOME
                             25 	.area _GSINIT
                             26 	.area _GSFINAL
                             27 	.area _GSINIT
                             28 ;--------------------------------------------------------
                             29 ; Home
                             30 ;--------------------------------------------------------
                             31 	.area _HOME
                             32 	.area _HOME
                             33 ;--------------------------------------------------------
                             34 ; code
                             35 ;--------------------------------------------------------
                             36 	.area _CODE
                             37 ;../isxdigit.c:33: int isxdigit (int c)
                             38 ;	---------------------------------
                             39 ; Function isxdigit
                             40 ; ---------------------------------
   0000                      41 _isxdigit::
   0000 3B                   42 	dec	sp
                             43 ;../isxdigit.c:35: return (c >= '0' && c <= '9' || c >= 'a' && c <= 'f' || c >= 'A' && c <= 'F');
   0001 F8 03                44 	ldhl	sp,#3
   0003 7E                   45 	ld	a, (hl)
   0004 D6 30                46 	sub	a, #0x30
   0006 23                   47 	inc	hl
   0007 7E                   48 	ld	a, (hl)
   0008 DE 00                49 	sbc	a, #0x00
   000A 56                   50 	ld	d, (hl)
   000B 3E 00                51 	ld	a,#0x00
   000D 5F                   52 	ld	e, a
   000E CB 7B                53 	bit	7, e
   0010 28 07                54 	jr	Z,00130$
   0012 CB 7A                55 	bit	7, d
   0014 20 08                56 	jr	NZ,00131$
   0016 BF                   57 	cp	a, a
   0017 18 05                58 	jr	00131$
   0019                      59 00130$:
   0019 CB 7A                60 	bit	7, d
   001B 28 01                61 	jr	Z,00131$
   001D 37                   62 	scf
   001E                      63 00131$:
   001E 38 20                64 	jr	C,00111$
   0020 F8 03                65 	ldhl	sp,#3
   0022 3E 39                66 	ld	a,#0x39
   0024 96                   67 	sub	a, (hl)
   0025 23                   68 	inc	hl
   0026 3E 00                69 	ld	a,#0x00
   0028 9E                   70 	sbc	a, (hl)
   0029 3E 00                71 	ld	a,#0x00
   002B 57                   72 	ld	d, a
   002C 5E                   73 	ld	e, (hl)
   002D CB 7B                74 	bit	7, e
   002F 28 07                75 	jr	Z,00132$
   0031 CB 7A                76 	bit	7, d
   0033 20 08                77 	jr	NZ,00133$
   0035 BF                   78 	cp	a, a
   0036 18 05                79 	jr	00133$
   0038                      80 00132$:
   0038 CB 7A                81 	bit	7, d
   003A 28 01                82 	jr	Z,00133$
   003C 37                   83 	scf
   003D                      84 00133$:
   003D D2rC1r00             85 	jp	NC,00104$
   0040                      86 00111$:
   0040 F8 03                87 	ldhl	sp,#3
   0042 7E                   88 	ld	a, (hl)
   0043 D6 61                89 	sub	a, #0x61
   0045 23                   90 	inc	hl
   0046 7E                   91 	ld	a, (hl)
   0047 DE 00                92 	sbc	a, #0x00
   0049 56                   93 	ld	d, (hl)
   004A 3E 00                94 	ld	a,#0x00
   004C 5F                   95 	ld	e, a
   004D CB 7B                96 	bit	7, e
   004F 28 07                97 	jr	Z,00134$
   0051 CB 7A                98 	bit	7, d
   0053 20 08                99 	jr	NZ,00135$
   0055 BF                  100 	cp	a, a
   0056 18 05               101 	jr	00135$
   0058                     102 00134$:
   0058 CB 7A               103 	bit	7, d
   005A 28 01               104 	jr	Z,00135$
   005C 37                  105 	scf
   005D                     106 00135$:
   005D 38 20               107 	jr	C,00108$
   005F F8 03               108 	ldhl	sp,#3
   0061 3E 66               109 	ld	a,#0x66
   0063 96                  110 	sub	a, (hl)
   0064 23                  111 	inc	hl
   0065 3E 00               112 	ld	a,#0x00
   0067 9E                  113 	sbc	a, (hl)
   0068 3E 00               114 	ld	a,#0x00
   006A 57                  115 	ld	d, a
   006B 5E                  116 	ld	e, (hl)
   006C CB 7B               117 	bit	7, e
   006E 28 07               118 	jr	Z,00136$
   0070 CB 7A               119 	bit	7, d
   0072 20 08               120 	jr	NZ,00137$
   0074 BF                  121 	cp	a, a
   0075 18 05               122 	jr	00137$
   0077                     123 00136$:
   0077 CB 7A               124 	bit	7, d
   0079 28 01               125 	jr	Z,00137$
   007B 37                  126 	scf
   007C                     127 00137$:
   007C D2rC1r00            128 	jp	NC,00104$
   007F                     129 00108$:
   007F F8 03               130 	ldhl	sp,#3
   0081 7E                  131 	ld	a, (hl)
   0082 D6 41               132 	sub	a, #0x41
   0084 23                  133 	inc	hl
   0085 7E                  134 	ld	a, (hl)
   0086 DE 00               135 	sbc	a, #0x00
   0088 56                  136 	ld	d, (hl)
   0089 3E 00               137 	ld	a,#0x00
   008B 5F                  138 	ld	e, a
   008C CB 7B               139 	bit	7, e
   008E 28 07               140 	jr	Z,00138$
   0090 CB 7A               141 	bit	7, d
   0092 20 08               142 	jr	NZ,00139$
   0094 BF                  143 	cp	a, a
   0095 18 05               144 	jr	00139$
   0097                     145 00138$:
   0097 CB 7A               146 	bit	7, d
   0099 28 01               147 	jr	Z,00139$
   009B 37                  148 	scf
   009C                     149 00139$:
   009C 38 1F               150 	jr	C,00103$
   009E F8 03               151 	ldhl	sp,#3
   00A0 3E 46               152 	ld	a,#0x46
   00A2 96                  153 	sub	a, (hl)
   00A3 23                  154 	inc	hl
   00A4 3E 00               155 	ld	a,#0x00
   00A6 9E                  156 	sbc	a, (hl)
   00A7 3E 00               157 	ld	a,#0x00
   00A9 57                  158 	ld	d, a
   00AA 5E                  159 	ld	e, (hl)
   00AB CB 7B               160 	bit	7, e
   00AD 28 07               161 	jr	Z,00140$
   00AF CB 7A               162 	bit	7, d
   00B1 20 08               163 	jr	NZ,00141$
   00B3 BF                  164 	cp	a, a
   00B4 18 05               165 	jr	00141$
   00B6                     166 00140$:
   00B6 CB 7A               167 	bit	7, d
   00B8 28 01               168 	jr	Z,00141$
   00BA 37                  169 	scf
   00BB                     170 00141$:
   00BB 30 04               171 	jr	NC,00104$
   00BD                     172 00103$:
   00BD 3E 00               173 	ld	a,#0x00
   00BF 18 02               174 	jr	00105$
   00C1                     175 00104$:
   00C1 3E 01               176 	ld	a,#0x01
   00C3                     177 00105$:
   00C3 5F                  178 	ld	e,a
   00C4 17                  179 	rla
   00C5 9F                  180 	sbc	a, a
   00C6 57                  181 	ld	d,a
   00C7 33                  182 	inc	sp
   00C8 C9                  183 	ret
                            184 	.area _CODE
                            185 	.area _CABS (ABS)
