                              1 ;--------------------------------------------------------
                              2 ; File Created by SDCC : free open source ANSI-C Compiler
                              3 ; Version 3.5.0 #9253 (Apr  4 2022) (Linux)
                              4 ; This file was generated Mon Apr  4 14:16:45 2022
                              5 ;--------------------------------------------------------
                              6 	.module tancotf
                              7 	.optsdcc -mgbz80
                              8 	
                              9 ;--------------------------------------------------------
                             10 ; Public variables in this module
                             11 ;--------------------------------------------------------
                             12 	.globl _tancotf
                             13 	.globl _fabsf
                             14 ;--------------------------------------------------------
                             15 ; ram data
                             16 ;--------------------------------------------------------
                             17 	.area _DATA
                             18 ;--------------------------------------------------------
                             19 ; absolute external ram data
                             20 ;--------------------------------------------------------
                             21 	.area _DABS (ABS)
                             22 ;--------------------------------------------------------
                             23 ; global & static initialisations
                             24 ;--------------------------------------------------------
                             25 	.area _HOME
                             26 	.area _GSINIT
                             27 	.area _GSFINAL
                             28 	.area _GSINIT
                             29 ;--------------------------------------------------------
                             30 ; Home
                             31 ;--------------------------------------------------------
                             32 	.area _HOME
                             33 	.area _HOME
                             34 ;--------------------------------------------------------
                             35 ; code
                             36 ;--------------------------------------------------------
                             37 	.area _CODE
                             38 ;../tancotf.c:53: float tancotf(float x, bool iscotan)
                             39 ;	---------------------------------
                             40 ; Function tancotf
                             41 ; ---------------------------------
   0000                      42 _tancotf::
   0000 E8 E2                43 	add	sp, #-30
                             44 ;../tancotf.c:58: if (fabsf(x) > YMAX)
   0002 F8 22                45 	ldhl	sp,#34
   0004 2A                   46 	ld	a,(hl+)
   0005 66                   47 	ld	h,(hl)
   0006 6F                   48 	ld	l,a
   0007 E5                   49 	push	hl
   0008 F8 22                50 	ldhl	sp,#34
   000A 2A                   51 	ld	a,(hl+)
   000B 66                   52 	ld	h,(hl)
   000C 6F                   53 	ld	l,a
   000D E5                   54 	push	hl
   000E CDr00r00             55 	call	_fabsf
   0011 E8 04                56 	add	sp, #4
   0013 4D                   57 	ld	c,l
   0014 44                   58 	ld	b,h
   0015 21 C9 45             59 	ld	hl,#0x45C9
   0018 E5                   60 	push	hl
   0019 21 00 08             61 	ld	hl,#0x0800
   001C E5                   62 	push	hl
   001D C5                   63 	push	bc
   001E D5                   64 	push	de
   001F CDr00r00             65 	call	___fsgt
   0022 E8 08                66 	add	sp, #8
   0024 7B                   67 	ld	a,e
   0025 B7                   68 	or	a, a
   0026 28 11                69 	jr	Z,00102$
                             70 ;../tancotf.c:60: errno = ERANGE;
   0028 21r00r00             71 	ld	hl,#_errno
   002B 36 22                72 	ld	(hl),#0x22
   002D 23                   73 	inc	hl
   002E 36 00                74 	ld	(hl),#0x00
                             75 ;../tancotf.c:61: return 0.0;
   0030 11 00 00             76 	ld	de,#0x0000
   0033 21 00 00             77 	ld	hl,#0x0000
   0036 C3r6Cr03             78 	jp	00115$
   0039                      79 00102$:
                             80 ;../tancotf.c:65: n=(x*TWO_O_PI+(x>0.0?0.5:-0.5)); /*works for +-x*/
   0039 F8 22                81 	ldhl	sp,#34
   003B 2A                   82 	ld	a,(hl+)
   003C 66                   83 	ld	h,(hl)
   003D 6F                   84 	ld	l,a
   003E E5                   85 	push	hl
   003F F8 22                86 	ldhl	sp,#34
   0041 2A                   87 	ld	a,(hl+)
   0042 66                   88 	ld	h,(hl)
   0043 6F                   89 	ld	l,a
   0044 E5                   90 	push	hl
   0045 21 22 3F             91 	ld	hl,#0x3F22
   0048 E5                   92 	push	hl
   0049 21 83 F9             93 	ld	hl,#0xF983
   004C E5                   94 	push	hl
   004D CDr00r00             95 	call	___fsmul
   0050 E8 08                96 	add	sp, #8
   0052 E5                   97 	push	hl
   0053 F8 18                98 	ldhl	sp,#24
   0055 73                   99 	ld	(hl),e
   0056 23                  100 	inc	hl
   0057 72                  101 	ld	(hl),d
   0058 D1                  102 	pop	de
   0059 23                  103 	inc	hl
   005A 73                  104 	ld	(hl),e
   005B 23                  105 	inc	hl
   005C 72                  106 	ld	(hl),d
   005D 21 00 00            107 	ld	hl,#0x0000
   0060 E5                  108 	push	hl
   0061 21 00 00            109 	ld	hl,#0x0000
   0064 E5                  110 	push	hl
   0065 F8 26               111 	ldhl	sp,#38
   0067 2A                  112 	ld	a,(hl+)
   0068 66                  113 	ld	h,(hl)
   0069 6F                  114 	ld	l,a
   006A E5                  115 	push	hl
   006B F8 26               116 	ldhl	sp,#38
   006D 2A                  117 	ld	a,(hl+)
   006E 66                  118 	ld	h,(hl)
   006F 6F                  119 	ld	l,a
   0070 E5                  120 	push	hl
   0071 CDr00r00            121 	call	___fsgt
   0074 E8 08               122 	add	sp, #8
   0076 7B                  123 	ld	a,e
   0077 B7                  124 	or	a, a
   0078 28 08               125 	jr	Z,00117$
   007A 01 00 00            126 	ld	bc,#0x0000
   007D 11 00 3F            127 	ld	de,#0x3F00
   0080 18 06               128 	jr	00118$
   0082                     129 00117$:
   0082 01 00 00            130 	ld	bc,#0x0000
   0085 11 00 BF            131 	ld	de,#0xBF00
   0088                     132 00118$:
   0088 D5                  133 	push	de
   0089 C5                  134 	push	bc
   008A F8 1C               135 	ldhl	sp,#28
   008C 2A                  136 	ld	a,(hl+)
   008D 66                  137 	ld	h,(hl)
   008E 6F                  138 	ld	l,a
   008F E5                  139 	push	hl
   0090 F8 1C               140 	ldhl	sp,#28
   0092 2A                  141 	ld	a,(hl+)
   0093 66                  142 	ld	h,(hl)
   0094 6F                  143 	ld	l,a
   0095 E5                  144 	push	hl
   0096 CDr00r00            145 	call	___fsadd
   0099 E8 08               146 	add	sp, #8
   009B 4D                  147 	ld	c,l
   009C 44                  148 	ld	b,h
   009D C5                  149 	push	bc
   009E D5                  150 	push	de
   009F CDr00r00            151 	call	___fs2sint
   00A2 E8 04               152 	add	sp, #4
   00A4 33                  153 	inc	sp
   00A5 33                  154 	inc	sp
   00A6 D5                  155 	push	de
                            156 ;../tancotf.c:66: xn=n;
   00A7 E1                  157 	pop	hl
   00A8 E5                  158 	push	hl
   00A9 E5                  159 	push	hl
   00AA CDr00r00            160 	call	___sint2fs
   00AD E8 02               161 	add	sp, #2
   00AF 45                  162 	ld	b,l
   00B0 4C                  163 	ld	c,h
   00B1 F8 0A               164 	ldhl	sp,#10
   00B3 73                  165 	ld	(hl),e
   00B4 23                  166 	inc	hl
   00B5 72                  167 	ld	(hl),d
   00B6 23                  168 	inc	hl
   00B7 70                  169 	ld	(hl),b
   00B8 23                  170 	inc	hl
   00B9 71                  171 	ld	(hl),c
                            172 ;../tancotf.c:68: xnum=(int)x;
   00BA F8 22               173 	ldhl	sp,#34
   00BC 2A                  174 	ld	a,(hl+)
   00BD 66                  175 	ld	h,(hl)
   00BE 6F                  176 	ld	l,a
   00BF E5                  177 	push	hl
   00C0 F8 22               178 	ldhl	sp,#34
   00C2 2A                  179 	ld	a,(hl+)
   00C3 66                  180 	ld	h,(hl)
   00C4 6F                  181 	ld	l,a
   00C5 E5                  182 	push	hl
   00C6 CDr00r00            183 	call	___fs2sint
   00C9 E8 04               184 	add	sp, #4
   00CB D5                  185 	push	de
   00CC CDr00r00            186 	call	___sint2fs
   00CF E8 02               187 	add	sp, #2
   00D1 45                  188 	ld	b,l
   00D2 4C                  189 	ld	c,h
   00D3 F8 16               190 	ldhl	sp,#22
   00D5 73                  191 	ld	(hl),e
   00D6 23                  192 	inc	hl
   00D7 72                  193 	ld	(hl),d
   00D8 23                  194 	inc	hl
   00D9 70                  195 	ld	(hl),b
   00DA 23                  196 	inc	hl
   00DB 71                  197 	ld	(hl),c
                            198 ;../tancotf.c:69: xden=x-xnum;
   00DC 2B                  199 	dec	hl
   00DD 2A                  200 	ld	a,(hl+)
   00DE 66                  201 	ld	h,(hl)
   00DF 6F                  202 	ld	l,a
   00E0 E5                  203 	push	hl
   00E1 F8 18               204 	ldhl	sp,#24
   00E3 2A                  205 	ld	a,(hl+)
   00E4 66                  206 	ld	h,(hl)
   00E5 6F                  207 	ld	l,a
   00E6 E5                  208 	push	hl
   00E7 F8 26               209 	ldhl	sp,#38
   00E9 2A                  210 	ld	a,(hl+)
   00EA 66                  211 	ld	h,(hl)
   00EB 6F                  212 	ld	l,a
   00EC E5                  213 	push	hl
   00ED F8 26               214 	ldhl	sp,#38
   00EF 2A                  215 	ld	a,(hl+)
   00F0 66                  216 	ld	h,(hl)
   00F1 6F                  217 	ld	l,a
   00F2 E5                  218 	push	hl
   00F3 CDr00r00            219 	call	___fssub
   00F6 E8 08               220 	add	sp, #8
   00F8 45                  221 	ld	b,l
   00F9 4C                  222 	ld	c,h
   00FA F8 1A               223 	ldhl	sp,#26
   00FC 73                  224 	ld	(hl),e
   00FD 23                  225 	inc	hl
   00FE 72                  226 	ld	(hl),d
   00FF 23                  227 	inc	hl
   0100 70                  228 	ld	(hl),b
   0101 23                  229 	inc	hl
   0102 71                  230 	ld	(hl),c
                            231 ;../tancotf.c:70: f=((xnum-xn*C1)+xden)-xn*C2;
   0103 F8 0C               232 	ldhl	sp,#12
   0105 2A                  233 	ld	a,(hl+)
   0106 66                  234 	ld	h,(hl)
   0107 6F                  235 	ld	l,a
   0108 E5                  236 	push	hl
   0109 F8 0C               237 	ldhl	sp,#12
   010B 2A                  238 	ld	a,(hl+)
   010C 66                  239 	ld	h,(hl)
   010D 6F                  240 	ld	l,a
   010E E5                  241 	push	hl
   010F 21 C9 3F            242 	ld	hl,#0x3FC9
   0112 E5                  243 	push	hl
   0113 21 00 00            244 	ld	hl,#0x0000
   0116 E5                  245 	push	hl
   0117 CDr00r00            246 	call	___fsmul
   011A E8 08               247 	add	sp, #8
   011C 4D                  248 	ld	c,l
   011D 44                  249 	ld	b,h
   011E C5                  250 	push	bc
   011F D5                  251 	push	de
   0120 F8 1C               252 	ldhl	sp,#28
   0122 2A                  253 	ld	a,(hl+)
   0123 66                  254 	ld	h,(hl)
   0124 6F                  255 	ld	l,a
   0125 E5                  256 	push	hl
   0126 F8 1C               257 	ldhl	sp,#28
   0128 2A                  258 	ld	a,(hl+)
   0129 66                  259 	ld	h,(hl)
   012A 6F                  260 	ld	l,a
   012B E5                  261 	push	hl
   012C CDr00r00            262 	call	___fssub
   012F E8 08               263 	add	sp, #8
   0131 4D                  264 	ld	c,l
   0132 44                  265 	ld	b,h
   0133 F8 1C               266 	ldhl	sp,#28
   0135 2A                  267 	ld	a,(hl+)
   0136 66                  268 	ld	h,(hl)
   0137 6F                  269 	ld	l,a
   0138 E5                  270 	push	hl
   0139 F8 1C               271 	ldhl	sp,#28
   013B 2A                  272 	ld	a,(hl+)
   013C 66                  273 	ld	h,(hl)
   013D 6F                  274 	ld	l,a
   013E E5                  275 	push	hl
   013F C5                  276 	push	bc
   0140 D5                  277 	push	de
   0141 CDr00r00            278 	call	___fsadd
   0144 E8 08               279 	add	sp, #8
   0146 E5                  280 	push	hl
   0147 F8 1C               281 	ldhl	sp,#28
   0149 73                  282 	ld	(hl),e
   014A 23                  283 	inc	hl
   014B 72                  284 	ld	(hl),d
   014C D1                  285 	pop	de
   014D 23                  286 	inc	hl
   014E 73                  287 	ld	(hl),e
   014F 23                  288 	inc	hl
   0150 72                  289 	ld	(hl),d
   0151 F8 0C               290 	ldhl	sp,#12
   0153 2A                  291 	ld	a,(hl+)
   0154 66                  292 	ld	h,(hl)
   0155 6F                  293 	ld	l,a
   0156 E5                  294 	push	hl
   0157 F8 0C               295 	ldhl	sp,#12
   0159 2A                  296 	ld	a,(hl+)
   015A 66                  297 	ld	h,(hl)
   015B 6F                  298 	ld	l,a
   015C E5                  299 	push	hl
   015D 21 FD 39            300 	ld	hl,#0x39FD
   0160 E5                  301 	push	hl
   0161 21 22 AA            302 	ld	hl,#0xAA22
   0164 E5                  303 	push	hl
   0165 CDr00r00            304 	call	___fsmul
   0168 E8 08               305 	add	sp, #8
   016A 4D                  306 	ld	c,l
   016B 44                  307 	ld	b,h
   016C C5                  308 	push	bc
   016D D5                  309 	push	de
   016E F8 20               310 	ldhl	sp,#32
   0170 2A                  311 	ld	a,(hl+)
   0171 66                  312 	ld	h,(hl)
   0172 6F                  313 	ld	l,a
   0173 E5                  314 	push	hl
   0174 F8 20               315 	ldhl	sp,#32
   0176 2A                  316 	ld	a,(hl+)
   0177 66                  317 	ld	h,(hl)
   0178 6F                  318 	ld	l,a
   0179 E5                  319 	push	hl
   017A CDr00r00            320 	call	___fssub
   017D E8 08               321 	add	sp, #8
   017F 45                  322 	ld	b,l
   0180 4C                  323 	ld	c,h
   0181 F8 12               324 	ldhl	sp,#18
   0183 73                  325 	ld	(hl),e
   0184 23                  326 	inc	hl
   0185 72                  327 	ld	(hl),d
   0186 23                  328 	inc	hl
   0187 70                  329 	ld	(hl),b
   0188 23                  330 	inc	hl
   0189 71                  331 	ld	(hl),c
                            332 ;../tancotf.c:72: if (fabsf(f) < EPS)
   018A 2B                  333 	dec	hl
   018B 2A                  334 	ld	a,(hl+)
   018C 66                  335 	ld	h,(hl)
   018D 6F                  336 	ld	l,a
   018E E5                  337 	push	hl
   018F F8 14               338 	ldhl	sp,#20
   0191 2A                  339 	ld	a,(hl+)
   0192 66                  340 	ld	h,(hl)
   0193 6F                  341 	ld	l,a
   0194 E5                  342 	push	hl
   0195 CDr00r00            343 	call	_fabsf
   0198 E8 04               344 	add	sp, #4
   019A 4D                  345 	ld	c,l
   019B 44                  346 	ld	b,h
   019C 21 80 39            347 	ld	hl,#0x3980
   019F E5                  348 	push	hl
   01A0 21 00 00            349 	ld	hl,#0x0000
   01A3 E5                  350 	push	hl
   01A4 C5                  351 	push	bc
   01A5 D5                  352 	push	de
   01A6 CDr00r00            353 	call	___fslt
   01A9 E8 08               354 	add	sp, #8
   01AB 7B                  355 	ld	a,e
   01AC B7                  356 	or	a, a
   01AD 28 21               357 	jr	Z,00104$
                            358 ;../tancotf.c:74: xnum = f;
   01AF F8 12               359 	ldhl	sp,#18
   01B1 54                  360 	ld	d,h
   01B2 5D                  361 	ld	e,l
   01B3 F8 06               362 	ldhl	sp,#6
   01B5 1A                  363 	ld	a,(de)
   01B6 22                  364 	ld	(hl+),a
   01B7 13                  365 	inc	de
   01B8 1A                  366 	ld	a,(de)
   01B9 22                  367 	ld	(hl+),a
   01BA 13                  368 	inc	de
   01BB 1A                  369 	ld	a,(de)
   01BC 22                  370 	ld	(hl+),a
   01BD 13                  371 	inc	de
   01BE 1A                  372 	ld	a,(de)
   01BF 77                  373 	ld	(hl),a
                            374 ;../tancotf.c:75: xden = 1.0;
   01C0 F8 02               375 	ldhl	sp,#2
   01C2 36 00               376 	ld	(hl),#0x00
   01C4 23                  377 	inc	hl
   01C5 36 00               378 	ld	(hl),#0x00
   01C7 23                  379 	inc	hl
   01C8 36 80               380 	ld	(hl),#0x80
   01CA 23                  381 	inc	hl
   01CB 36 3F               382 	ld	(hl),#0x3F
   01CD C3rA0r02            383 	jp	00105$
   01D0                     384 00104$:
                            385 ;../tancotf.c:79: g = f*f;
   01D0 F8 14               386 	ldhl	sp,#20
   01D2 2A                  387 	ld	a,(hl+)
   01D3 66                  388 	ld	h,(hl)
   01D4 6F                  389 	ld	l,a
   01D5 E5                  390 	push	hl
   01D6 F8 14               391 	ldhl	sp,#20
   01D8 2A                  392 	ld	a,(hl+)
   01D9 66                  393 	ld	h,(hl)
   01DA 6F                  394 	ld	l,a
   01DB E5                  395 	push	hl
   01DC F8 18               396 	ldhl	sp,#24
   01DE 2A                  397 	ld	a,(hl+)
   01DF 66                  398 	ld	h,(hl)
   01E0 6F                  399 	ld	l,a
   01E1 E5                  400 	push	hl
   01E2 F8 18               401 	ldhl	sp,#24
   01E4 2A                  402 	ld	a,(hl+)
   01E5 66                  403 	ld	h,(hl)
   01E6 6F                  404 	ld	l,a
   01E7 E5                  405 	push	hl
   01E8 CDr00r00            406 	call	___fsmul
   01EB E8 08               407 	add	sp, #8
   01ED 45                  408 	ld	b,l
   01EE 4C                  409 	ld	c,h
   01EF F8 0E               410 	ldhl	sp,#14
   01F1 73                  411 	ld	(hl),e
   01F2 23                  412 	inc	hl
   01F3 72                  413 	ld	(hl),d
   01F4 23                  414 	inc	hl
   01F5 70                  415 	ld	(hl),b
   01F6 23                  416 	inc	hl
   01F7 71                  417 	ld	(hl),c
                            418 ;../tancotf.c:80: xnum = P(f,g);
   01F8 2B                  419 	dec	hl
   01F9 2A                  420 	ld	a,(hl+)
   01FA 66                  421 	ld	h,(hl)
   01FB 6F                  422 	ld	l,a
   01FC E5                  423 	push	hl
   01FD F8 10               424 	ldhl	sp,#16
   01FF 2A                  425 	ld	a,(hl+)
   0200 66                  426 	ld	h,(hl)
   0201 6F                  427 	ld	l,a
   0202 E5                  428 	push	hl
   0203 21 C4 BD            429 	ld	hl,#0xBDC4
   0206 E5                  430 	push	hl
   0207 21 B8 33            431 	ld	hl,#0x33B8
   020A E5                  432 	push	hl
   020B CDr00r00            433 	call	___fsmul
   020E E8 08               434 	add	sp, #8
   0210 4D                  435 	ld	c,l
   0211 44                  436 	ld	b,h
   0212 F8 14               437 	ldhl	sp,#20
   0214 2A                  438 	ld	a,(hl+)
   0215 66                  439 	ld	h,(hl)
   0216 6F                  440 	ld	l,a
   0217 E5                  441 	push	hl
   0218 F8 14               442 	ldhl	sp,#20
   021A 2A                  443 	ld	a,(hl+)
   021B 66                  444 	ld	h,(hl)
   021C 6F                  445 	ld	l,a
   021D E5                  446 	push	hl
   021E C5                  447 	push	bc
   021F D5                  448 	push	de
   0220 CDr00r00            449 	call	___fsmul
   0223 E8 08               450 	add	sp, #8
   0225 4D                  451 	ld	c,l
   0226 44                  452 	ld	b,h
   0227 F8 14               453 	ldhl	sp,#20
   0229 2A                  454 	ld	a,(hl+)
   022A 66                  455 	ld	h,(hl)
   022B 6F                  456 	ld	l,a
   022C E5                  457 	push	hl
   022D F8 14               458 	ldhl	sp,#20
   022F 2A                  459 	ld	a,(hl+)
   0230 66                  460 	ld	h,(hl)
   0231 6F                  461 	ld	l,a
   0232 E5                  462 	push	hl
   0233 C5                  463 	push	bc
   0234 D5                  464 	push	de
   0235 CDr00r00            465 	call	___fsadd
   0238 E8 08               466 	add	sp, #8
   023A 45                  467 	ld	b,l
   023B 4C                  468 	ld	c,h
   023C F8 06               469 	ldhl	sp,#6
   023E 73                  470 	ld	(hl),e
   023F 23                  471 	inc	hl
   0240 72                  472 	ld	(hl),d
   0241 23                  473 	inc	hl
   0242 70                  474 	ld	(hl),b
   0243 23                  475 	inc	hl
   0244 71                  476 	ld	(hl),c
                            477 ;../tancotf.c:81: xden = Q(g);
   0245 F8 10               478 	ldhl	sp,#16
   0247 2A                  479 	ld	a,(hl+)
   0248 66                  480 	ld	h,(hl)
   0249 6F                  481 	ld	l,a
   024A E5                  482 	push	hl
   024B F8 10               483 	ldhl	sp,#16
   024D 2A                  484 	ld	a,(hl+)
   024E 66                  485 	ld	h,(hl)
   024F 6F                  486 	ld	l,a
   0250 E5                  487 	push	hl
   0251 21 1F 3C            488 	ld	hl,#0x3C1F
   0254 E5                  489 	push	hl
   0255 21 75 33            490 	ld	hl,#0x3375
   0258 E5                  491 	push	hl
   0259 CDr00r00            492 	call	___fsmul
   025C E8 08               493 	add	sp, #8
   025E 4D                  494 	ld	c,l
   025F 44                  495 	ld	b,h
   0260 21 DB BE            496 	ld	hl,#0xBEDB
   0263 E5                  497 	push	hl
   0264 21 AF B7            498 	ld	hl,#0xB7AF
   0267 E5                  499 	push	hl
   0268 C5                  500 	push	bc
   0269 D5                  501 	push	de
   026A CDr00r00            502 	call	___fsadd
   026D E8 08               503 	add	sp, #8
   026F 4D                  504 	ld	c,l
   0270 44                  505 	ld	b,h
   0271 F8 10               506 	ldhl	sp,#16
   0273 2A                  507 	ld	a,(hl+)
   0274 66                  508 	ld	h,(hl)
   0275 6F                  509 	ld	l,a
   0276 E5                  510 	push	hl
   0277 F8 10               511 	ldhl	sp,#16
   0279 2A                  512 	ld	a,(hl+)
   027A 66                  513 	ld	h,(hl)
   027B 6F                  514 	ld	l,a
   027C E5                  515 	push	hl
   027D C5                  516 	push	bc
   027E D5                  517 	push	de
   027F CDr00r00            518 	call	___fsmul
   0282 E8 08               519 	add	sp, #8
   0284 4D                  520 	ld	c,l
   0285 44                  521 	ld	b,h
   0286 21 80 3F            522 	ld	hl,#0x3F80
   0289 E5                  523 	push	hl
   028A 21 00 00            524 	ld	hl,#0x0000
   028D E5                  525 	push	hl
   028E C5                  526 	push	bc
   028F D5                  527 	push	de
   0290 CDr00r00            528 	call	___fsadd
   0293 E8 08               529 	add	sp, #8
   0295 45                  530 	ld	b,l
   0296 4C                  531 	ld	c,h
   0297 F8 02               532 	ldhl	sp,#2
   0299 73                  533 	ld	(hl),e
   029A 23                  534 	inc	hl
   029B 72                  535 	ld	(hl),d
   029C 23                  536 	inc	hl
   029D 70                  537 	ld	(hl),b
   029E 23                  538 	inc	hl
   029F 71                  539 	ld	(hl),c
   02A0                     540 00105$:
                            541 ;../tancotf.c:84: if(n&1)
   02A0 F8 00               542 	ldhl	sp,#0
   02A2 CB 46               543 	bit	0, (hl)
   02A4 CAr26r03            544 	jp	Z,00113$
                            545 ;../tancotf.c:87: if(iscotan) return (-xnum/xden);
   02A7 F8 24               546 	ldhl	sp,#36
   02A9 CB 46               547 	bit	0,(hl)
   02AB CArEAr02            548 	jp	Z,00107$
   02AE F8 09               549 	ldhl	sp,#9
   02B0 7E                  550 	ld	a,(hl)
   02B1 EE 80               551 	xor	a,#0x80
   02B3 F8 1D               552 	ldhl	sp,#29
   02B5 77                  553 	ld	(hl),a
   02B6 F8 06               554 	ldhl	sp,#6
   02B8 7E                  555 	ld	a,(hl)
   02B9 F8 1A               556 	ldhl	sp,#26
   02BB 77                  557 	ld	(hl),a
   02BC F8 07               558 	ldhl	sp,#7
   02BE 7E                  559 	ld	a,(hl)
   02BF F8 1B               560 	ldhl	sp,#27
   02C1 77                  561 	ld	(hl),a
   02C2 F8 08               562 	ldhl	sp,#8
   02C4 7E                  563 	ld	a,(hl)
   02C5 F8 1C               564 	ldhl	sp,#28
   02C7 77                  565 	ld	(hl),a
   02C8 F8 04               566 	ldhl	sp,#4
   02CA 2A                  567 	ld	a,(hl+)
   02CB 66                  568 	ld	h,(hl)
   02CC 6F                  569 	ld	l,a
   02CD E5                  570 	push	hl
   02CE F8 04               571 	ldhl	sp,#4
   02D0 2A                  572 	ld	a,(hl+)
   02D1 66                  573 	ld	h,(hl)
   02D2 6F                  574 	ld	l,a
   02D3 E5                  575 	push	hl
   02D4 F8 20               576 	ldhl	sp,#32
   02D6 2A                  577 	ld	a,(hl+)
   02D7 66                  578 	ld	h,(hl)
   02D8 6F                  579 	ld	l,a
   02D9 E5                  580 	push	hl
   02DA F8 20               581 	ldhl	sp,#32
   02DC 2A                  582 	ld	a,(hl+)
   02DD 66                  583 	ld	h,(hl)
   02DE 6F                  584 	ld	l,a
   02DF E5                  585 	push	hl
   02E0 CDr00r00            586 	call	___fsdiv
   02E3 E8 08               587 	add	sp, #8
   02E5 45                  588 	ld	b,l
   02E6 4C                  589 	ld	c,h
   02E7 C3r6Cr03            590 	jp	00115$
   02EA                     591 00107$:
                            592 ;../tancotf.c:88: else return (-xden/xnum);
   02EA F8 05               593 	ldhl	sp,#5
   02EC 7E                  594 	ld	a,(hl)
   02ED EE 80               595 	xor	a,#0x80
   02EF F8 1D               596 	ldhl	sp,#29
   02F1 77                  597 	ld	(hl),a
   02F2 F8 02               598 	ldhl	sp,#2
   02F4 7E                  599 	ld	a,(hl)
   02F5 F8 1A               600 	ldhl	sp,#26
   02F7 77                  601 	ld	(hl),a
   02F8 F8 03               602 	ldhl	sp,#3
   02FA 7E                  603 	ld	a,(hl)
   02FB F8 1B               604 	ldhl	sp,#27
   02FD 77                  605 	ld	(hl),a
   02FE F8 04               606 	ldhl	sp,#4
   0300 7E                  607 	ld	a,(hl)
   0301 F8 1C               608 	ldhl	sp,#28
   0303 77                  609 	ld	(hl),a
   0304 F8 08               610 	ldhl	sp,#8
   0306 2A                  611 	ld	a,(hl+)
   0307 66                  612 	ld	h,(hl)
   0308 6F                  613 	ld	l,a
   0309 E5                  614 	push	hl
   030A F8 08               615 	ldhl	sp,#8
   030C 2A                  616 	ld	a,(hl+)
   030D 66                  617 	ld	h,(hl)
   030E 6F                  618 	ld	l,a
   030F E5                  619 	push	hl
   0310 F8 20               620 	ldhl	sp,#32
   0312 2A                  621 	ld	a,(hl+)
   0313 66                  622 	ld	h,(hl)
   0314 6F                  623 	ld	l,a
   0315 E5                  624 	push	hl
   0316 F8 20               625 	ldhl	sp,#32
   0318 2A                  626 	ld	a,(hl+)
   0319 66                  627 	ld	h,(hl)
   031A 6F                  628 	ld	l,a
   031B E5                  629 	push	hl
   031C CDr00r00            630 	call	___fsdiv
   031F E8 08               631 	add	sp, #8
   0321 45                  632 	ld	b,l
   0322 4C                  633 	ld	c,h
   0323 C3r6Cr03            634 	jp	00115$
   0326                     635 00113$:
                            636 ;../tancotf.c:92: if(iscotan) return (xden/xnum);
   0326 F8 24               637 	ldhl	sp,#36
   0328 CB 46               638 	bit	0,(hl)
   032A 28 21               639 	jr	Z,00110$
   032C F8 08               640 	ldhl	sp,#8
   032E 2A                  641 	ld	a,(hl+)
   032F 66                  642 	ld	h,(hl)
   0330 6F                  643 	ld	l,a
   0331 E5                  644 	push	hl
   0332 F8 08               645 	ldhl	sp,#8
   0334 2A                  646 	ld	a,(hl+)
   0335 66                  647 	ld	h,(hl)
   0336 6F                  648 	ld	l,a
   0337 E5                  649 	push	hl
   0338 F8 08               650 	ldhl	sp,#8
   033A 2A                  651 	ld	a,(hl+)
   033B 66                  652 	ld	h,(hl)
   033C 6F                  653 	ld	l,a
   033D E5                  654 	push	hl
   033E F8 08               655 	ldhl	sp,#8
   0340 2A                  656 	ld	a,(hl+)
   0341 66                  657 	ld	h,(hl)
   0342 6F                  658 	ld	l,a
   0343 E5                  659 	push	hl
   0344 CDr00r00            660 	call	___fsdiv
   0347 E8 08               661 	add	sp, #8
   0349 45                  662 	ld	b,l
   034A 4C                  663 	ld	c,h
   034B 18 1F               664 	jr	00115$
   034D                     665 00110$:
                            666 ;../tancotf.c:93: else return (xnum/xden);
   034D F8 04               667 	ldhl	sp,#4
   034F 2A                  668 	ld	a,(hl+)
   0350 66                  669 	ld	h,(hl)
   0351 6F                  670 	ld	l,a
   0352 E5                  671 	push	hl
   0353 F8 04               672 	ldhl	sp,#4
   0355 2A                  673 	ld	a,(hl+)
   0356 66                  674 	ld	h,(hl)
   0357 6F                  675 	ld	l,a
   0358 E5                  676 	push	hl
   0359 F8 0C               677 	ldhl	sp,#12
   035B 2A                  678 	ld	a,(hl+)
   035C 66                  679 	ld	h,(hl)
   035D 6F                  680 	ld	l,a
   035E E5                  681 	push	hl
   035F F8 0C               682 	ldhl	sp,#12
   0361 2A                  683 	ld	a,(hl+)
   0362 66                  684 	ld	h,(hl)
   0363 6F                  685 	ld	l,a
   0364 E5                  686 	push	hl
   0365 CDr00r00            687 	call	___fsdiv
   0368 E8 08               688 	add	sp, #8
   036A 45                  689 	ld	b,l
   036B 4C                  690 	ld	c,h
   036C                     691 00115$:
   036C E8 1E               692 	add	sp, #30
   036E C9                  693 	ret
                            694 	.area _CODE
                            695 	.area _CABS (ABS)
