                              1 ;--------------------------------------------------------
                              2 ; File Created by SDCC : free open source ANSI-C Compiler
                              3 ; Version 3.5.0 #9253 (Apr  4 2022) (Linux)
                              4 ; This file was generated Mon Apr  4 14:16:27 2022
                              5 ;--------------------------------------------------------
                              6 	.module _fsadd
                              7 	.optsdcc -mtlcs90
                              8 	
                              9 ;--------------------------------------------------------
                             10 ; Public variables in this module
                             11 ;--------------------------------------------------------
                             12 	.globl ___fsadd
                             13 ;--------------------------------------------------------
                             14 ; ram data
                             15 ;--------------------------------------------------------
                             16 	.area _DATA
                             17 ;--------------------------------------------------------
                             18 ; ram data
                             19 ;--------------------------------------------------------
                             20 	.area _INITIALIZED
                             21 ;--------------------------------------------------------
                             22 ; absolute external ram data
                             23 ;--------------------------------------------------------
                             24 	.area _DABS (ABS)
                             25 ;--------------------------------------------------------
                             26 ; global & static initialisations
                             27 ;--------------------------------------------------------
                             28 	.area _HOME
                             29 	.area _GSINIT
                             30 	.area _GSFINAL
                             31 	.area _GSINIT
                             32 ;--------------------------------------------------------
                             33 ; Home
                             34 ;--------------------------------------------------------
                             35 	.area _HOME
                             36 ;../_fsadd.c:170: float __fsadd (float a1, float a2)
                             37 ;	---------------------------------
                             38 ; Function __fsadd
                             39 ; ---------------------------------
   0000                      40 ___fsadd::
   0000 54            [ 4]   41 	push	ix
   0001 3C 00 00      [ 4]   42 	ld	ix,#0
   0004 FE 14         [ 7]   43 	add	ix,sp
   0006 16 DF FF      [ 7]   44 	add	sp, #-33
                             45 ;../_fsadd.c:178: pfl2 = (long _AUTOMEM *)&a2;
   0009 3A 29 00      [13]   46 	ld	hl,#0x0029
   000C FE 70         [ 7]   47 	add	hl,sp
   000E F6 1B 42      [ 7]   48 	ld	27 (sp), hl
   0011 F0 FA 2E      [11]   49 	ld	a,-6 (ix)
   0014 F4 E6 26      [17]   50 	ld	-26 (ix),a
   0017 F0 FB 2E      [11]   51 	ld	a,-5 (ix)
   001A F4 E7 26      [17]   52 	ld	-25 (ix),a
                             53 ;../_fsadd.c:179: exp2 = EXP (*pfl2);
   001D 08            [ 4]   54 	ex	de, hl
   001E F2 07 4A      [10]   55 	ld	hl, 7 (sp)
   0021 08            [ 4]   56 	ex	de, hl
   0022 3A 13 00      [13]   57 	ld	hl, #0x0013
   0025 FE 70         [ 7]   58 	add	hl, sp
   0027 08            [ 4]   59 	ex	de, hl
   0028 38 04 00      [12]   60 	ld	bc, #0x0004
   002B FE 59         [ 7]   61 	ldir
   002D 3A 17 00      [13]   62 	ld	hl, #23
   0030 FE 70         [ 7]   63 	add	hl, sp
   0032 08            [ 4]   64 	ex	de, hl
   0033 3A 13 00      [13]   65 	ld	hl, #19
   0036 FE 70         [ 7]   66 	add	hl, sp
   0038 38 04 00      [12]   67 	ld	bc, #4
   003B FE 59         [ 7]   68 	ldir
   003D 56            [ 7]   69 	push	af
   003E F0 F6 2D      [11]   70 	ld	l,-10 (ix)
   0041 F0 F7 2C      [11]   71 	ld	h,-9 (ix)
   0044 F0 F8 2A      [11]   72 	ld	d,-8 (ix)
   0047 F0 F9 29      [11]   73 	ld	c,-7 (ix)
   004A 5E            [ 7]   74 	pop	af
   004B 30 17         [12]   75 	ld	b,#0x17
   004D                      76 00221$:
   004D F9 A7         [ 6]   77 	srl	c
   004F FA A3         [10]   78 	rr	d
   0051 FC A3         [17]   79 	rr	h
   0053 FD A3                80 	rr	l
   0055 18 F6         [12]   81 	djnz	00221$
   0057 34 00         [11]   82 	ld	h,#0x00
   0059 33 00         [ 6]   83 	ld	e,#0x00
   005B F4 E2 25      [17]   84 	ld	-30 (ix),l
   005E F4 E3 24      [17]   85 	ld	-29 (ix),h
                             86 ;../_fsadd.c:180: mant2 = MANT (*pfl2) << 4;
   0061 F0 F6 2D      [11]   87 	ld	l,-10 (ix)
   0064 F0 F7 2C      [11]   88 	ld	h,-9 (ix)
   0067 F0 F8 29      [11]   89 	ld	c,-8 (ix)
   006A F9 B7         [ 6]   90 	res	7, c
   006C 30 00         [12]   91 	ld	b,#0x00
   006E 21            [10]   92 	ld	a,c
   006F FE BF         [ 7]   93 	set	7, a
   0071 2A            [16]   94 	ld	d,a
   0072 56            [ 7]   95 	push	af
   0073 F4 EA 25      [17]   96 	ld	-22 (ix),l
   0076 F4 EB 24      [17]   97 	ld	-21 (ix),h
   0079 F4 EC 22      [17]   98 	ld	-20 (ix),d
   007C F4 ED 20      [17]   99 	ld	-19 (ix),b
   007F 5E            [ 7]  100 	pop	af
   0080 36 04         [10]  101 	ld	a,#0x04
   0082                     102 00223$:
   0082 E7 EA A4      [11]  103 	sla	-22 (ix)
   0085 E7 EB A2      [11]  104 	rl	-21 (ix)
   0088 E7 EC A2      [11]  105 	rl	-20 (ix)
   008B E7 ED A2      [11]  106 	rl	-19 (ix)
   008E 8E            [ 7]  107 	dec	a
   008F CE F1         [ 7]  108 	jr	NZ,00223$
                            109 ;../_fsadd.c:181: if (SIGN (*pfl2))
   0091 F0 F9 2E      [11]  110 	ld	a,-7 (ix)
   0094 FE A0         [ 7]  111 	rlc	a
   0096 6C 01         [ 4]  112 	and	a,#0x01
   0098 C6 20         [ 7]  113 	jr	Z,00102$
                            114 ;../_fsadd.c:182: mant2 = -mant2;
   009A FE 65         [ 7]  115 	xor	a, a
   009C F0 EA 62      [11]  116 	sub	a, -22 (ix)
   009F F4 EA 26      [17]  117 	ld	-22 (ix),a
   00A2 36 00         [10]  118 	ld	a, #0x00
   00A4 F0 EB 63      [11]  119 	sbc	a, -21 (ix)
   00A7 F4 EB 26      [17]  120 	ld	-21 (ix),a
   00AA 36 00         [10]  121 	ld	a, #0x00
   00AC F0 EC 63      [11]  122 	sbc	a, -20 (ix)
   00AF F4 EC 26      [17]  123 	ld	-20 (ix),a
   00B2 36 00         [10]  124 	ld	a, #0x00
   00B4 F0 ED 63      [11]  125 	sbc	a, -19 (ix)
   00B7 F4 ED 26      [17]  126 	ld	-19 (ix),a
   00BA                     127 00102$:
                            128 ;../_fsadd.c:184: if (!*pfl2)
   00BA F0 F5 2E      [11]  129 	ld	a,-11 (ix)
   00BD F0 F4 66      [11]  130 	or	a, -12 (ix)
   00C0 F0 F3 66      [11]  131 	or	a, -13 (ix)
   00C3 F0 F2 66      [11]  132 	or	a,-14 (ix)
   00C6 CE 0F         [ 7]  133 	jr	NZ,00104$
                            134 ;../_fsadd.c:185: return (a1);
   00C8 F0 04 2D      [11]  135 	ld	l,4 (ix)
   00CB F0 05 2C      [11]  136 	ld	h,5 (ix)
   00CE F0 06 2B      [11]  137 	ld	e,6 (ix)
   00D1 F0 07 2A      [11]  138 	ld	d,7 (ix)
   00D4 1Ar91r04      [ 7]  139 	jp	00137$
   00D7                     140 00104$:
                            141 ;../_fsadd.c:187: pfl1 = (long _AUTOMEM *)&a1;
   00D7 3A 25 00      [13]  142 	ld	hl,#0x0025
   00DA FE 70         [ 7]  143 	add	hl,sp
   00DC F6 17 42      [ 7]  144 	ld	23 (sp), hl
   00DF F0 F6 2E      [11]  145 	ld	a,-10 (ix)
   00E2 F4 E8 26      [17]  146 	ld	-24 (ix),a
   00E5 F0 F7 2E      [11]  147 	ld	a,-9 (ix)
   00E8 F4 E9 26      [17]  148 	ld	-23 (ix),a
                            149 ;../_fsadd.c:188: exp1 = EXP (*pfl1);
   00EB 08            [ 4]  150 	ex	de, hl
   00EC F2 09 4A      [10]  151 	ld	hl, 9 (sp)
   00EF 08            [ 4]  152 	ex	de, hl
   00F0 3A 17 00      [13]  153 	ld	hl, #0x0017
   00F3 FE 70         [ 7]  154 	add	hl, sp
   00F5 08            [ 4]  155 	ex	de, hl
   00F6 38 04 00      [12]  156 	ld	bc, #0x0004
   00F9 FE 59         [ 7]  157 	ldir
   00FB 3A 13 00      [13]  158 	ld	hl, #19
   00FE FE 70         [ 7]  159 	add	hl, sp
   0100 08            [ 4]  160 	ex	de, hl
   0101 3A 17 00      [13]  161 	ld	hl, #23
   0104 FE 70         [ 7]  162 	add	hl, sp
   0106 38 04 00      [12]  163 	ld	bc, #4
   0109 FE 59         [ 7]  164 	ldir
   010B 56            [ 7]  165 	push	af
   010C F0 F2 2D      [11]  166 	ld	l,-14 (ix)
   010F F0 F3 2C      [11]  167 	ld	h,-13 (ix)
   0112 F0 F4 2B      [11]  168 	ld	e,-12 (ix)
   0115 F0 F5 2A      [11]  169 	ld	d,-11 (ix)
   0118 5E            [ 7]  170 	pop	af
   0119 30 17         [12]  171 	ld	b,#0x17
   011B                     172 00225$:
   011B FA A7         [10]  173 	srl	d
   011D FB A3         [ 4]  174 	rr	e
   011F FC A3         [17]  175 	rr	h
   0121 FD A3               176 	rr	l
   0123 18 F6         [12]  177 	djnz	00225$
   0125 34 00         [11]  178 	ld	h,#0x00
   0127 33 00         [ 6]  179 	ld	e,#0x00
   0129 F4 FA 25      [17]  180 	ld	-6 (ix),l
   012C F4 FB 24      [17]  181 	ld	-5 (ix),h
                            182 ;../_fsadd.c:189: mant1 = MANT (*pfl1) << 4;
   012F F0 F2 2D      [11]  183 	ld	l,-14 (ix)
   0132 F0 F3 2C      [11]  184 	ld	h,-13 (ix)
   0135 F0 F4 29      [11]  185 	ld	c,-12 (ix)
   0138 F9 B7         [ 6]  186 	res	7, c
   013A 30 00         [12]  187 	ld	b,#0x00
   013C 21            [10]  188 	ld	a,c
   013D FE BF         [ 7]  189 	set	7, a
   013F 2A            [16]  190 	ld	d,a
   0140 56            [ 7]  191 	push	af
   0141 F4 FC 25      [17]  192 	ld	-4 (ix),l
   0144 F4 FD 24      [17]  193 	ld	-3 (ix),h
   0147 F4 FE 22      [17]  194 	ld	-2 (ix),d
   014A F4 FF 20      [17]  195 	ld	-1 (ix),b
   014D 5E            [ 7]  196 	pop	af
   014E 36 04         [10]  197 	ld	a,#0x04
   0150                     198 00227$:
   0150 E7 FC A4      [11]  199 	sla	-4 (ix)
   0153 E7 FD A2      [11]  200 	rl	-3 (ix)
   0156 E7 FE A2      [11]  201 	rl	-2 (ix)
   0159 E7 FF A2      [11]  202 	rl	-1 (ix)
   015C 8E            [ 7]  203 	dec	a
   015D CE F1         [ 7]  204 	jr	NZ,00227$
                            205 ;../_fsadd.c:190: if (SIGN(*pfl1))
   015F F0 F5 2E      [11]  206 	ld	a,-11 (ix)
   0162 FE A0         [ 7]  207 	rlc	a
   0164 6C 01         [ 4]  208 	and	a,#0x01
   0166 C6 25         [ 7]  209 	jr	Z,00108$
                            210 ;../_fsadd.c:191: if (*pfl1 & 0x80000000)
   0168 F0 F5 AF      [11]  211 	bit	7, -11 (ix)
   016B C6 20         [ 7]  212 	jr	Z,00108$
                            213 ;../_fsadd.c:192: mant1 = -mant1;
   016D FE 65         [ 7]  214 	xor	a, a
   016F F0 FC 62      [11]  215 	sub	a, -4 (ix)
   0172 F4 FC 26      [17]  216 	ld	-4 (ix),a
   0175 36 00         [10]  217 	ld	a, #0x00
   0177 F0 FD 63      [11]  218 	sbc	a, -3 (ix)
   017A F4 FD 26      [17]  219 	ld	-3 (ix),a
   017D 36 00         [10]  220 	ld	a, #0x00
   017F F0 FE 63      [11]  221 	sbc	a, -2 (ix)
   0182 F4 FE 26      [17]  222 	ld	-2 (ix),a
   0185 36 00         [10]  223 	ld	a, #0x00
   0187 F0 FF 63      [11]  224 	sbc	a, -1 (ix)
   018A F4 FF 26      [17]  225 	ld	-1 (ix),a
   018D                     226 00108$:
                            227 ;../_fsadd.c:194: if (!*pfl1)
   018D F0 F9 2E      [11]  228 	ld	a,-7 (ix)
   0190 F0 F8 66      [11]  229 	or	a, -8 (ix)
   0193 F0 F7 66      [11]  230 	or	a, -9 (ix)
   0196 F0 F6 66      [11]  231 	or	a,-10 (ix)
   0199 CE 0F         [ 7]  232 	jr	NZ,00110$
                            233 ;../_fsadd.c:195: return (a2);
   019B F0 08 2D      [11]  234 	ld	l,8 (ix)
   019E F0 09 2C      [11]  235 	ld	h,9 (ix)
   01A1 F0 0A 2B      [11]  236 	ld	e,10 (ix)
   01A4 F0 0B 2A      [11]  237 	ld	d,11 (ix)
   01A7 1Ar91r04      [ 7]  238 	jp	00137$
   01AA                     239 00110$:
                            240 ;../_fsadd.c:197: expd = exp1 - exp2;
   01AA F0 FA 2E      [11]  241 	ld	a,-6 (ix)
   01AD F0 E2 62      [11]  242 	sub	a, -30 (ix)
   01B0 F4 F6 26      [17]  243 	ld	-10 (ix),a
   01B3 F0 FB 2E      [11]  244 	ld	a,-5 (ix)
   01B6 F0 E3 63      [11]  245 	sbc	a, -29 (ix)
   01B9 F4 F7 26      [17]  246 	ld	-9 (ix),a
                            247 ;../_fsadd.c:198: if (expd > 25)
   01BC 36 19         [10]  248 	ld	a,#0x19
   01BE F0 F6 67      [11]  249 	cp	a, -10 (ix)
   01C1 36 00         [10]  250 	ld	a,#0x00
   01C3 F0 F7 63      [11]  251 	sbc	a, -9 (ix)
   01C6 EBrCCr01 CC   [ 4]  252 	jp	PO, 00230$
   01CA 6D 80         [ 4]  253 	xor	a, #0x80
   01CC                     254 00230$:
   01CC EBrDFr01 CD   [ 4]  255 	jp	P,00112$
                            256 ;../_fsadd.c:199: return (a1);
   01D0 F0 04 2D      [11]  257 	ld	l,4 (ix)
   01D3 F0 05 2C      [11]  258 	ld	h,5 (ix)
   01D6 F0 06 2B      [11]  259 	ld	e,6 (ix)
   01D9 F0 07 2A      [11]  260 	ld	d,7 (ix)
   01DC 1Ar91r04      [ 7]  261 	jp	00137$
   01DF                     262 00112$:
                            263 ;../_fsadd.c:200: if (expd < -25)
   01DF F0 F6 2E      [11]  264 	ld	a,-10 (ix)
   01E2 6A E7         [ 4]  265 	sub	a, #0xE7
   01E4 F0 F7 2E      [11]  266 	ld	a,-9 (ix)
   01E7 A2            [ 4]  267 	rla
   01E8 0E            [ 7]  268 	ccf
   01E9 A3            [ 4]  269 	rra
   01EA 6B 7F         [ 4]  270 	sbc	a, #0x7F
   01EC CF 0F         [11]  271 	jr	NC,00114$
                            272 ;../_fsadd.c:201: return (a2);
   01EE F0 08 2D      [11]  273 	ld	l,8 (ix)
   01F1 F0 09 2C      [11]  274 	ld	h,9 (ix)
   01F4 F0 0A 2B      [11]  275 	ld	e,10 (ix)
   01F7 F0 0B 2A      [11]  276 	ld	d,11 (ix)
   01FA 1Ar91r04      [ 7]  277 	jp	00137$
   01FD                     278 00114$:
                            279 ;../_fsadd.c:203: if (expd < 0)
   01FD F0 F7 AF      [11]  280 	bit	7, -9 (ix)
   0200 EBr4Ar02 C6   [ 4]  281 	jp	Z,00116$
                            282 ;../_fsadd.c:205: expd = -expd;
   0204 FE 65         [ 7]  283 	xor	a, a
   0206 F0 F6 62      [11]  284 	sub	a, -10 (ix)
   0209 F4 F2 26      [17]  285 	ld	-14 (ix),a
   020C 36 00         [10]  286 	ld	a, #0x00
   020E F0 F7 63      [11]  287 	sbc	a, -9 (ix)
   0211 F4 F3 26      [17]  288 	ld	-13 (ix),a
   0214 F0 F2 2E      [11]  289 	ld	a,-14 (ix)
   0217 F4 E0 26      [17]  290 	ld	-32 (ix),a
   021A F0 F3 2E      [11]  291 	ld	a,-13 (ix)
   021D F4 E1 26      [17]  292 	ld	-31 (ix),a
                            293 ;../_fsadd.c:206: exp1 += expd;
   0220 F0 FA 2E      [11]  294 	ld	a,-6 (ix)
   0223 F0 E0 60      [11]  295 	add	a, -32 (ix)
   0226 F4 FA 26      [17]  296 	ld	-6 (ix),a
   0229 F0 FB 2E      [11]  297 	ld	a,-5 (ix)
   022C F0 E1 61      [11]  298 	adc	a, -31 (ix)
   022F F4 FB 26      [17]  299 	ld	-5 (ix),a
                            300 ;../_fsadd.c:207: mant1 >>= expd;
   0232 F0 E0 28      [11]  301 	ld	b,-32 (ix)
   0235 56            [ 7]  302 	push	af
   0236 5E            [ 7]  303 	pop	af
   0237 80            [ 4]  304 	inc	b
   0238 C8 0C         [11]  305 	jr	00232$
   023A                     306 00231$:
   023A E7 FF A5      [11]  307 	sra	-1 (ix)
   023D E7 FE A3      [11]  308 	rr	-2 (ix)
   0240 E7 FD A3      [11]  309 	rr	-3 (ix)
   0243 E7 FC A3      [11]  310 	rr	-4 (ix)
   0246                     311 00232$:
   0246 18 F2         [12]  312 	djnz	00231$
   0248 C8 16         [11]  313 	jr	00117$
   024A                     314 00116$:
                            315 ;../_fsadd.c:211: mant2 >>= expd;
   024A F0 F6 28      [11]  316 	ld	b,-10 (ix)
   024D 56            [ 7]  317 	push	af
   024E 5E            [ 7]  318 	pop	af
   024F 80            [ 4]  319 	inc	b
   0250 C8 0C         [11]  320 	jr	00234$
   0252                     321 00233$:
   0252 E7 ED A5      [11]  322 	sra	-19 (ix)
   0255 E7 EC A3      [11]  323 	rr	-20 (ix)
   0258 E7 EB A3      [11]  324 	rr	-21 (ix)
   025B E7 EA A3      [11]  325 	rr	-22 (ix)
   025E                     326 00234$:
   025E 18 F2         [12]  327 	djnz	00233$
   0260                     328 00117$:
                            329 ;../_fsadd.c:213: mant1 += mant2;
   0260 F0 FC 2E      [11]  330 	ld	a,-4 (ix)
   0263 F0 EA 60      [11]  331 	add	a, -22 (ix)
   0266 F4 FC 26      [17]  332 	ld	-4 (ix),a
   0269 F0 FD 2E      [11]  333 	ld	a,-3 (ix)
   026C F0 EB 61      [11]  334 	adc	a, -21 (ix)
   026F F4 FD 26      [17]  335 	ld	-3 (ix),a
   0272 F0 FE 2E      [11]  336 	ld	a,-2 (ix)
   0275 F0 EC 61      [11]  337 	adc	a, -20 (ix)
   0278 F4 FE 26      [17]  338 	ld	-2 (ix),a
   027B F0 FF 2E      [11]  339 	ld	a,-1 (ix)
   027E F0 ED 61      [11]  340 	adc	a, -19 (ix)
   0281 F4 FF 26      [17]  341 	ld	-1 (ix),a
   0284 3A 0F 00      [13]  342 	ld	hl, #15
   0287 FE 70         [ 7]  343 	add	hl, sp
   0289 08            [ 4]  344 	ex	de, hl
   028A 3A 1D 00      [13]  345 	ld	hl, #29
   028D FE 70         [ 7]  346 	add	hl, sp
   028F 38 04 00      [12]  347 	ld	bc, #4
   0292 FE 59         [ 7]  348 	ldir
                            349 ;../_fsadd.c:215: sign = false;
   0294 F4 DF 37 00   [17]  350 	ld	-33 (ix),#0x00
                            351 ;../_fsadd.c:217: if (mant1 < 0)
   0298 F0 F1 AF      [11]  352 	bit	7, -15 (ix)
   029B C6 26         [ 7]  353 	jr	Z,00121$
                            354 ;../_fsadd.c:219: mant1 = -mant1;
   029D FE 65         [ 7]  355 	xor	a, a
   029F F0 EE 62      [11]  356 	sub	a, -18 (ix)
   02A2 F4 EE 26      [17]  357 	ld	-18 (ix),a
   02A5 36 00         [10]  358 	ld	a, #0x00
   02A7 F0 EF 63      [11]  359 	sbc	a, -17 (ix)
   02AA F4 EF 26      [17]  360 	ld	-17 (ix),a
   02AD 36 00         [10]  361 	ld	a, #0x00
   02AF F0 F0 63      [11]  362 	sbc	a, -16 (ix)
   02B2 F4 F0 26      [17]  363 	ld	-16 (ix),a
   02B5 36 00         [10]  364 	ld	a, #0x00
   02B7 F0 F1 63      [11]  365 	sbc	a, -15 (ix)
   02BA F4 F1 26      [17]  366 	ld	-15 (ix),a
                            367 ;../_fsadd.c:220: sign = true;
   02BD F4 DF 37 01   [17]  368 	ld	-33 (ix),#0x01
   02C1 C8 18         [11]  369 	jr	00154$
   02C3                     370 00121$:
                            371 ;../_fsadd.c:222: else if (!mant1)
   02C3 F0 F1 2E      [11]  372 	ld	a,-15 (ix)
   02C6 F0 F0 66      [11]  373 	or	a, -16 (ix)
   02C9 F0 EF 66      [11]  374 	or	a, -17 (ix)
   02CC F0 EE 66      [11]  375 	or	a,-18 (ix)
   02CF CE 0A         [ 7]  376 	jr	NZ,00154$
                            377 ;../_fsadd.c:223: return (0);
   02D1 3A 00 00      [13]  378 	ld	hl,#0x0000
   02D4 FD 33               379 	ld	e,l
   02D6 FC 32         [17]  380 	ld	d,h
   02D8 1Ar91r04      [ 7]  381 	jp	00137$
                            382 ;../_fsadd.c:226: while (mant1 < (HIDDEN<<4)) {
   02DB                     383 00154$:
   02DB F0 FA 2E      [11]  384 	ld	a,-6 (ix)
   02DE F4 FC 26      [17]  385 	ld	-4 (ix),a
   02E1 F0 FB 2E      [11]  386 	ld	a,-5 (ix)
   02E4 F4 FD 26      [17]  387 	ld	-3 (ix),a
   02E7                     388 00123$:
   02E7 3A 17 00      [13]  389 	ld	hl, #23
   02EA FE 70         [ 7]  390 	add	hl, sp
   02EC 08            [ 4]  391 	ex	de, hl
   02ED 3A 0F 00      [13]  392 	ld	hl, #15
   02F0 FE 70         [ 7]  393 	add	hl, sp
   02F2 38 04 00      [12]  394 	ld	bc, #4
   02F5 FE 59         [ 7]  395 	ldir
   02F7 F0 F9 2E      [11]  396 	ld	a,-7 (ix)
   02FA 6A 08         [ 4]  397 	sub	a, #0x08
   02FC CF 18         [11]  398 	jr	NC,00157$
                            399 ;../_fsadd.c:227: mant1 <<= 1;
   02FE 56            [ 7]  400 	push	af
   02FF 5E            [ 7]  401 	pop	af
   0300 30 01         [12]  402 	ld	b,#0x01
   0302 E7 EE A4      [11]  403 	sla	-18 (ix)
   0305 E7 EF A2      [11]  404 	rl	-17 (ix)
   0308 E7 F0 A2      [11]  405 	rl	-16 (ix)
   030B E7 F1 A2      [11]  406 	rl	-15 (ix)
                            407 ;../_fsadd.c:228: exp1--;
   030E F2 1D 8F      [10]  408 	dec	29 (sp)
   0311 F2 1D 4A      [10]  409 	ld	hl, 29 (sp)
   0314 C8 D1         [11]  410 	jr	00123$
                            411 ;../_fsadd.c:232: while (mant1 & 0xf0000000) {
   0316                     412 00157$:
   0316 F0 FC 2E      [11]  413 	ld	a,-4 (ix)
   0319 F4 E4 26      [17]  414 	ld	-28 (ix),a
   031C F0 FD 2E      [11]  415 	ld	a,-3 (ix)
   031F F4 E5 26      [17]  416 	ld	-27 (ix),a
   0322                     417 00128$:
   0322 3A 1D 00      [13]  418 	ld	hl, #29
   0325 FE 70         [ 7]  419 	add	hl, sp
   0327 08            [ 4]  420 	ex	de, hl
   0328 3A 0F 00      [13]  421 	ld	hl, #15
   032B FE 70         [ 7]  422 	add	hl, sp
   032D 38 04 00      [12]  423 	ld	bc, #4
   0330 FE 59         [ 7]  424 	ldir
   0332 F0 FF 2E      [11]  425 	ld	a,-1 (ix)
   0335 6C F0         [ 4]  426 	and	a, #0xF0
   0337 EBr7Dr03 C6   [ 4]  427 	jp	Z,00163$
                            428 ;../_fsadd.c:233: if (mant1&1)
   033B F0 EE A8      [11]  429 	bit	0, -18 (ix)
   033E C6 20         [ 7]  430 	jr	Z,00127$
                            431 ;../_fsadd.c:234: mant1 += 2;
   0340 F0 EE 2E      [11]  432 	ld	a,-18 (ix)
   0343 68 02         [ 4]  433 	add	a, #0x02
   0345 F4 EE 26      [17]  434 	ld	-18 (ix),a
   0348 F0 EF 2E      [11]  435 	ld	a,-17 (ix)
   034B 69 00         [ 4]  436 	adc	a, #0x00
   034D F4 EF 26      [17]  437 	ld	-17 (ix),a
   0350 F0 F0 2E      [11]  438 	ld	a,-16 (ix)
   0353 69 00         [ 4]  439 	adc	a, #0x00
   0355 F4 F0 26      [17]  440 	ld	-16 (ix),a
   0358 F0 F1 2E      [11]  441 	ld	a,-15 (ix)
   035B 69 00         [ 4]  442 	adc	a, #0x00
   035D F4 F1 26      [17]  443 	ld	-15 (ix),a
   0360                     444 00127$:
                            445 ;../_fsadd.c:235: mant1 >>= 1;
   0360 56            [ 7]  446 	push	af
   0361 5E            [ 7]  447 	pop	af
   0362 30 01         [12]  448 	ld	b,#0x01
   0364 E7 F1 A5      [11]  449 	sra	-15 (ix)
   0367 E7 F0 A3      [11]  450 	rr	-16 (ix)
   036A E7 EF A3      [11]  451 	rr	-17 (ix)
   036D E7 EE A3      [11]  452 	rr	-18 (ix)
                            453 ;../_fsadd.c:236: exp1++;
   0370 F0 E4 87      [11]  454 	inc	-28 (ix)
   0373 EBr22r03 CE   [ 4]  455 	jp	NZ,00128$
   0377 F0 E5 87      [11]  456 	inc	-27 (ix)
   037A 1Ar22r03      [ 7]  457 	jp	00128$
   037D                     458 00163$:
   037D F0 E4 2E      [11]  459 	ld	a,-28 (ix)
   0380 F4 F6 26      [17]  460 	ld	-10 (ix),a
   0383 F0 E5 2E      [11]  461 	ld	a,-27 (ix)
   0386 F4 F7 26      [17]  462 	ld	-9 (ix),a
                            463 ;../_fsadd.c:240: mant1 &= ~(HIDDEN<<4);
   0389 F0 FF B3      [11]  464 	res	3, -1 (ix)
                            465 ;../_fsadd.c:243: if (exp1 >= 0x100)
   038C F0 E5 2E      [11]  466 	ld	a,-27 (ix)
   038F 6D 80         [ 4]  467 	xor	a, #0x80
   0391 6A 81         [ 4]  468 	sub	a, #0x81
   0393 C7 39         [11]  469 	jr	C,00135$
                            470 ;../_fsadd.c:244: *pfl1 = (sign ? (SIGNBIT | __INFINITY) : __INFINITY);
   0395 F0 DF A8      [11]  471 	bit	0,-33 (ix)
   0398 C6 12         [ 7]  472 	jr	Z,00139$
   039A F4 F2 37 00   [17]  473 	ld	-14 (ix),#0x00
   039E F4 F3 37 00   [17]  474 	ld	-13 (ix),#0x00
   03A2 F4 F4 37 80   [17]  475 	ld	-12 (ix),#0x80
   03A6 F4 F5 37 FF   [17]  476 	ld	-11 (ix),#0xFF
   03AA C8 10         [11]  477 	jr	00140$
   03AC                     478 00139$:
   03AC F4 F2 37 00   [17]  479 	ld	-14 (ix),#0x00
   03B0 F4 F3 37 00   [17]  480 	ld	-13 (ix),#0x00
   03B4 F4 F4 37 80   [17]  481 	ld	-12 (ix),#0x80
   03B8 F4 F5 37 7F   [17]  482 	ld	-11 (ix),#0x7F
   03BC                     483 00140$:
   03BC 08            [ 4]  484 	ex	de, hl
   03BD F2 09 4A      [10]  485 	ld	hl, 9 (sp)
   03C0 08            [ 4]  486 	ex	de, hl
   03C1 3A 13 00      [13]  487 	ld	hl, #0x0013
   03C4 FE 70         [ 7]  488 	add	hl, sp
   03C6 38 04 00      [12]  489 	ld	bc, #0x0004
   03C9 FE 59         [ 7]  490 	ldir
   03CB 1Ar85r04      [ 7]  491 	jp	00136$
   03CE                     492 00135$:
                            493 ;../_fsadd.c:245: else if (exp1 < 0)
   03CE F0 E5 AF      [11]  494 	bit	7, -27 (ix)
   03D1 C6 15         [ 7]  495 	jr	Z,00132$
                            496 ;../_fsadd.c:246: *pfl1 = 0;
   03D3 F2 09 4A      [10]  497 	ld	hl, 9 (sp)
   03D6 FE 65         [ 7]  498 	xor	a, a
   03D8 EA 26         [10]  499 	ld	(hl), a
   03DA 92            [ 4]  500 	inc	hl
   03DB EA 26         [10]  501 	ld	(hl), a
   03DD 92            [ 4]  502 	inc	hl
   03DE FE 65         [ 7]  503 	xor	a, a
   03E0 EA 26         [10]  504 	ld	(hl), a
   03E2 92            [ 4]  505 	inc	hl
   03E3 EA 26         [10]  506 	ld	(hl), a
   03E5 1Ar85r04      [ 7]  507 	jp	00136$
   03E8                     508 00132$:
                            509 ;../_fsadd.c:248: *pfl1 = PACK (sign ? SIGNBIT : 0 , exp1, mant1>>4);
   03E8 F0 DF A8      [11]  510 	bit	0,-33 (ix)
   03EB C6 12         [ 7]  511 	jr	Z,00141$
   03ED F4 F2 37 00   [17]  512 	ld	-14 (ix),#0x00
   03F1 F4 F3 37 00   [17]  513 	ld	-13 (ix),#0x00
   03F5 F4 F4 37 00   [17]  514 	ld	-12 (ix),#0x00
   03F9 F4 F5 37 80   [17]  515 	ld	-11 (ix),#0x80
   03FD C8 0E         [11]  516 	jr	00142$
   03FF                     517 00141$:
   03FF FE 65         [ 7]  518 	xor	a, a
   0401 F4 F2 26      [17]  519 	ld	-14 (ix),a
   0404 F4 F3 26      [17]  520 	ld	-13 (ix),a
   0407 F4 F4 26      [17]  521 	ld	-12 (ix),a
   040A F4 F5 26      [17]  522 	ld	-11 (ix),a
   040D                     523 00142$:
   040D F0 F6 2D      [11]  524 	ld	l,-10 (ix)
   0410 F0 F7 2C      [11]  525 	ld	h,-9 (ix)
   0413 F0 F7 2E      [11]  526 	ld	a,-9 (ix)
   0416 A2            [ 4]  527 	rla
   0417 FE 63         [ 7]  528 	sbc	a, a
   0419 2B            [ 6]  529 	ld	e,a
   041A 2A            [16]  530 	ld	d,a
   041B 30 17         [12]  531 	ld	b,#0x17
   041D                     532 00242$:
   041D FA 70         [10]  533 	add	hl, hl
   041F FB A2         [ 4]  534 	rl	e
   0421 FA A2         [10]  535 	rl	d
   0423 18 F8         [12]  536 	djnz	00242$
   0425 F0 F2 2E      [11]  537 	ld	a,-14 (ix)
   0428 FD 66         [19]  538 	or	a, l
   042A F4 F6 26      [17]  539 	ld	-10 (ix),a
   042D F0 F3 2E      [11]  540 	ld	a,-13 (ix)
   0430 FC 66         [17]  541 	or	a, h
   0432 F4 F7 26      [17]  542 	ld	-9 (ix),a
   0435 F0 F4 2E      [11]  543 	ld	a,-12 (ix)
   0438 FB 66         [ 4]  544 	or	a, e
   043A F4 F8 26      [17]  545 	ld	-8 (ix),a
   043D F0 F5 2E      [11]  546 	ld	a,-11 (ix)
   0440 FA 66         [10]  547 	or	a, d
   0442 F4 F9 26      [17]  548 	ld	-7 (ix),a
   0445 56            [ 7]  549 	push	af
   0446 F0 FC 2B      [11]  550 	ld	e,-4 (ix)
   0449 F0 FD 2A      [11]  551 	ld	d,-3 (ix)
   044C F0 FE 2D      [11]  552 	ld	l,-2 (ix)
   044F F0 FF 2C      [11]  553 	ld	h,-1 (ix)
   0452 5E            [ 7]  554 	pop	af
   0453 30 04         [12]  555 	ld	b,#0x04
   0455                     556 00244$:
   0455 FC A5         [17]  557 	sra	h
   0457 FD A3               558 	rr	l
   0459 FA A3         [10]  559 	rr	d
   045B FB A3         [ 4]  560 	rr	e
   045D 18 F6         [12]  561 	djnz	00244$
   045F F0 F6 2E      [11]  562 	ld	a,-10 (ix)
   0462 FB 66         [ 4]  563 	or	a, e
   0464 2B            [ 6]  564 	ld	e,a
   0465 F0 F7 2E      [11]  565 	ld	a,-9 (ix)
   0468 FA 66         [10]  566 	or	a, d
   046A 2A            [16]  567 	ld	d,a
   046B F0 F8 2E      [11]  568 	ld	a,-8 (ix)
   046E FD 66         [19]  569 	or	a, l
   0470 29            [11]  570 	ld	c,a
   0471 F0 F9 2E      [11]  571 	ld	a,-7 (ix)
   0474 FC 66         [17]  572 	or	a, h
   0476 28            [12]  573 	ld	b,a
   0477 F2 09 4A      [10]  574 	ld	hl, 9 (sp)
   047A EA 23         [10]  575 	ld	(hl),e
   047C 92            [ 4]  576 	inc	hl
   047D EA 22         [10]  577 	ld	(hl),d
   047F 92            [ 4]  578 	inc	hl
   0480 EA 21         [10]  579 	ld	(hl),c
   0482 92            [ 4]  580 	inc	hl
   0483 EA 20         [10]  581 	ld	(hl),b
   0485                     582 00136$:
                            583 ;../_fsadd.c:249: return (a1);
   0485 F0 04 2D      [11]  584 	ld	l,4 (ix)
   0488 F0 05 2C      [11]  585 	ld	h,5 (ix)
   048B F0 06 2B      [11]  586 	ld	e,6 (ix)
   048E F0 07 2A      [11]  587 	ld	d,7 (ix)
   0491                     588 00137$:
   0491 FC 3E         [17]  589 	ld	sp, ix
   0493 5C            [ 4]  590 	pop	ix
   0494 1E            [ 7]  591 	ret
                            592 	.area _HOME
                            593 ;--------------------------------------------------------
                            594 ; code
                            595 ;--------------------------------------------------------
                            596 	.area _CODE
                            597 	.area _CODE
                            598 	.area _INITIALIZER
                            599 	.area _CABS (ABS)
