                              1 ;--------------------------------------------------------
                              2 ; File Created by SDCC : free open source ANSI-C Compiler
                              3 ; Version 3.5.0 #9253 (Apr  4 2022) (Linux)
                              4 ; This file was generated Mon Apr  4 14:16:36 2022
                              5 ;--------------------------------------------------------
                              6 	.module _strtok
                              7 	.optsdcc -mtlcs90
                              8 	
                              9 ;--------------------------------------------------------
                             10 ; Public variables in this module
                             11 ;--------------------------------------------------------
                             12 	.globl _strchr
                             13 	.globl _strtok
                             14 ;--------------------------------------------------------
                             15 ; ram data
                             16 ;--------------------------------------------------------
                             17 	.area _DATA
   0000                      18 _strtok_s_1_22:
   0000                      19 	.ds 2
                             20 ;--------------------------------------------------------
                             21 ; ram data
                             22 ;--------------------------------------------------------
                             23 	.area _INITIALIZED
                             24 ;--------------------------------------------------------
                             25 ; absolute external ram data
                             26 ;--------------------------------------------------------
                             27 	.area _DABS (ABS)
                             28 ;--------------------------------------------------------
                             29 ; global & static initialisations
                             30 ;--------------------------------------------------------
                             31 	.area _HOME
                             32 	.area _GSINIT
                             33 	.area _GSFINAL
                             34 	.area _GSINIT
                             35 ;--------------------------------------------------------
                             36 ; Home
                             37 ;--------------------------------------------------------
                             38 	.area _HOME
                             39 	.area _HOME
                             40 ;--------------------------------------------------------
                             41 ; code
                             42 ;--------------------------------------------------------
                             43 	.area _CODE
                             44 ;../_strtok.c:36: char * strtok ( char * str, const char * control )
                             45 ;	---------------------------------
                             46 ; Function strtok
                             47 ; ---------------------------------
   0000                      48 _strtok::
                             49 ;../_strtok.c:41: if ( str )
   0000 3D 02 00      [ 4]   50 	ld	iy,#2
   0003 FE 15         [ 7]   51 	add	iy,sp
   0005 F1 01 2E      [10]   52 	ld	a,1 (iy)
   0008 E5 66         [11]   53 	or	a,0 (iy)
   000A C6 11         [ 7]   54 	jr	Z,00102$
                             55 ;../_strtok.c:42: s = str;
   000C E5 2E         [11]   56 	ld	a,0 (iy)
   000E EBr00r00 26   [ 4]   57 	ld	(#_strtok_s_1_22 + 0),a
   0012 3A 03 00      [13]   58 	ld	hl, #2+1
   0015 FE 70         [ 7]   59 	add	hl, sp
   0017 E2 2E         [10]   60 	ld	a, (hl)
   0019 EBr01r00 26   [ 4]   61 	ld	(#_strtok_s_1_22 + 1),a
   001D                      62 00102$:
                             63 ;../_strtok.c:43: if ( !s )
   001D E3r01r00 2E   [19]   64 	ld	a,(#_strtok_s_1_22 + 1)
   0021 3Ar00r00      [13]   65 	ld	hl,#_strtok_s_1_22 + 0
   0024 E2 66         [10]   66 	or	a,(hl)
   0026 CE 04         [ 7]   67 	jr	NZ,00108$
                             68 ;../_strtok.c:44: return NULL;
   0028 3A 00 00      [13]   69 	ld	hl,#0x0000
   002B 1E            [ 7]   70 	ret
                             71 ;../_strtok.c:46: while (*s) {
   002C                      72 00108$:
   002C E3r00r00 4A   [19]   73 	ld	hl,(_strtok_s_1_22)
   0030 E2 2E         [10]   74 	ld	a,(hl)
   0032 FE 66         [ 7]   75 	or	a, a
   0034 C6 24         [ 7]   76 	jr	Z,00110$
                             77 ;../_strtok.c:47: if (strchr(control,*s))
   0036 2D            [ 4]   78 	ld	l,a
   0037 A2            [ 4]   79 	rla
   0038 FE 63         [ 7]   80 	sbc	a, a
   003A 2C            [ 4]   81 	ld	h,a
   003B 52            [ 4]   82 	push	hl
   003C F2 06 4A      [10]   83 	ld	hl, 6 (sp)
   003F 52            [ 4]   84 	push	hl
   0040 1Cr00r00      [ 4]   85 	call	_strchr
   0043 16 04 00      [ 7]   86 	add	sp, #4
   0046 24            [ 4]   87 	ld	a,h
   0047 FD 66         [19]   88 	or	a,l
   0049 C6 0F         [ 7]   89 	jr	Z,00110$
                             90 ;../_strtok.c:48: s++;
   004B 3Ar00r00      [13]   91 	ld	hl, #_strtok_s_1_22+0
   004E E2 87         [10]   92 	inc	(hl)
   0050 CE DA         [ 7]   93 	jr	NZ,00108$
   0052 3Ar01r00      [13]   94 	ld	hl, #_strtok_s_1_22+1
   0055 E2 87         [10]   95 	inc	(hl)
   0057 1Ar2Cr00      [ 7]   96 	jp	00108$
                             97 ;../_strtok.c:50: break;
   005A                      98 00110$:
                             99 ;../_strtok.c:53: s1 = s;
   005A E3r00r00 49   [19]  100 	ld	de,(_strtok_s_1_22)
                            101 ;../_strtok.c:55: while (*s) {
   005E                     102 00113$:
                            103 ;../_strtok.c:46: while (*s) {
   005E E3r00r00 4A   [19]  104 	ld	hl,(_strtok_s_1_22)
   0062 E2 2E         [10]  105 	ld	a,(hl)
                            106 ;../_strtok.c:55: while (*s) {
   0064 FE 66         [ 7]  107 	or	a, a
   0066 EBrA7r00 C6   [ 4]  108 	jp	Z,00115$
                            109 ;../_strtok.c:56: if (strchr(control,*s)) {
   006A 2D            [ 4]  110 	ld	l,a
   006B A2            [ 4]  111 	rla
   006C FE 63         [ 7]  112 	sbc	a, a
   006E 2C            [ 4]  113 	ld	h,a
   006F 51            [ 4]  114 	push	de
   0070 52            [ 4]  115 	push	hl
   0071 F2 08 4A      [10]  116 	ld	hl, 8 (sp)
   0074 52            [ 4]  117 	push	hl
   0075 1Cr00r00      [ 4]  118 	call	_strchr
   0078 16 04 00      [ 7]  119 	add	sp, #4
   007B 59            [ 4]  120 	pop	de
   007C 24            [ 4]  121 	ld	a,h
   007D FD 66         [19]  122 	or	a,l
   007F C6 15         [ 7]  123 	jr	Z,00112$
                            124 ;../_strtok.c:57: *s++ = '\0';
   0081 E3r00r00 4A   [19]  125 	ld	hl,(_strtok_s_1_22)
   0085 EA 37 00      [10]  126 	ld	(hl),#0x00
   0088 3Ar00r00      [13]  127 	ld	hl, #_strtok_s_1_22+0
   008B E2 87         [10]  128 	inc	(hl)
   008D CE 05         [ 7]  129 	jr	NZ,00158$
   008F 3Ar01r00      [13]  130 	ld	hl, #_strtok_s_1_22+1
   0092 E2 87         [10]  131 	inc	(hl)
   0094                     132 00158$:
                            133 ;../_strtok.c:58: return s1;
   0094 08            [ 4]  134 	ex	de,hl
   0095 1E            [ 7]  135 	ret
   0096                     136 00112$:
                            137 ;../_strtok.c:60: s++ ;
   0096 3Ar00r00      [13]  138 	ld	hl, #_strtok_s_1_22+0
   0099 E2 87         [10]  139 	inc	(hl)
   009B EBr5Er00 CE   [ 4]  140 	jp	NZ,00113$
   009F 3Ar01r00      [13]  141 	ld	hl, #_strtok_s_1_22+1
   00A2 E2 87         [10]  142 	inc	(hl)
   00A4 1Ar5Er00      [ 7]  143 	jp	00113$
   00A7                     144 00115$:
                            145 ;../_strtok.c:63: s = NULL;
   00A7 3A 00 00      [13]  146 	ld	hl,#0x0000
   00AA EBr00r00 42   [ 4]  147 	ld	(_strtok_s_1_22),hl
                            148 ;../_strtok.c:65: if (*s1)
   00AE E1 2E         [10]  149 	ld	a,(de)
   00B0 FE 66         [ 7]  150 	or	a, a
   00B2 C6 02         [ 7]  151 	jr	Z,00117$
                            152 ;../_strtok.c:66: return s1;
   00B4 08            [ 4]  153 	ex	de,hl
   00B5 1E            [ 7]  154 	ret
   00B6                     155 00117$:
                            156 ;../_strtok.c:68: return NULL;
   00B6 3A 00 00      [13]  157 	ld	hl,#0x0000
   00B9 1E            [ 7]  158 	ret
                            159 	.area _CODE
                            160 	.area _INITIALIZER
                            161 	.area _CABS (ABS)
