                                      1 ;--------------------------------------------------------
                                      2 ; File Created by SDCC : free open source ANSI-C Compiler
                                      3 ; Version 3.5.0 #9253 (Apr  4 2022) (Linux)
                                      4 ; This file was generated Mon Apr  4 14:16:57 2022
                                      5 ;--------------------------------------------------------
                                      6 	.module _fsdiv
                                      7 	.optsdcc -mstm8
                                      8 	
                                      9 ;--------------------------------------------------------
                                     10 ; Public variables in this module
                                     11 ;--------------------------------------------------------
                                     12 	.globl ___fsdiv
                                     13 ;--------------------------------------------------------
                                     14 ; ram data
                                     15 ;--------------------------------------------------------
                                     16 	.area DATA
                                     17 ;--------------------------------------------------------
                                     18 ; ram data
                                     19 ;--------------------------------------------------------
                                     20 	.area INITIALIZED
                                     21 ;--------------------------------------------------------
                                     22 ; absolute external ram data
                                     23 ;--------------------------------------------------------
                                     24 	.area DABS (ABS)
                                     25 ;--------------------------------------------------------
                                     26 ; global & static initialisations
                                     27 ;--------------------------------------------------------
                                     28 	.area HOME
                                     29 	.area GSINIT
                                     30 	.area GSFINAL
                                     31 	.area GSINIT
                                     32 ;--------------------------------------------------------
                                     33 ; Home
                                     34 ;--------------------------------------------------------
                                     35 	.area HOME
                                     36 	.area HOME
                                     37 ;--------------------------------------------------------
                                     38 ; code
                                     39 ;--------------------------------------------------------
                                     40 	.area CODE
                                     41 ;	../_fsdiv.c: 274: float __fsdiv (float a1, float a2)
                                     42 ;	-----------------------------------------
                                     43 ;	 function __fsdiv
                                     44 ;	-----------------------------------------
      000000                         45 ___fsdiv:
      000000 52 48            [ 2]   46 	sub	sp, #72
                                     47 ;	../_fsdiv.c: 283: fl1.f = a1;
      000002 96               [ 1]   48 	ldw	x, sp
      000003 1C 00 18         [ 2]   49 	addw	x, #24
      000006 16 4D            [ 2]   50 	ldw	y, (0x4d, sp)
      000008 EF 02            [ 2]   51 	ldw	(0x2, x), y
      00000A 16 4B            [ 2]   52 	ldw	y, (0x4b, sp)
      00000C FF               [ 2]   53 	ldw	(x), y
                                     54 ;	../_fsdiv.c: 284: fl2.f = a2;
      00000D 96               [ 1]   55 	ldw	x, sp
      00000E 1C 00 14         [ 2]   56 	addw	x, #20
      000011 16 51            [ 2]   57 	ldw	y, (0x51, sp)
      000013 EF 02            [ 2]   58 	ldw	(0x2, x), y
      000015 16 4F            [ 2]   59 	ldw	y, (0x4f, sp)
      000017 FF               [ 2]   60 	ldw	(x), y
                                     61 ;	../_fsdiv.c: 287: exp = EXP (fl1.l) ;
      000018 96               [ 1]   62 	ldw	x, sp
      000019 1C 00 18         [ 2]   63 	addw	x, #24
      00001C E6 03            [ 1]   64 	ld	a, (0x3, x)
      00001E 90 97            [ 1]   65 	ld	yl, a
      000020 E6 02            [ 1]   66 	ld	a, (0x2, x)
      000022 FE               [ 2]   67 	ldw	x, (x)
      000023 88               [ 1]   68 	push	a
      000024 A6 17            [ 1]   69 	ld	a, #0x17
      000026                         70 00164$:
      000026 54               [ 2]   71 	srlw	x
      000027 06 01            [ 1]   72 	rrc	(1, sp)
      000029 61               [ 1]   73 	exg	a, yl
      00002A 46               [ 1]   74 	rrc	a
      00002B 61               [ 1]   75 	exg	a, yl
      00002C 4A               [ 1]   76 	dec	a
      00002D 26 F7            [ 1]   77 	jrne	00164$
      00002F 84               [ 1]   78 	pop	a
      000030 4F               [ 1]   79 	clr	a
      000031 90 95            [ 1]   80 	ld	yh, a
      000033 5F               [ 1]   81 	clrw	x
      000034 17 02            [ 2]   82 	ldw	(0x02, sp), y
                                     83 ;	../_fsdiv.c: 288: exp -= EXP (fl2.l);
      000036 96               [ 1]   84 	ldw	x, sp
      000037 1C 00 14         [ 2]   85 	addw	x, #20
      00003A E6 03            [ 1]   86 	ld	a, (0x3, x)
      00003C 90 97            [ 1]   87 	ld	yl, a
      00003E E6 02            [ 1]   88 	ld	a, (0x2, x)
      000040 FE               [ 2]   89 	ldw	x, (x)
      000041 88               [ 1]   90 	push	a
      000042 A6 17            [ 1]   91 	ld	a, #0x17
      000044                         92 00166$:
      000044 54               [ 2]   93 	srlw	x
      000045 06 01            [ 1]   94 	rrc	(1, sp)
      000047 61               [ 1]   95 	exg	a, yl
      000048 46               [ 1]   96 	rrc	a
      000049 61               [ 1]   97 	exg	a, yl
      00004A 4A               [ 1]   98 	dec	a
      00004B 26 F7            [ 1]   99 	jrne	00166$
      00004D 84               [ 1]  100 	pop	a
      00004E 0F 43            [ 1]  101 	clr	(0x43, sp)
      000050 0F 42            [ 1]  102 	clr	(0x42, sp)
      000052 0F 41            [ 1]  103 	clr	(0x41, sp)
      000054 1E 02            [ 2]  104 	ldw	x, (0x02, sp)
      000056 1F 1E            [ 2]  105 	ldw	(0x1e, sp), x
      000058 5F               [ 1]  106 	clrw	x
      000059 0D 1E            [ 1]  107 	tnz	(0x1e, sp)
      00005B 2A 01            [ 1]  108 	jrpl	00168$
      00005D 5A               [ 2]  109 	decw	x
      00005E                        110 00168$:
      00005E 7B 1F            [ 1]  111 	ld	a, (0x1f, sp)
      000060 90 89            [ 2]  112 	pushw	y
      000062 10 02            [ 1]  113 	sub	a, (#2, sp)
      000064 90 85            [ 2]  114 	popw	y
      000066 90 97            [ 1]  115 	ld	yl, a
      000068 7B 1E            [ 1]  116 	ld	a, (0x1e, sp)
      00006A 12 43            [ 1]  117 	sbc	a, (0x43, sp)
      00006C 90 95            [ 1]  118 	ld	yh, a
      00006E 9F               [ 1]  119 	ld	a, xl
      00006F 12 42            [ 1]  120 	sbc	a, (0x42, sp)
      000071 02               [ 1]  121 	rlwa	x
      000072 12 41            [ 1]  122 	sbc	a, (0x41, sp)
      000074 17 02            [ 2]  123 	ldw	(0x02, sp), y
                                    124 ;	../_fsdiv.c: 289: exp += EXCESS;
      000076 1E 02            [ 2]  125 	ldw	x, (0x02, sp)
      000078 1C 00 7E         [ 2]  126 	addw	x, #0x007e
      00007B 1F 02            [ 2]  127 	ldw	(0x02, sp), x
                                    128 ;	../_fsdiv.c: 292: sign = SIGN (fl1.l) ^ SIGN (fl2.l);
      00007D 96               [ 1]  129 	ldw	x, sp
      00007E 1C 00 18         [ 2]  130 	addw	x, #24
      000081 E6 03            [ 1]  131 	ld	a, (0x3, x)
      000083 90 95            [ 1]  132 	ld	yh, a
      000085 E6 02            [ 1]  133 	ld	a, (0x2, x)
      000087 FE               [ 2]  134 	ldw	x, (x)
      000088 02               [ 1]  135 	rlwa	x
      000089 48               [ 1]  136 	sll	a
      00008A 4F               [ 1]  137 	clr	a
      00008B 49               [ 1]  138 	rlc	a
      00008C 6B 2A            [ 1]  139 	ld	(0x2a, sp), a
      00008E 96               [ 1]  140 	ldw	x, sp
      00008F 1C 00 14         [ 2]  141 	addw	x, #20
      000092 E6 03            [ 1]  142 	ld	a, (0x3, x)
      000094 90 95            [ 1]  143 	ld	yh, a
      000096 E6 02            [ 1]  144 	ld	a, (0x2, x)
      000098 FE               [ 2]  145 	ldw	x, (x)
      000099 9E               [ 1]  146 	ld	a, xh
      00009A 48               [ 1]  147 	sll	a
      00009B 4F               [ 1]  148 	clr	a
      00009C 49               [ 1]  149 	rlc	a
      00009D 18 2A            [ 1]  150 	xor	a, (0x2a, sp)
      00009F 6B 01            [ 1]  151 	ld	(0x01, sp), a
                                    152 ;	../_fsdiv.c: 295: if (!fl2.l)
      0000A1 96               [ 1]  153 	ldw	x, sp
      0000A2 1C 00 14         [ 2]  154 	addw	x, #20
      0000A5 E6 03            [ 1]  155 	ld	a, (0x3, x)
      0000A7 6B 38            [ 1]  156 	ld	(0x38, sp), a
      0000A9 E6 02            [ 1]  157 	ld	a, (0x2, x)
      0000AB 6B 37            [ 1]  158 	ld	(0x37, sp), a
      0000AD FE               [ 2]  159 	ldw	x, (x)
      0000AE 1F 35            [ 2]  160 	ldw	(0x35, sp), x
      0000B0 1E 37            [ 2]  161 	ldw	x, (0x37, sp)
      0000B2 26 22            [ 1]  162 	jrne	00102$
      0000B4 1E 35            [ 2]  163 	ldw	x, (0x35, sp)
      0000B6 26 1E            [ 1]  164 	jrne	00102$
                                    165 ;	../_fsdiv.c: 297: fl2.l = 0x7FC00000;
      0000B8 96               [ 1]  166 	ldw	x, sp
      0000B9 1C 00 14         [ 2]  167 	addw	x, #20
      0000BC 6F 03            [ 1]  168 	clr	(0x3, x)
      0000BE 6F 02            [ 1]  169 	clr	(0x2, x)
      0000C0 90 AE 7F C0      [ 2]  170 	ldw	y, #0x7fc0
      0000C4 FF               [ 2]  171 	ldw	(x), y
                                    172 ;	../_fsdiv.c: 298: return (fl2.f);
      0000C5 96               [ 1]  173 	ldw	x, sp
      0000C6 1C 00 14         [ 2]  174 	addw	x, #20
      0000C9 E6 03            [ 1]  175 	ld	a, (0x3, x)
      0000CB 90 97            [ 1]  176 	ld	yl, a
      0000CD E6 02            [ 1]  177 	ld	a, (0x2, x)
      0000CF 90 95            [ 1]  178 	ld	yh, a
      0000D1 FE               [ 2]  179 	ldw	x, (x)
      0000D2 51               [ 1]  180 	exgw	x, y
      0000D3 CCr02r91         [ 2]  181 	jp	00118$
      0000D6                        182 00102$:
                                    183 ;	../_fsdiv.c: 302: if (!fl1.l)
      0000D6 96               [ 1]  184 	ldw	x, sp
      0000D7 1C 00 18         [ 2]  185 	addw	x, #24
      0000DA E6 03            [ 1]  186 	ld	a, (0x3, x)
      0000DC 6B 25            [ 1]  187 	ld	(0x25, sp), a
      0000DE E6 02            [ 1]  188 	ld	a, (0x2, x)
      0000E0 6B 24            [ 1]  189 	ld	(0x24, sp), a
      0000E2 FE               [ 2]  190 	ldw	x, (x)
      0000E3 16 24            [ 2]  191 	ldw	y, (0x24, sp)
      0000E5 26 09            [ 1]  192 	jrne	00104$
      0000E7 5D               [ 2]  193 	tnzw	x
      0000E8 26 06            [ 1]  194 	jrne	00104$
                                    195 ;	../_fsdiv.c: 303: return (0);
      0000EA 5F               [ 1]  196 	clrw	x
      0000EB 90 5F            [ 1]  197 	clrw	y
      0000ED CCr02r91         [ 2]  198 	jp	00118$
      0000F0                        199 00104$:
                                    200 ;	../_fsdiv.c: 306: mant1 = MANT (fl1.l);
      0000F0 96               [ 1]  201 	ldw	x, sp
      0000F1 1C 00 18         [ 2]  202 	addw	x, #24
      0000F4 E6 03            [ 1]  203 	ld	a, (0x3, x)
      0000F6 90 97            [ 1]  204 	ld	yl, a
      0000F8 E6 02            [ 1]  205 	ld	a, (0x2, x)
      0000FA FE               [ 2]  206 	ldw	x, (x)
      0000FB 02               [ 1]  207 	rlwa	x
      0000FC 58               [ 2]  208 	sllw	x
      0000FD 54               [ 2]  209 	srlw	x
      0000FE 4F               [ 1]  210 	clr	a
      0000FF 88               [ 1]  211 	push	a
      000100 58               [ 2]  212 	sllw	x
      000101 99               [ 1]  213 	scf
      000102 56               [ 2]  214 	rrcw	x
      000103 84               [ 1]  215 	pop	a
      000104 61               [ 1]  216 	exg	a, yl
      000105 6B 0B            [ 1]  217 	ld	(0x0b, sp), a
      000107 61               [ 1]  218 	exg	a, yl
      000108 1F 09            [ 2]  219 	ldw	(0x09, sp), x
      00010A 6B 08            [ 1]  220 	ld	(0x08, sp), a
                                    221 ;	../_fsdiv.c: 307: mant2 = MANT (fl2.l);
      00010C 96               [ 1]  222 	ldw	x, sp
      00010D 1C 00 14         [ 2]  223 	addw	x, #20
      000110 E6 03            [ 1]  224 	ld	a, (0x3, x)
      000112 90 97            [ 1]  225 	ld	yl, a
      000114 E6 02            [ 1]  226 	ld	a, (0x2, x)
      000116 FE               [ 2]  227 	ldw	x, (x)
      000117 02               [ 1]  228 	rlwa	x
      000118 58               [ 2]  229 	sllw	x
      000119 54               [ 2]  230 	srlw	x
      00011A 4F               [ 1]  231 	clr	a
      00011B 88               [ 1]  232 	push	a
      00011C 58               [ 2]  233 	sllw	x
      00011D 99               [ 1]  234 	scf
      00011E 56               [ 2]  235 	rrcw	x
      00011F 84               [ 1]  236 	pop	a
      000120 61               [ 1]  237 	exg	a, yl
      000121 6B 07            [ 1]  238 	ld	(0x07, sp), a
      000123 61               [ 1]  239 	exg	a, yl
      000124 1F 05            [ 2]  240 	ldw	(0x05, sp), x
      000126 6B 04            [ 1]  241 	ld	(0x04, sp), a
                                    242 ;	../_fsdiv.c: 310: if (mant1 < mant2)
      000128 1E 0A            [ 2]  243 	ldw	x, (0x0a, sp)
      00012A 13 06            [ 2]  244 	cpw	x, (0x06, sp)
      00012C 7B 09            [ 1]  245 	ld	a, (0x09, sp)
      00012E 12 05            [ 1]  246 	sbc	a, (0x05, sp)
      000130 7B 08            [ 1]  247 	ld	a, (0x08, sp)
      000132 12 04            [ 1]  248 	sbc	a, (0x04, sp)
      000134 2E 10            [ 1]  249 	jrsge	00106$
                                    250 ;	../_fsdiv.c: 312: mant1 <<= 1;
      000136 16 0A            [ 2]  251 	ldw	y, (0x0a, sp)
      000138 1E 08            [ 2]  252 	ldw	x, (0x08, sp)
      00013A 90 58            [ 2]  253 	sllw	y
      00013C 59               [ 2]  254 	rlcw	x
      00013D 17 0A            [ 2]  255 	ldw	(0x0a, sp), y
      00013F 1F 08            [ 2]  256 	ldw	(0x08, sp), x
                                    257 ;	../_fsdiv.c: 313: exp--;
      000141 1E 02            [ 2]  258 	ldw	x, (0x02, sp)
      000143 5A               [ 2]  259 	decw	x
      000144 1F 02            [ 2]  260 	ldw	(0x02, sp), x
      000146                        261 00106$:
                                    262 ;	../_fsdiv.c: 317: mask = 0x1000000;
      000146 5F               [ 1]  263 	clrw	x
      000147 1F 0E            [ 2]  264 	ldw	(0x0e, sp), x
      000149 AE 01 00         [ 2]  265 	ldw	x, #0x0100
      00014C 1F 0C            [ 2]  266 	ldw	(0x0c, sp), x
                                    267 ;	../_fsdiv.c: 318: result = 0;
      00014E 5F               [ 1]  268 	clrw	x
      00014F 1F 12            [ 2]  269 	ldw	(0x12, sp), x
      000151 1F 10            [ 2]  270 	ldw	(0x10, sp), x
                                    271 ;	../_fsdiv.c: 319: while (mask)
      000153                        272 00109$:
      000153 1E 0E            [ 2]  273 	ldw	x, (0x0e, sp)
      000155 26 04            [ 1]  274 	jrne	00174$
      000157 1E 0C            [ 2]  275 	ldw	x, (0x0c, sp)
      000159 27 52            [ 1]  276 	jreq	00111$
      00015B                        277 00174$:
                                    278 ;	../_fsdiv.c: 321: if (mant1 >= mant2)
      00015B 1E 0A            [ 2]  279 	ldw	x, (0x0a, sp)
      00015D 13 06            [ 2]  280 	cpw	x, (0x06, sp)
      00015F 7B 09            [ 1]  281 	ld	a, (0x09, sp)
      000161 12 05            [ 1]  282 	sbc	a, (0x05, sp)
      000163 7B 08            [ 1]  283 	ld	a, (0x08, sp)
      000165 12 04            [ 1]  284 	sbc	a, (0x04, sp)
      000167 2F 2C            [ 1]  285 	jrslt	00108$
                                    286 ;	../_fsdiv.c: 323: result |= mask;
      000169 16 12            [ 2]  287 	ldw	y, (0x12, sp)
      00016B 1E 10            [ 2]  288 	ldw	x, (0x10, sp)
      00016D 90 9F            [ 1]  289 	ld	a, yl
      00016F 1A 0F            [ 1]  290 	or	a, (0x0f, sp)
      000171 90 02            [ 1]  291 	rlwa	y
      000173 1A 0E            [ 1]  292 	or	a, (0x0e, sp)
      000175 90 95            [ 1]  293 	ld	yh, a
      000177 9F               [ 1]  294 	ld	a, xl
      000178 1A 0D            [ 1]  295 	or	a, (0x0d, sp)
      00017A 02               [ 1]  296 	rlwa	x
      00017B 1A 0C            [ 1]  297 	or	a, (0x0c, sp)
      00017D 95               [ 1]  298 	ld	xh, a
      00017E 17 12            [ 2]  299 	ldw	(0x12, sp), y
      000180 1F 10            [ 2]  300 	ldw	(0x10, sp), x
                                    301 ;	../_fsdiv.c: 324: mant1 -= mant2;
      000182 16 0A            [ 2]  302 	ldw	y, (0x0a, sp)
      000184 72 F2 06         [ 2]  303 	subw	y, (0x06, sp)
      000187 7B 09            [ 1]  304 	ld	a, (0x09, sp)
      000189 12 05            [ 1]  305 	sbc	a, (0x05, sp)
      00018B 97               [ 1]  306 	ld	xl, a
      00018C 7B 08            [ 1]  307 	ld	a, (0x08, sp)
      00018E 12 04            [ 1]  308 	sbc	a, (0x04, sp)
      000190 95               [ 1]  309 	ld	xh, a
      000191 17 0A            [ 2]  310 	ldw	(0x0a, sp), y
      000193 1F 08            [ 2]  311 	ldw	(0x08, sp), x
      000195                        312 00108$:
                                    313 ;	../_fsdiv.c: 326: mant1 <<= 1;
      000195 16 0A            [ 2]  314 	ldw	y, (0x0a, sp)
      000197 1E 08            [ 2]  315 	ldw	x, (0x08, sp)
      000199 90 58            [ 2]  316 	sllw	y
      00019B 59               [ 2]  317 	rlcw	x
      00019C 17 0A            [ 2]  318 	ldw	(0x0a, sp), y
      00019E 1F 08            [ 2]  319 	ldw	(0x08, sp), x
                                    320 ;	../_fsdiv.c: 327: mask >>= 1;
      0001A0 16 0E            [ 2]  321 	ldw	y, (0x0e, sp)
      0001A2 1E 0C            [ 2]  322 	ldw	x, (0x0c, sp)
      0001A4 54               [ 2]  323 	srlw	x
      0001A5 90 56            [ 2]  324 	rrcw	y
      0001A7 17 0E            [ 2]  325 	ldw	(0x0e, sp), y
      0001A9 1F 0C            [ 2]  326 	ldw	(0x0c, sp), x
      0001AB 20 A6            [ 2]  327 	jra	00109$
      0001AD                        328 00111$:
                                    329 ;	../_fsdiv.c: 331: result += 1;
      0001AD 16 12            [ 2]  330 	ldw	y, (0x12, sp)
      0001AF 72 A9 00 01      [ 2]  331 	addw	y, #0x0001
      0001B3 7B 11            [ 1]  332 	ld	a, (0x11, sp)
      0001B5 A9 00            [ 1]  333 	adc	a, #0x00
      0001B7 97               [ 1]  334 	ld	xl, a
      0001B8 7B 10            [ 1]  335 	ld	a, (0x10, sp)
      0001BA A9 00            [ 1]  336 	adc	a, #0x00
      0001BC 95               [ 1]  337 	ld	xh, a
      0001BD 17 12            [ 2]  338 	ldw	(0x12, sp), y
      0001BF 1F 10            [ 2]  339 	ldw	(0x10, sp), x
                                    340 ;	../_fsdiv.c: 334: exp++;
      0001C1 1E 02            [ 2]  341 	ldw	x, (0x02, sp)
      0001C3 5C               [ 2]  342 	incw	x
      0001C4 1F 02            [ 2]  343 	ldw	(0x02, sp), x
                                    344 ;	../_fsdiv.c: 335: result >>= 1;
      0001C6 16 12            [ 2]  345 	ldw	y, (0x12, sp)
      0001C8 1E 10            [ 2]  346 	ldw	x, (0x10, sp)
      0001CA 57               [ 2]  347 	sraw	x
      0001CB 90 56            [ 2]  348 	rrcw	y
      0001CD 17 12            [ 2]  349 	ldw	(0x12, sp), y
      0001CF 1F 10            [ 2]  350 	ldw	(0x10, sp), x
                                    351 ;	../_fsdiv.c: 337: result &= ~HIDDEN;
      0001D1 16 12            [ 2]  352 	ldw	y, (0x12, sp)
      0001D3 1E 10            [ 2]  353 	ldw	x, (0x10, sp)
      0001D5 9F               [ 1]  354 	ld	a, xl
      0001D6 A4 7F            [ 1]  355 	and	a, #0x7f
      0001D8 97               [ 1]  356 	ld	xl, a
      0001D9 17 12            [ 2]  357 	ldw	(0x12, sp), y
      0001DB 1F 10            [ 2]  358 	ldw	(0x10, sp), x
                                    359 ;	../_fsdiv.c: 340: if (exp >= 0x100)
      0001DD 1E 02            [ 2]  360 	ldw	x, (0x02, sp)
      0001DF A3 01 00         [ 2]  361 	cpw	x, #0x0100
      0001E2 2F 2A            [ 1]  362 	jrslt	00116$
                                    363 ;	../_fsdiv.c: 341: fl1.l = (sign ? SIGNBIT : 0) | __INFINITY;
      0001E4 96               [ 1]  364 	ldw	x, sp
      0001E5 1C 00 18         [ 2]  365 	addw	x, #24
      0001E8 1F 33            [ 2]  366 	ldw	(0x33, sp), x
      0001EA 0D 01            [ 1]  367 	tnz	(0x01, sp)
      0001EC 27 08            [ 1]  368 	jreq	00120$
      0001EE 90 5F            [ 1]  369 	clrw	y
      0001F0 0F 3A            [ 1]  370 	clr	(0x3a, sp)
      0001F2 A6 80            [ 1]  371 	ld	a, #0x80
      0001F4 20 05            [ 2]  372 	jra	00121$
      0001F6                        373 00120$:
      0001F6 90 5F            [ 1]  374 	clrw	y
      0001F8 0F 3A            [ 1]  375 	clr	(0x3a, sp)
      0001FA 4F               [ 1]  376 	clr	a
      0001FB                        377 00121$:
      0001FB AA 7F            [ 1]  378 	or	a, #0x7f
      0001FD 6B 3D            [ 1]  379 	ld	(0x3d, sp), a
      0001FF 7B 3A            [ 1]  380 	ld	a, (0x3a, sp)
      000201 AA 80            [ 1]  381 	or	a, #0x80
      000203 6B 3E            [ 1]  382 	ld	(0x3e, sp), a
      000205 1E 33            [ 2]  383 	ldw	x, (0x33, sp)
      000207 EF 02            [ 2]  384 	ldw	(0x2, x), y
      000209 16 3D            [ 2]  385 	ldw	y, (0x3d, sp)
      00020B FF               [ 2]  386 	ldw	(x), y
      00020C 20 75            [ 2]  387 	jra	00117$
      00020E                        388 00116$:
                                    389 ;	../_fsdiv.c: 342: else if (exp < 0)
      00020E 0D 02            [ 1]  390 	tnz	(0x02, sp)
      000210 2A 0D            [ 1]  391 	jrpl	00113$
                                    392 ;	../_fsdiv.c: 343: fl1.l = 0;
      000212 96               [ 1]  393 	ldw	x, sp
      000213 1C 00 18         [ 2]  394 	addw	x, #24
      000216 6F 03            [ 1]  395 	clr	(0x3, x)
      000218 6F 02            [ 1]  396 	clr	(0x2, x)
      00021A 6F 01            [ 1]  397 	clr	(0x1, x)
      00021C 7F               [ 1]  398 	clr	(x)
      00021D 20 64            [ 2]  399 	jra	00117$
      00021F                        400 00113$:
                                    401 ;	../_fsdiv.c: 345: fl1.l = PACK (sign ? SIGNBIT : 0 , exp, result);
      00021F 96               [ 1]  402 	ldw	x, sp
      000220 1C 00 18         [ 2]  403 	addw	x, #24
      000223 1F 20            [ 2]  404 	ldw	(0x20, sp), x
      000225 0D 01            [ 1]  405 	tnz	(0x01, sp)
      000227 27 0A            [ 1]  406 	jreq	00122$
      000229 5F               [ 1]  407 	clrw	x
      00022A 1F 31            [ 2]  408 	ldw	(0x31, sp), x
      00022C AE 80 00         [ 2]  409 	ldw	x, #0x8000
      00022F 1F 2F            [ 2]  410 	ldw	(0x2f, sp), x
      000231 20 05            [ 2]  411 	jra	00123$
      000233                        412 00122$:
      000233 5F               [ 1]  413 	clrw	x
      000234 1F 31            [ 2]  414 	ldw	(0x31, sp), x
      000236 1F 2F            [ 2]  415 	ldw	(0x2f, sp), x
      000238                        416 00123$:
      000238 16 02            [ 2]  417 	ldw	y, (0x02, sp)
      00023A 5F               [ 1]  418 	clrw	x
      00023B 90 5D            [ 2]  419 	tnzw	y
      00023D 2A 01            [ 1]  420 	jrpl	00180$
      00023F 5A               [ 2]  421 	decw	x
      000240                        422 00180$:
      000240 A6 17            [ 1]  423 	ld	a, #0x17
      000242                        424 00181$:
      000242 90 58            [ 2]  425 	sllw	y
      000244 59               [ 2]  426 	rlcw	x
      000245 4A               [ 1]  427 	dec	a
      000246 26 FA            [ 1]  428 	jrne	00181$
      000248 90 9F            [ 1]  429 	ld	a, yl
      00024A 1A 32            [ 1]  430 	or	a, (0x32, sp)
      00024C 6B 2E            [ 1]  431 	ld	(0x2e, sp), a
      00024E 90 9E            [ 1]  432 	ld	a, yh
      000250 1A 31            [ 1]  433 	or	a, (0x31, sp)
      000252 6B 2D            [ 1]  434 	ld	(0x2d, sp), a
      000254 9F               [ 1]  435 	ld	a, xl
      000255 1A 30            [ 1]  436 	or	a, (0x30, sp)
      000257 6B 2C            [ 1]  437 	ld	(0x2c, sp), a
      000259 9E               [ 1]  438 	ld	a, xh
      00025A 1A 2F            [ 1]  439 	or	a, (0x2f, sp)
      00025C 16 12            [ 2]  440 	ldw	y, (0x12, sp)
      00025E 17 47            [ 2]  441 	ldw	(0x47, sp), y
      000260 1E 10            [ 2]  442 	ldw	x, (0x10, sp)
      000262 89               [ 2]  443 	pushw	x
      000263 1A 01            [ 1]  444 	or	a, (1, sp)
      000265 85               [ 2]  445 	popw	x
      000266 6B 26            [ 1]  446 	ld	(0x26, sp), a
      000268 7B 2E            [ 1]  447 	ld	a, (0x2e, sp)
      00026A 1A 48            [ 1]  448 	or	a, (0x48, sp)
      00026C 90 97            [ 1]  449 	ld	yl, a
      00026E 7B 2D            [ 1]  450 	ld	a, (0x2d, sp)
      000270 1A 47            [ 1]  451 	or	a, (0x47, sp)
      000272 90 95            [ 1]  452 	ld	yh, a
      000274 89               [ 2]  453 	pushw	x
      000275 7B 2E            [ 1]  454 	ld	a, (0x2e, sp)
      000277 1A 02            [ 1]  455 	or	a, (2, sp)
      000279 85               [ 2]  456 	popw	x
      00027A 6B 27            [ 1]  457 	ld	(0x27, sp), a
      00027C 1E 20            [ 2]  458 	ldw	x, (0x20, sp)
      00027E EF 02            [ 2]  459 	ldw	(0x2, x), y
      000280 16 26            [ 2]  460 	ldw	y, (0x26, sp)
      000282 FF               [ 2]  461 	ldw	(x), y
      000283                        462 00117$:
                                    463 ;	../_fsdiv.c: 346: return (fl1.f);
      000283 96               [ 1]  464 	ldw	x, sp
      000284 1C 00 18         [ 2]  465 	addw	x, #24
      000287 E6 03            [ 1]  466 	ld	a, (0x3, x)
      000289 90 97            [ 1]  467 	ld	yl, a
      00028B E6 02            [ 1]  468 	ld	a, (0x2, x)
      00028D 90 95            [ 1]  469 	ld	yh, a
      00028F FE               [ 2]  470 	ldw	x, (x)
      000290 51               [ 1]  471 	exgw	x, y
      000291                        472 00118$:
      000291 5B 48            [ 2]  473 	addw	sp, #72
      000293 81               [ 4]  474 	ret
                                    475 	.area CODE
                                    476 	.area INITIALIZER
                                    477 	.area CABS (ABS)
