                                      1 ;--------------------------------------------------------
                                      2 ; File Created by SDCC : free open source ANSI-C Compiler
                                      3 ; Version 3.5.0 #9253 (Apr  4 2022) (Linux)
                                      4 ; This file was generated Mon Apr  4 14:17:13 2022
                                      5 ;--------------------------------------------------------
                                      6 	.module _mullonglong
                                      7 	.optsdcc -mstm8
                                      8 	
                                      9 ;--------------------------------------------------------
                                     10 ; Public variables in this module
                                     11 ;--------------------------------------------------------
                                     12 	.globl __mullonglong
                                     13 ;--------------------------------------------------------
                                     14 ; ram data
                                     15 ;--------------------------------------------------------
                                     16 	.area DATA
                                     17 ;--------------------------------------------------------
                                     18 ; ram data
                                     19 ;--------------------------------------------------------
                                     20 	.area INITIALIZED
                                     21 ;--------------------------------------------------------
                                     22 ; absolute external ram data
                                     23 ;--------------------------------------------------------
                                     24 	.area DABS (ABS)
                                     25 ;--------------------------------------------------------
                                     26 ; global & static initialisations
                                     27 ;--------------------------------------------------------
                                     28 	.area HOME
                                     29 	.area GSINIT
                                     30 	.area GSFINAL
                                     31 	.area GSINIT
                                     32 ;--------------------------------------------------------
                                     33 ; Home
                                     34 ;--------------------------------------------------------
                                     35 	.area HOME
                                     36 	.area HOME
                                     37 ;--------------------------------------------------------
                                     38 ; code
                                     39 ;--------------------------------------------------------
                                     40 	.area CODE
                                     41 ;	../_mullonglong.c: 35: long long _mullonglong(long long ll, long long lr)
                                     42 ;	-----------------------------------------
                                     43 ;	 function _mullonglong
                                     44 ;	-----------------------------------------
      000000                         45 __mullonglong:
      000000 52 3A            [ 2]   46 	sub	sp, #58
                                     47 ;	../_mullonglong.c: 37: unsigned long long ret = 0ull;
      000002 5F               [ 1]   48 	clrw	x
      000003 1F 09            [ 2]   49 	ldw	(0x09, sp), x
      000005 1F 07            [ 2]   50 	ldw	(0x07, sp), x
      000007 1F 05            [ 2]   51 	ldw	(0x05, sp), x
      000009 1F 03            [ 2]   52 	ldw	(0x03, sp), x
                                     53 ;	../_mullonglong.c: 40: for (i = 0; i < sizeof (long long); i++)
      00000B 4F               [ 1]   54 	clr	a
      00000C                         55 00106$:
                                     56 ;	../_mullonglong.c: 42: unsigned char l = ll >> (i * 8);
      00000C 6B 26            [ 1]   57 	ld	(0x26, sp), a
      00000E 0F 25            [ 1]   58 	clr	(0x25, sp)
      000010 1E 25            [ 2]   59 	ldw	x, (0x25, sp)
      000012 58               [ 2]   60 	sllw	x
      000013 58               [ 2]   61 	sllw	x
      000014 58               [ 2]   62 	sllw	x
      000015 88               [ 1]   63 	push	a
      000016 16 44            [ 2]   64 	ldw	y, (0x44, sp)
      000018 17 34            [ 2]   65 	ldw	(0x34, sp), y
      00001A 16 42            [ 2]   66 	ldw	y, (0x42, sp)
      00001C 17 32            [ 2]   67 	ldw	(0x32, sp), y
      00001E 16 46            [ 2]   68 	ldw	y, (0x46, sp)
      000020 7B 40            [ 1]   69 	ld	a, (0x40, sp)
      000022 95               [ 1]   70 	ld	xh, a
      000023 7B 41            [ 1]   71 	ld	a, (0x41, sp)
      000025 6B 31            [ 1]   72 	ld	(0x31, sp), a
      000027 9F               [ 1]   73 	ld	a, xl
      000028 4D               [ 1]   74 	tnz	a
      000029 27 12            [ 1]   75 	jreq	00129$
      00002B                         76 00128$:
      00002B 02               [ 1]   77 	rlwa	x
      00002C 47               [ 1]   78 	sra	a
      00002D 01               [ 1]   79 	rrwa	x
      00002E 06 31            [ 1]   80 	rrc	(0x31, sp)
      000030 06 32            [ 1]   81 	rrc	(0x32, sp)
      000032 06 33            [ 1]   82 	rrc	(0x33, sp)
      000034 06 34            [ 1]   83 	rrc	(0x34, sp)
      000036 06 35            [ 1]   84 	rrc	(0x35, sp)
      000038 90 56            [ 2]   85 	rrcw	y
      00003A 4A               [ 1]   86 	dec	a
      00003B 26 EE            [ 1]   87 	jrne	00128$
      00003D                         88 00129$:
      00003D 84               [ 1]   89 	pop	a
      00003E 61               [ 1]   90 	exg	a, yl
      00003F 6B 01            [ 1]   91 	ld	(0x01, sp), a
      000041 61               [ 1]   92 	exg	a, yl
                                     93 ;	../_mullonglong.c: 43: for(j = 0; (i + j) < sizeof (long long); j++)
      000042 0F 02            [ 1]   94 	clr	(0x02, sp)
      000044                         95 00104$:
      000044 88               [ 1]   96 	push	a
      000045 7B 03            [ 1]   97 	ld	a, (0x03, sp)
      000047 6B 3B            [ 1]   98 	ld	(0x3b, sp), a
      000049 84               [ 1]   99 	pop	a
      00004A 0F 39            [ 1]  100 	clr	(0x39, sp)
      00004C 1E 25            [ 2]  101 	ldw	x, (0x25, sp)
      00004E 72 FB 39         [ 2]  102 	addw	x, (0x39, sp)
      000051 A3 00 08         [ 2]  103 	cpw	x, #0x0008
      000054 2F 03            [ 1]  104 	jrslt	00130$
      000056 CCr00rF1         [ 2]  105 	jp	00107$
      000059                        106 00130$:
                                    107 ;	../_mullonglong.c: 45: unsigned char r = lr >> (j * 8);
      000059 16 39            [ 2]  108 	ldw	y, (0x39, sp)
      00005B 90 58            [ 2]  109 	sllw	y
      00005D 90 58            [ 2]  110 	sllw	y
      00005F 90 58            [ 2]  111 	sllw	y
      000061 17 0B            [ 2]  112 	ldw	(0x0b, sp), y
      000063 88               [ 1]  113 	push	a
      000064 16 4C            [ 2]  114 	ldw	y, (0x4c, sp)
      000066 17 2C            [ 2]  115 	ldw	(0x2c, sp), y
      000068 16 4A            [ 2]  116 	ldw	y, (0x4a, sp)
      00006A 17 2A            [ 2]  117 	ldw	(0x2a, sp), y
      00006C 16 48            [ 2]  118 	ldw	y, (0x48, sp)
      00006E 17 28            [ 2]  119 	ldw	(0x28, sp), y
      000070 16 4E            [ 2]  120 	ldw	y, (0x4e, sp)
      000072 7B 0D            [ 1]  121 	ld	a, (0x0d, sp)
      000074 27 11            [ 1]  122 	jreq	00132$
      000076                        123 00131$:
      000076 07 28            [ 1]  124 	sra	(0x28, sp)
      000078 06 29            [ 1]  125 	rrc	(0x29, sp)
      00007A 06 2A            [ 1]  126 	rrc	(0x2a, sp)
      00007C 06 2B            [ 1]  127 	rrc	(0x2b, sp)
      00007E 06 2C            [ 1]  128 	rrc	(0x2c, sp)
      000080 06 2D            [ 1]  129 	rrc	(0x2d, sp)
      000082 90 56            [ 2]  130 	rrcw	y
      000084 4A               [ 1]  131 	dec	a
      000085 26 EF            [ 1]  132 	jrne	00131$
      000087                        133 00132$:
      000087 7B 02            [ 1]  134 	ld	a, (0x02, sp)
      000089 90 42            [ 4]  135 	mul	y, a
      00008B 84               [ 1]  136 	pop	a
      00008C 17 13            [ 2]  137 	ldw	(0x13, sp), y
      00008E 0F 12            [ 1]  138 	clr	(0x12, sp)
      000090 0F 11            [ 1]  139 	clr	(0x11, sp)
      000092 0F 10            [ 1]  140 	clr	(0x10, sp)
      000094 0F 0F            [ 1]  141 	clr	(0x0f, sp)
      000096 90 5F            [ 1]  142 	clrw	y
      000098 58               [ 2]  143 	sllw	x
      000099 58               [ 2]  144 	sllw	x
      00009A 58               [ 2]  145 	sllw	x
      00009B 1F 37            [ 2]  146 	ldw	(0x37, sp), x
      00009D 88               [ 1]  147 	push	a
      00009E 17 16            [ 2]  148 	ldw	(0x16, sp), y
      0000A0 16 12            [ 2]  149 	ldw	y, (0x12, sp)
      0000A2 17 1A            [ 2]  150 	ldw	(0x1a, sp), y
      0000A4 16 14            [ 2]  151 	ldw	y, (0x14, sp)
      0000A6 1E 10            [ 2]  152 	ldw	x, (0x10, sp)
      0000A8 7B 39            [ 1]  153 	ld	a, (0x39, sp)
      0000AA 27 0E            [ 1]  154 	jreq	00134$
      0000AC                        155 00133$:
      0000AC 90 58            [ 2]  156 	sllw	y
      0000AE 09 1B            [ 1]  157 	rlc	(0x1b, sp)
      0000B0 09 1A            [ 1]  158 	rlc	(0x1a, sp)
      0000B2 59               [ 2]  159 	rlcw	x
      0000B3 09 17            [ 1]  160 	rlc	(0x17, sp)
      0000B5 09 16            [ 1]  161 	rlc	(0x16, sp)
      0000B7 4A               [ 1]  162 	dec	a
      0000B8 26 F2            [ 1]  163 	jrne	00133$
      0000BA                        164 00134$:
      0000BA 84               [ 1]  165 	pop	a
      0000BB 72 F9 09         [ 2]  166 	addw	y, (0x09, sp)
      0000BE 88               [ 1]  167 	push	a
      0000BF 7B 1B            [ 1]  168 	ld	a, (0x1b, sp)
      0000C1 19 09            [ 1]  169 	adc	a, (0x09, sp)
      0000C3 6B 23            [ 1]  170 	ld	(0x23, sp), a
      0000C5 7B 1A            [ 1]  171 	ld	a, (0x1a, sp)
      0000C7 19 08            [ 1]  172 	adc	a, (0x08, sp)
      0000C9 6B 22            [ 1]  173 	ld	(0x22, sp), a
      0000CB 9F               [ 1]  174 	ld	a, xl
      0000CC 19 07            [ 1]  175 	adc	a, (0x07, sp)
      0000CE 6B 21            [ 1]  176 	ld	(0x21, sp), a
      0000D0 9E               [ 1]  177 	ld	a, xh
      0000D1 19 06            [ 1]  178 	adc	a, (0x06, sp)
      0000D3 6B 20            [ 1]  179 	ld	(0x20, sp), a
      0000D5 7B 17            [ 1]  180 	ld	a, (0x17, sp)
      0000D7 19 05            [ 1]  181 	adc	a, (0x05, sp)
      0000D9 97               [ 1]  182 	ld	xl, a
      0000DA 7B 16            [ 1]  183 	ld	a, (0x16, sp)
      0000DC 19 04            [ 1]  184 	adc	a, (0x04, sp)
      0000DE 95               [ 1]  185 	ld	xh, a
      0000DF 84               [ 1]  186 	pop	a
      0000E0 17 09            [ 2]  187 	ldw	(0x09, sp), y
      0000E2 1F 03            [ 2]  188 	ldw	(0x03, sp), x
      0000E4 16 21            [ 2]  189 	ldw	y, (0x21, sp)
      0000E6 17 07            [ 2]  190 	ldw	(0x07, sp), y
      0000E8 16 1F            [ 2]  191 	ldw	y, (0x1f, sp)
      0000EA 17 05            [ 2]  192 	ldw	(0x05, sp), y
                                    193 ;	../_mullonglong.c: 43: for(j = 0; (i + j) < sizeof (long long); j++)
      0000EC 0C 02            [ 1]  194 	inc	(0x02, sp)
      0000EE CCr00r44         [ 2]  195 	jp	00104$
      0000F1                        196 00107$:
                                    197 ;	../_mullonglong.c: 40: for (i = 0; i < sizeof (long long); i++)
      0000F1 4C               [ 1]  198 	inc	a
      0000F2 A1 08            [ 1]  199 	cp	a, #0x08
      0000F4 24 03            [ 1]  200 	jrnc	00135$
      0000F6 CCr00r0C         [ 2]  201 	jp	00106$
      0000F9                        202 00135$:
                                    203 ;	../_mullonglong.c: 50: return(ret);
      0000F9 1E 3D            [ 2]  204 	ldw	x, (0x3d, sp)
      0000FB 16 09            [ 2]  205 	ldw	y, (0x09, sp)
      0000FD EF 06            [ 2]  206 	ldw	(#6, x), y
      0000FF 16 07            [ 2]  207 	ldw	y, (0x07, sp)
      000101 EF 04            [ 2]  208 	ldw	(#4, x), y
      000103 16 05            [ 2]  209 	ldw	y, (0x05, sp)
      000105 EF 02            [ 2]  210 	ldw	(#2, x), y
      000107 16 03            [ 2]  211 	ldw	y, (0x03, sp)
      000109 FF               [ 2]  212 	ldw	(x), y
      00010A 5B 3A            [ 2]  213 	addw	sp, #58
      00010C 81               [ 4]  214 	ret
                                    215 	.area CODE
                                    216 	.area INITIALIZER
                                    217 	.area CABS (ABS)
