                                      1 ;--------------------------------------------------------
                                      2 ; File Created by SDCC : free open source ANSI-C Compiler
                                      3 ; Version 3.5.0 #9253 (Apr  4 2022) (Linux)
                                      4 ; This file was generated Mon Apr  4 14:17:05 2022
                                      5 ;--------------------------------------------------------
                                      6 	.module sqrtf
                                      7 	.optsdcc -mstm8
                                      8 	
                                      9 ;--------------------------------------------------------
                                     10 ; Public variables in this module
                                     11 ;--------------------------------------------------------
                                     12 	.globl _ldexpf
                                     13 	.globl _frexpf
                                     14 	.globl _sqrtf
                                     15 ;--------------------------------------------------------
                                     16 ; ram data
                                     17 ;--------------------------------------------------------
                                     18 	.area DATA
                                     19 ;--------------------------------------------------------
                                     20 ; ram data
                                     21 ;--------------------------------------------------------
                                     22 	.area INITIALIZED
                                     23 ;--------------------------------------------------------
                                     24 ; absolute external ram data
                                     25 ;--------------------------------------------------------
                                     26 	.area DABS (ABS)
                                     27 ;--------------------------------------------------------
                                     28 ; global & static initialisations
                                     29 ;--------------------------------------------------------
                                     30 	.area HOME
                                     31 	.area GSINIT
                                     32 	.area GSFINAL
                                     33 	.area GSINIT
                                     34 ;--------------------------------------------------------
                                     35 ; Home
                                     36 ;--------------------------------------------------------
                                     37 	.area HOME
                                     38 	.area HOME
                                     39 ;--------------------------------------------------------
                                     40 ; code
                                     41 ;--------------------------------------------------------
                                     42 	.area CODE
                                     43 ;	../sqrtf.c: 37: float sqrtf(float x) _FLOAT_FUNC_REENTRANT
                                     44 ;	-----------------------------------------
                                     45 ;	 function sqrtf
                                     46 ;	-----------------------------------------
      000000                         47 _sqrtf:
      000000 52 12            [ 2]   48 	sub	sp, #18
                                     49 ;	../sqrtf.c: 42: if (x==0.0) return x;
      000002 1E 17            [ 2]   50 	ldw	x, (0x17, sp)
      000004 26 0C            [ 1]   51 	jrne	00107$
      000006 1E 15            [ 2]   52 	ldw	x, (0x15, sp)
      000008 58               [ 2]   53 	sllw	x
      000009 26 07            [ 1]   54 	jrne	00107$
      00000B 1E 17            [ 2]   55 	ldw	x, (0x17, sp)
      00000D 16 15            [ 2]   56 	ldw	y, (0x15, sp)
      00000F CCr01r11         [ 2]   57 	jp	00111$
      000012                         58 00107$:
                                     59 ;	../sqrtf.c: 43: else if (x==1.0) return 1.0;
      000012 5F               [ 1]   60 	clrw	x
      000013 89               [ 2]   61 	pushw	x
      000014 4B 80            [ 1]   62 	push	#0x80
      000016 4B 3F            [ 1]   63 	push	#0x3f
      000018 1E 1B            [ 2]   64 	ldw	x, (0x1b, sp)
      00001A 89               [ 2]   65 	pushw	x
      00001B 1E 1B            [ 2]   66 	ldw	x, (0x1b, sp)
      00001D 89               [ 2]   67 	pushw	x
      00001E CDr00r00         [ 4]   68 	call	___fseq
      000021 5B 08            [ 2]   69 	addw	sp, #8
      000023 4D               [ 1]   70 	tnz	a
      000024 27 08            [ 1]   71 	jreq	00104$
      000026 5F               [ 1]   72 	clrw	x
      000027 90 AE 3F 80      [ 2]   73 	ldw	y, #0x3f80
      00002B CCr01r11         [ 2]   74 	jp	00111$
      00002E                         75 00104$:
                                     76 ;	../sqrtf.c: 44: else if (x<0.0)
      00002E 5F               [ 1]   77 	clrw	x
      00002F 89               [ 2]   78 	pushw	x
      000030 5F               [ 1]   79 	clrw	x
      000031 89               [ 2]   80 	pushw	x
      000032 1E 1B            [ 2]   81 	ldw	x, (0x1b, sp)
      000034 89               [ 2]   82 	pushw	x
      000035 1E 1B            [ 2]   83 	ldw	x, (0x1b, sp)
      000037 89               [ 2]   84 	pushw	x
      000038 CDr00r00         [ 4]   85 	call	___fslt
      00003B 5B 08            [ 2]   86 	addw	sp, #8
      00003D 4D               [ 1]   87 	tnz	a
      00003E 27 0C            [ 1]   88 	jreq	00108$
                                     89 ;	../sqrtf.c: 46: errno=EDOM;
      000040 AE 00 21         [ 2]   90 	ldw	x, #0x0021
      000043 CFu00u00         [ 2]   91 	ldw	_errno+0, x
                                     92 ;	../sqrtf.c: 47: return 0.0;
      000046 5F               [ 1]   93 	clrw	x
      000047 90 5F            [ 1]   94 	clrw	y
      000049 CCr01r11         [ 2]   95 	jp	00111$
      00004C                         96 00108$:
                                     97 ;	../sqrtf.c: 49: f=frexpf(x, &n);
      00004C 96               [ 1]   98 	ldw	x, sp
      00004D 5C               [ 2]   99 	incw	x
      00004E 89               [ 2]  100 	pushw	x
      00004F 1E 19            [ 2]  101 	ldw	x, (0x19, sp)
      000051 89               [ 2]  102 	pushw	x
      000052 1E 19            [ 2]  103 	ldw	x, (0x19, sp)
      000054 89               [ 2]  104 	pushw	x
      000055 CDr00r00         [ 4]  105 	call	_frexpf
      000058 5B 06            [ 2]  106 	addw	sp, #6
      00005A 1F 05            [ 2]  107 	ldw	(0x05, sp), x
      00005C 17 03            [ 2]  108 	ldw	(0x03, sp), y
                                    109 ;	../sqrtf.c: 50: y=0.41731+0.59016*f; /*Educated guess*/
      00005E 1E 05            [ 2]  110 	ldw	x, (0x05, sp)
      000060 89               [ 2]  111 	pushw	x
      000061 1E 05            [ 2]  112 	ldw	x, (0x05, sp)
      000063 89               [ 2]  113 	pushw	x
      000064 4B BA            [ 1]  114 	push	#0xba
      000066 4B 14            [ 1]  115 	push	#0x14
      000068 4B 17            [ 1]  116 	push	#0x17
      00006A 4B 3F            [ 1]  117 	push	#0x3f
      00006C CDr00r00         [ 4]  118 	call	___fsmul
      00006F 5B 08            [ 2]  119 	addw	sp, #8
      000071 4B A8            [ 1]  120 	push	#0xa8
      000073 4B A9            [ 1]  121 	push	#0xa9
      000075 4B D5            [ 1]  122 	push	#0xd5
      000077 4B 3E            [ 1]  123 	push	#0x3e
      000079 89               [ 2]  124 	pushw	x
      00007A 90 89            [ 2]  125 	pushw	y
      00007C CDr00r00         [ 4]  126 	call	___fsadd
      00007F 5B 08            [ 2]  127 	addw	sp, #8
      000081 1F 09            [ 2]  128 	ldw	(0x09, sp), x
      000083 17 07            [ 2]  129 	ldw	(0x07, sp), y
                                    130 ;	../sqrtf.c: 52: y+=f/y;
      000085 1E 09            [ 2]  131 	ldw	x, (0x09, sp)
      000087 89               [ 2]  132 	pushw	x
      000088 1E 09            [ 2]  133 	ldw	x, (0x09, sp)
      00008A 89               [ 2]  134 	pushw	x
      00008B 1E 09            [ 2]  135 	ldw	x, (0x09, sp)
      00008D 89               [ 2]  136 	pushw	x
      00008E 1E 09            [ 2]  137 	ldw	x, (0x09, sp)
      000090 89               [ 2]  138 	pushw	x
      000091 CDr00r00         [ 4]  139 	call	___fsdiv
      000094 5B 08            [ 2]  140 	addw	sp, #8
      000096 89               [ 2]  141 	pushw	x
      000097 90 89            [ 2]  142 	pushw	y
      000099 1E 0D            [ 2]  143 	ldw	x, (0x0d, sp)
      00009B 89               [ 2]  144 	pushw	x
      00009C 1E 0D            [ 2]  145 	ldw	x, (0x0d, sp)
      00009E 89               [ 2]  146 	pushw	x
      00009F CDr00r00         [ 4]  147 	call	___fsadd
      0000A2 5B 08            [ 2]  148 	addw	sp, #8
                                    149 ;	../sqrtf.c: 53: y=ldexpf(y, -2) + f/y; /*Faster version of 0.25 * y + f/y*/
      0000A4 89               [ 2]  150 	pushw	x
      0000A5 90 89            [ 2]  151 	pushw	y
      0000A7 4B FE            [ 1]  152 	push	#0xfe
      0000A9 4B FF            [ 1]  153 	push	#0xff
      0000AB 89               [ 2]  154 	pushw	x
      0000AC 90 89            [ 2]  155 	pushw	y
      0000AE CDr00r00         [ 4]  156 	call	_ldexpf
      0000B1 5B 06            [ 2]  157 	addw	sp, #6
      0000B3 1F 15            [ 2]  158 	ldw	(0x15, sp), x
      0000B5 17 13            [ 2]  159 	ldw	(0x13, sp), y
      0000B7 90 85            [ 2]  160 	popw	y
      0000B9 90 89            [ 2]  161 	pushw	y
      0000BB 1E 09            [ 2]  162 	ldw	x, (0x09, sp)
      0000BD 89               [ 2]  163 	pushw	x
      0000BE 1E 09            [ 2]  164 	ldw	x, (0x09, sp)
      0000C0 89               [ 2]  165 	pushw	x
      0000C1 CDr00r00         [ 4]  166 	call	___fsdiv
      0000C4 5B 08            [ 2]  167 	addw	sp, #8
      0000C6 89               [ 2]  168 	pushw	x
      0000C7 90 89            [ 2]  169 	pushw	y
      0000C9 1E 15            [ 2]  170 	ldw	x, (0x15, sp)
      0000CB 89               [ 2]  171 	pushw	x
      0000CC 1E 15            [ 2]  172 	ldw	x, (0x15, sp)
      0000CE 89               [ 2]  173 	pushw	x
      0000CF CDr00r00         [ 4]  174 	call	___fsadd
      0000D2 5B 08            [ 2]  175 	addw	sp, #8
      0000D4 1F 0D            [ 2]  176 	ldw	(0x0d, sp), x
      0000D6 17 0B            [ 2]  177 	ldw	(0x0b, sp), y
                                    178 ;	../sqrtf.c: 55: if (n&1)
      0000D8 7B 02            [ 1]  179 	ld	a, (0x02, sp)
      0000DA 44               [ 1]  180 	srl	a
      0000DB 24 1C            [ 1]  181 	jrnc	00110$
                                    182 ;	../sqrtf.c: 57: y*=0.7071067812;
      0000DD 1E 0D            [ 2]  183 	ldw	x, (0x0d, sp)
      0000DF 89               [ 2]  184 	pushw	x
      0000E0 1E 0D            [ 2]  185 	ldw	x, (0x0d, sp)
      0000E2 89               [ 2]  186 	pushw	x
      0000E3 4B F3            [ 1]  187 	push	#0xf3
      0000E5 4B 04            [ 1]  188 	push	#0x04
      0000E7 4B 35            [ 1]  189 	push	#0x35
      0000E9 4B 3F            [ 1]  190 	push	#0x3f
      0000EB CDr00r00         [ 4]  191 	call	___fsmul
      0000EE 5B 08            [ 2]  192 	addw	sp, #8
      0000F0 1F 0D            [ 2]  193 	ldw	(0x0d, sp), x
      0000F2 17 0B            [ 2]  194 	ldw	(0x0b, sp), y
                                    195 ;	../sqrtf.c: 58: ++n;
      0000F4 1E 01            [ 2]  196 	ldw	x, (0x01, sp)
      0000F6 5C               [ 2]  197 	incw	x
      0000F7 1F 01            [ 2]  198 	ldw	(0x01, sp), x
      0000F9                        199 00110$:
                                    200 ;	../sqrtf.c: 60: return ldexpf(y, n/2);
      0000F9 4B 02            [ 1]  201 	push	#0x02
      0000FB 4B 00            [ 1]  202 	push	#0x00
      0000FD 1E 03            [ 2]  203 	ldw	x, (0x03, sp)
      0000FF 89               [ 2]  204 	pushw	x
      000100 CDr00r00         [ 4]  205 	call	__divsint
      000103 5B 04            [ 2]  206 	addw	sp, #4
      000105 89               [ 2]  207 	pushw	x
      000106 1E 0F            [ 2]  208 	ldw	x, (0x0f, sp)
      000108 89               [ 2]  209 	pushw	x
      000109 1E 0F            [ 2]  210 	ldw	x, (0x0f, sp)
      00010B 89               [ 2]  211 	pushw	x
      00010C CDr00r00         [ 4]  212 	call	_ldexpf
      00010F 5B 06            [ 2]  213 	addw	sp, #6
      000111                        214 00111$:
      000111 5B 12            [ 2]  215 	addw	sp, #18
      000113 81               [ 4]  216 	ret
                                    217 	.area CODE
                                    218 	.area INITIALIZER
                                    219 	.area CABS (ABS)
